SF:/app/autumn/src/actuator.rs
FN:98,_RNvMNtCslNlzF6u6e2e_10autumn_web8actuatorNtB2_9LogLevels13current_level
FN:106,_RNvMNtCslNlzF6u6e2e_10autumn_web8actuatorNtB2_9LogLevels16logger_overrides
FN:115,_RNvMNtCslNlzF6u6e2e_10autumn_web8actuatorNtB2_9LogLevels16set_logger_level
FN:87,_RNvMNtCslNlzF6u6e2e_10autumn_web8actuatorNtB2_9LogLevels3new
FN:207,_RNvMs0_NtCslNlzF6u6e2e_10autumn_web8actuatorNtB5_12TaskRegistry12record_start
FN:230,_RNvMs0_NtCslNlzF6u6e2e_10autumn_web8actuatorNtB5_12TaskRegistry14record_failure
FN:216,_RNvMs0_NtCslNlzF6u6e2e_10autumn_web8actuatorNtB5_12TaskRegistry14record_success
FN:181,_RNvMs0_NtCslNlzF6u6e2e_10autumn_web8actuatorNtB5_12TaskRegistry3new
FN:188,_RNvMs0_NtCslNlzF6u6e2e_10autumn_web8actuatorNtB5_12TaskRegistry8register
FN:246,_RNvMs0_NtCslNlzF6u6e2e_10autumn_web8actuatorNtB5_12TaskRegistry8snapshot
FN:287,_RNvMs3_NtCslNlzF6u6e2e_10autumn_web8actuatorNtB5_16ConfigProperties11from_config
FN:337,_RNvMs3_NtCslNlzF6u6e2e_10autumn_web8actuatorNtB5_16ConfigProperties14track_db_props
FN:587,_RNvMs3_NtCslNlzF6u6e2e_10autumn_web8actuatorNtB5_16ConfigProperties14track_property
FN:354,_RNvMs3_NtCslNlzF6u6e2e_10autumn_web8actuatorNtB5_16ConfigProperties15track_log_props
FN:444,_RNvMs3_NtCslNlzF6u6e2e_10autumn_web8actuatorNtB5_16ConfigProperties18track_health_props
FN:308,_RNvMs3_NtCslNlzF6u6e2e_10autumn_web8actuatorNtB5_16ConfigProperties18track_server_props
FN:509,_RNvMs3_NtCslNlzF6u6e2e_10autumn_web8actuatorNtB5_16ConfigProperties19track_session_props
FN:487,_RNvMs3_NtCslNlzF6u6e2e_10autumn_web8actuatorNtB5_16ConfigProperties20track_actuator_props
FN:376,_RNvMs3_NtCslNlzF6u6e2e_10autumn_web8actuatorNtB5_16ConfigProperties21track_telemetry_props
FN:623,_RNvMs3_NtCslNlzF6u6e2e_10autumn_web8actuatorNtB5_16ConfigProperties8snapshot
FN:1959,_RNvNtCslNlzF6u6e2e_10autumn_web8actuator12ui_dashboard
FN:777,_RNvNtCslNlzF6u6e2e_10autumn_web8actuator13should_redact
FN:1064,_RNvNtCslNlzF6u6e2e_10autumn_web8actuator19actuator_route_glob
FN:1073,_RNvNtCslNlzF6u6e2e_10autumn_web8actuator19actuator_route_path
FN:1082,_RNvNtCslNlzF6u6e2e_10autumn_web8actuator23actuator_endpoint_paths
FN:1050,_RNvNtCslNlzF6u6e2e_10autumn_web8actuator25normalize_actuator_prefix
FN:255,_RNvXs1_NtCslNlzF6u6e2e_10autumn_web8actuatorNtB5_12TaskRegistryNtNtCs4kUJL3MZFFz_4core7default7Default7default
FN:261,_RNvXs2_NtCslNlzF6u6e2e_10autumn_web8actuatorNtB5_12TaskRegistryNtNtCs4kUJL3MZFFz_4core3fmt5Debug3fmt
FN:140,_RNvXs_NtCslNlzF6u6e2e_10autumn_web8actuatorNtB4_9LogLevelsNtNtCs4kUJL3MZFFz_4core3fmt5Debug3fmt
FN:1112,_RINvNtCslNlzF6u6e2e_10autumn_web8actuator15actuator_routerpEB4_
FN:2014,_RINvNtCslNlzF6u6e2e_10autumn_web8actuator10ui_metricsNtNtB4_5state8AppStateEB4_
FN:935,_RINvNtCslNlzF6u6e2e_10autumn_web8actuator11loggers_getNtNtB4_5state8AppStateEB4_
FN:952,_RINvNtCslNlzF6u6e2e_10autumn_web8actuator11loggers_putNtNtB4_5state8AppStateEB4_
FN:783,_RINvNtCslNlzF6u6e2e_10autumn_web8actuator12env_endpointNtNtB4_5state8AppStateEB4_
FN:989,_RINvNtCslNlzF6u6e2e_10autumn_web8actuator14tasks_endpointNtNtB4_5state8AppStateEB4_
FN:802,_RINvNtCslNlzF6u6e2e_10autumn_web8actuator16metrics_endpointNtNtB4_5state8AppStateEB4_
FN:832,_RINvNtCslNlzF6u6e2e_10autumn_web8actuator19prometheus_endpointNtNtB4_5state8AppStateEB4_
FN:910,_RINvNtCslNlzF6u6e2e_10autumn_web8actuator20configprops_endpointNtNtB4_5state8AppStateEB4_
FN:1121,_RINvNtCslNlzF6u6e2e_10autumn_web8actuator27actuator_router_with_prefixNtNtB4_5state8AppStateEB4_
FN:739,_RINvNtCslNlzF6u6e2e_10autumn_web8actuator4infoNtNtB4_5state8AppStateEB4_
FN:659,_RINvNtCslNlzF6u6e2e_10autumn_web8actuator6healthNtNtB4_5state8AppStateEB4_
FN:2056,_RINvNtCslNlzF6u6e2e_10autumn_web8actuator8ui_tasksNtNtB4_5state8AppStateEB4_
FN:2014,_RNCINvNtCslNlzF6u6e2e_10autumn_web8actuator10ui_metricsNtNtB6_5state8AppStateE0B6_
FN:937,_RNCINvNtCslNlzF6u6e2e_10autumn_web8actuator11loggers_getNtNtB6_5state8AppStateE0B6_
FN:956,_RNCINvNtCslNlzF6u6e2e_10autumn_web8actuator11loggers_putNtNtB6_5state8AppStateE0B6_
FN:785,_RNCINvNtCslNlzF6u6e2e_10autumn_web8actuator12env_endpointNtNtB6_5state8AppStateE0B6_
FN:991,_RNCINvNtCslNlzF6u6e2e_10autumn_web8actuator14tasks_endpointNtNtB6_5state8AppStateE0B6_
FN:804,_RNCINvNtCslNlzF6u6e2e_10autumn_web8actuator16metrics_endpointNtNtB6_5state8AppStateE0B6_
FN:834,_RNCINvNtCslNlzF6u6e2e_10autumn_web8actuator19prometheus_endpointNtNtB6_5state8AppStateE0B6_
FN:912,_RNCINvNtCslNlzF6u6e2e_10autumn_web8actuator20configprops_endpointNtNtB6_5state8AppStateE0B6_
FN:741,_RNCINvNtCslNlzF6u6e2e_10autumn_web8actuator4infoNtNtB6_5state8AppStateE0B6_
FN:661,_RNCINvNtCslNlzF6u6e2e_10autumn_web8actuator6healthNtNtB6_5state8AppStateE0B6_
FN:2056,_RNCINvNtCslNlzF6u6e2e_10autumn_web8actuator8ui_tasksNtNtB6_5state8AppStateE0B6_
FN:790,_RNCNCINvNtCslNlzF6u6e2e_10autumn_web8actuator12env_endpointNtNtB8_5state8AppStateE00B8_
FN:744,_RNCNCINvNtCslNlzF6u6e2e_10autumn_web8actuator4infoNtNtB8_5state8AppStateE00B8_
FN:745,_RNCNCINvNtCslNlzF6u6e2e_10autumn_web8actuator4infoNtNtB8_5state8AppStateE0s_0B8_
FN:693,_RNCNCINvNtCslNlzF6u6e2e_10autumn_web8actuator6healthNtNtB8_5state8AppStateE00B8_
FN:101,_RNCNvMNtCslNlzF6u6e2e_10autumn_web8actuatorNtB4_9LogLevels13current_level0B6_
FN:101,_RNCNvMNtCslNlzF6u6e2e_10autumn_web8actuatorNtB4_9LogLevels13current_levels_0B6_
FN:109,_RNCNvMNtCslNlzF6u6e2e_10autumn_web8actuatorNtB4_9LogLevels16logger_overrides0B6_
FN:249,_RNCNvMs0_NtCslNlzF6u6e2e_10autumn_web8actuatorNtB7_12TaskRegistry8snapshot0B9_
FN:626,_RNCNvMs3_NtCslNlzF6u6e2e_10autumn_web8actuatorNtB7_16ConfigProperties8snapshot0B9_
FN:1959,_RNCNvNtCslNlzF6u6e2e_10autumn_web8actuator12ui_dashboard0B5_
FN:779,_RNCNvNtCslNlzF6u6e2e_10autumn_web8actuator13should_redact0B5_
FN:1218,_RNCNvNtNtCs39mWnhFxKmJ_10autumn_web8actuator5tests22test_state_with_config0B7_
FN:1234,_RNCNvNtNtCs39mWnhFxKmJ_10autumn_web8actuator5testss_26actuator_health_returns_ok0B7_
FN:1292,_RNCNvNtNtCs39mWnhFxKmJ_10autumn_web8actuator5testss_30actuator_info_returns_metadata0B7_
FN:1551,_RNCNvNtNtCs39mWnhFxKmJ_10autumn_web8actuator5testss_34actuator_loggers_put_changes_level0B7_
FN:1529,_RNCNvNtNtCs39mWnhFxKmJ_10autumn_web8actuator5testss_35actuator_loggers_get_returns_levels0B7_
FN:1382,_RNCNvNtNtCs39mWnhFxKmJ_10autumn_web8actuator5testss_35actuator_metrics_returns_http_stats0B7_
FN:1640,_RNCNvNtNtCs39mWnhFxKmJ_10autumn_web8actuator5testss_35actuator_prometheus_returns_metrics0B7_
FN:1257,_RNCNvNtNtCs39mWnhFxKmJ_10autumn_web8actuator5testss_37actuator_routes_respect_custom_prefix0B7_
FN:1462,_RNCNvNtNtCs39mWnhFxKmJ_10autumn_web8actuator5testss_39actuator_configprops_returns_properties0B7_
FN:1701,_RNCNvNtNtCs39mWnhFxKmJ_10autumn_web8actuator5testss_39actuator_tasks_returns_registered_tasks0B7_
FN:1314,_RNCNvNtNtCs39mWnhFxKmJ_10autumn_web8actuator5testss_40actuator_env_available_in_sensitive_mode0B7_
FN:1356,_RNCNvNtNtCs39mWnhFxKmJ_10autumn_web8actuator5testss_40actuator_env_hidden_in_nonsensitive_mode0B7_
FN:1582,_RNCNvNtNtCs39mWnhFxKmJ_10autumn_web8actuator5testss_42actuator_loggers_put_rejects_invalid_level0B7_
FN:1733,_RNCNvNtNtCs39mWnhFxKmJ_10autumn_web8actuator5testss_42actuator_tasks_hidden_in_nonsensitive_mode0B7_
FN:1605,_RNCNvNtNtCs39mWnhFxKmJ_10autumn_web8actuator5testss_44actuator_loggers_hidden_in_nonsensitive_mode0B7_
FN:1409,_RNCNvNtNtCs39mWnhFxKmJ_10autumn_web8actuator5testss_47actuator_metrics_available_in_nonsensitive_mode0B7_
FN:1684,_RNCNvNtNtCs39mWnhFxKmJ_10autumn_web8actuator5testss_47actuator_prometheus_hidden_in_nonsensitive_mode0B7_
FN:1913,_RNCNvNtNtCs39mWnhFxKmJ_10autumn_web8actuator5testss_47actuator_ui_tasks_returns_html_or_unimplemented0B7_
FN:1484,_RNCNvNtNtCs39mWnhFxKmJ_10autumn_web8actuator5testss_48actuator_configprops_hidden_in_nonsensitive_mode0B7_
FN:1888,_RNCNvNtNtCs39mWnhFxKmJ_10autumn_web8actuator5testss_49actuator_ui_metrics_returns_html_or_unimplemented0B7_
FN:1425,_RNCNvNtNtCs39mWnhFxKmJ_10autumn_web8actuator5testss_51actuator_metrics_returns_db_stats_when_pool_present0B7_
FN:1863,_RNCNvNtNtCs39mWnhFxKmJ_10autumn_web8actuator5testss_51actuator_ui_dashboard_returns_html_or_unimplemented0B7_
FN:255,_RNvXs1_NtCs39mWnhFxKmJ_10autumn_web8actuatorNtB5_12TaskRegistryNtNtCs4kUJL3MZFFz_4core7default7Default7default
FN:261,_RNvXs2_NtCs39mWnhFxKmJ_10autumn_web8actuatorNtB5_12TaskRegistryNtNtCs4kUJL3MZFFz_4core3fmt5Debug3fmt
FN:140,_RNvXs_NtCs39mWnhFxKmJ_10autumn_web8actuatorNtB4_9LogLevelsNtNtCs4kUJL3MZFFz_4core3fmt5Debug3fmt
FN:98,_RNvMNtCs39mWnhFxKmJ_10autumn_web8actuatorNtB2_9LogLevels13current_level
FN:106,_RNvMNtCs39mWnhFxKmJ_10autumn_web8actuatorNtB2_9LogLevels16logger_overrides
FN:115,_RNvMNtCs39mWnhFxKmJ_10autumn_web8actuatorNtB2_9LogLevels16set_logger_level
FN:87,_RNvMNtCs39mWnhFxKmJ_10autumn_web8actuatorNtB2_9LogLevels3new
FN:207,_RNvMs0_NtCs39mWnhFxKmJ_10autumn_web8actuatorNtB5_12TaskRegistry12record_start
FN:230,_RNvMs0_NtCs39mWnhFxKmJ_10autumn_web8actuatorNtB5_12TaskRegistry14record_failure
FN:216,_RNvMs0_NtCs39mWnhFxKmJ_10autumn_web8actuatorNtB5_12TaskRegistry14record_success
FN:181,_RNvMs0_NtCs39mWnhFxKmJ_10autumn_web8actuatorNtB5_12TaskRegistry3new
FN:188,_RNvMs0_NtCs39mWnhFxKmJ_10autumn_web8actuatorNtB5_12TaskRegistry8register
FN:246,_RNvMs0_NtCs39mWnhFxKmJ_10autumn_web8actuatorNtB5_12TaskRegistry8snapshot
FN:287,_RNvMs3_NtCs39mWnhFxKmJ_10autumn_web8actuatorNtB5_16ConfigProperties11from_config
FN:337,_RNvMs3_NtCs39mWnhFxKmJ_10autumn_web8actuatorNtB5_16ConfigProperties14track_db_props
FN:587,_RNvMs3_NtCs39mWnhFxKmJ_10autumn_web8actuatorNtB5_16ConfigProperties14track_property
FN:354,_RNvMs3_NtCs39mWnhFxKmJ_10autumn_web8actuatorNtB5_16ConfigProperties15track_log_props
FN:444,_RNvMs3_NtCs39mWnhFxKmJ_10autumn_web8actuatorNtB5_16ConfigProperties18track_health_props
FN:308,_RNvMs3_NtCs39mWnhFxKmJ_10autumn_web8actuatorNtB5_16ConfigProperties18track_server_props
FN:509,_RNvMs3_NtCs39mWnhFxKmJ_10autumn_web8actuatorNtB5_16ConfigProperties19track_session_props
FN:487,_RNvMs3_NtCs39mWnhFxKmJ_10autumn_web8actuatorNtB5_16ConfigProperties20track_actuator_props
FN:376,_RNvMs3_NtCs39mWnhFxKmJ_10autumn_web8actuatorNtB5_16ConfigProperties21track_telemetry_props
FN:623,_RNvMs3_NtCs39mWnhFxKmJ_10autumn_web8actuatorNtB5_16ConfigProperties8snapshot
FN:1959,_RNvNtCs39mWnhFxKmJ_10autumn_web8actuator12ui_dashboard
FN:777,_RNvNtCs39mWnhFxKmJ_10autumn_web8actuator13should_redact
FN:1064,_RNvNtCs39mWnhFxKmJ_10autumn_web8actuator19actuator_route_glob
FN:1073,_RNvNtCs39mWnhFxKmJ_10autumn_web8actuator19actuator_route_path
FN:1082,_RNvNtCs39mWnhFxKmJ_10autumn_web8actuator23actuator_endpoint_paths
FN:1050,_RNvNtCs39mWnhFxKmJ_10autumn_web8actuator25normalize_actuator_prefix
FN:2014,_RINvNtCs39mWnhFxKmJ_10autumn_web8actuator10ui_metricsNtNtB4_5state8AppStateEB4_
FN:935,_RINvNtCs39mWnhFxKmJ_10autumn_web8actuator11loggers_getNtNtB4_5state8AppStateEB4_
FN:952,_RINvNtCs39mWnhFxKmJ_10autumn_web8actuator11loggers_putNtNtB4_5state8AppStateEB4_
FN:783,_RINvNtCs39mWnhFxKmJ_10autumn_web8actuator12env_endpointNtNtB4_5state8AppStateEB4_
FN:989,_RINvNtCs39mWnhFxKmJ_10autumn_web8actuator14tasks_endpointNtNtB4_5state8AppStateEB4_
FN:1112,_RINvNtCs39mWnhFxKmJ_10autumn_web8actuator15actuator_routerNtNtB4_5state8AppStateEB4_
FN:802,_RINvNtCs39mWnhFxKmJ_10autumn_web8actuator16metrics_endpointNtNtB4_5state8AppStateEB4_
FN:832,_RINvNtCs39mWnhFxKmJ_10autumn_web8actuator19prometheus_endpointNtNtB4_5state8AppStateEB4_
FN:910,_RINvNtCs39mWnhFxKmJ_10autumn_web8actuator20configprops_endpointNtNtB4_5state8AppStateEB4_
FN:1121,_RINvNtCs39mWnhFxKmJ_10autumn_web8actuator27actuator_router_with_prefixNtNtB4_5state8AppStateEB4_
FN:739,_RINvNtCs39mWnhFxKmJ_10autumn_web8actuator4infoNtNtB4_5state8AppStateEB4_
FN:659,_RINvNtCs39mWnhFxKmJ_10autumn_web8actuator6healthNtNtB4_5state8AppStateEB4_
FN:2056,_RINvNtCs39mWnhFxKmJ_10autumn_web8actuator8ui_tasksNtNtB4_5state8AppStateEB4_
FN:2014,_RNCINvNtCs39mWnhFxKmJ_10autumn_web8actuator10ui_metricsNtNtB6_5state8AppStateE0B6_
FN:937,_RNCINvNtCs39mWnhFxKmJ_10autumn_web8actuator11loggers_getNtNtB6_5state8AppStateE0B6_
FN:956,_RNCINvNtCs39mWnhFxKmJ_10autumn_web8actuator11loggers_putNtNtB6_5state8AppStateE0B6_
FN:785,_RNCINvNtCs39mWnhFxKmJ_10autumn_web8actuator12env_endpointNtNtB6_5state8AppStateE0B6_
FN:991,_RNCINvNtCs39mWnhFxKmJ_10autumn_web8actuator14tasks_endpointNtNtB6_5state8AppStateE0B6_
FN:804,_RNCINvNtCs39mWnhFxKmJ_10autumn_web8actuator16metrics_endpointNtNtB6_5state8AppStateE0B6_
FN:834,_RNCINvNtCs39mWnhFxKmJ_10autumn_web8actuator19prometheus_endpointNtNtB6_5state8AppStateE0B6_
FN:912,_RNCINvNtCs39mWnhFxKmJ_10autumn_web8actuator20configprops_endpointNtNtB6_5state8AppStateE0B6_
FN:741,_RNCINvNtCs39mWnhFxKmJ_10autumn_web8actuator4infoNtNtB6_5state8AppStateE0B6_
FN:661,_RNCINvNtCs39mWnhFxKmJ_10autumn_web8actuator6healthNtNtB6_5state8AppStateE0B6_
FN:2056,_RNCINvNtCs39mWnhFxKmJ_10autumn_web8actuator8ui_tasksNtNtB6_5state8AppStateE0B6_
FN:790,_RNCNCINvNtCs39mWnhFxKmJ_10autumn_web8actuator12env_endpointNtNtB8_5state8AppStateE00B8_
FN:744,_RNCNCINvNtCs39mWnhFxKmJ_10autumn_web8actuator4infoNtNtB8_5state8AppStateE00B8_
FN:745,_RNCNCINvNtCs39mWnhFxKmJ_10autumn_web8actuator4infoNtNtB8_5state8AppStateE0s_0B8_
FN:693,_RNCNCINvNtCs39mWnhFxKmJ_10autumn_web8actuator6healthNtNtB8_5state8AppStateE00B8_
FN:101,_RNCNvMNtCs39mWnhFxKmJ_10autumn_web8actuatorNtB4_9LogLevels13current_level0B6_
FN:101,_RNCNvMNtCs39mWnhFxKmJ_10autumn_web8actuatorNtB4_9LogLevels13current_levels_0B6_
FN:109,_RNCNvMNtCs39mWnhFxKmJ_10autumn_web8actuatorNtB4_9LogLevels16logger_overrides0B6_
FN:249,_RNCNvMs0_NtCs39mWnhFxKmJ_10autumn_web8actuatorNtB7_12TaskRegistry8snapshot0B9_
FN:626,_RNCNvMs3_NtCs39mWnhFxKmJ_10autumn_web8actuatorNtB7_16ConfigProperties8snapshot0B9_
FN:1959,_RNCNvNtCs39mWnhFxKmJ_10autumn_web8actuator12ui_dashboard0B5_
FN:779,_RNCNvNtCs39mWnhFxKmJ_10autumn_web8actuator13should_redact0B5_
FN:1207,_RNvNtNtCs39mWnhFxKmJ_10autumn_web8actuator5tests10test_state
FN:1211,_RNvNtNtCs39mWnhFxKmJ_10autumn_web8actuator5tests22test_state_with_config
FN:1371,_RNvNtNtCs39mWnhFxKmJ_10autumn_web8actuator5testss_18redaction_patterns
FN:1620,_RNvNtNtCs39mWnhFxKmJ_10autumn_web8actuator5testss_22log_levels_set_and_get
FN:1234,_RNvNtNtCs39mWnhFxKmJ_10autumn_web8actuator5testss_26actuator_health_returns_ok
FN:1764,_RNvNtNtCs39mWnhFxKmJ_10autumn_web8actuator5testss_28task_registry_empty_snapshot
FN:1748,_RNvNtNtCs39mWnhFxKmJ_10autumn_web8actuator5testss_29task_registry_records_failure
FN:1292,_RNvNtNtCs39mWnhFxKmJ_10autumn_web8actuator5testss_30actuator_info_returns_metadata
FN:1630,_RNvNtNtCs39mWnhFxKmJ_10autumn_web8actuator5testss_31log_levels_root_updates_current
FN:1833,_RNvNtNtCs39mWnhFxKmJ_10autumn_web8actuator5testss_33configprops_tracks_custom_profile
FN:1512,_RNvNtNtCs39mWnhFxKmJ_10autumn_web8actuator5testss_33configprops_tracks_default_source
FN:1520,_RNvNtNtCs39mWnhFxKmJ_10autumn_web8actuator5testss_33configprops_tracks_profile_source
FN:1551,_RNvNtNtCs39mWnhFxKmJ_10autumn_web8actuator5testss_34actuator_loggers_put_changes_level
FN:1529,_RNvNtNtCs39mWnhFxKmJ_10autumn_web8actuator5testss_35actuator_loggers_get_returns_levels
FN:1382,_RNvNtNtCs39mWnhFxKmJ_10autumn_web8actuator5testss_35actuator_metrics_returns_http_stats
FN:1640,_RNvNtNtCs39mWnhFxKmJ_10autumn_web8actuator5testss_35actuator_prometheus_returns_metrics
FN:1499,_RNvNtNtCs39mWnhFxKmJ_10autumn_web8actuator5testss_36configprops_redacts_sensitive_values
FN:1846,_RNvNtNtCs39mWnhFxKmJ_10autumn_web8actuator5testss_36configprops_tracks_dev_prod_profiles
FN:1257,_RNvNtNtCs39mWnhFxKmJ_10autumn_web8actuator5testss_37actuator_routes_respect_custom_prefix
FN:1769,_RNvNtNtCs39mWnhFxKmJ_10autumn_web8actuator5testss_38log_levels_rejects_new_key_at_capacity
FN:1462,_RNvNtNtCs39mWnhFxKmJ_10autumn_web8actuator5testss_39actuator_configprops_returns_properties
FN:1701,_RNvNtNtCs39mWnhFxKmJ_10autumn_web8actuator5testss_39actuator_tasks_returns_registered_tasks
FN:1314,_RNvNtNtCs39mWnhFxKmJ_10autumn_web8actuator5testss_40actuator_env_available_in_sensitive_mode
FN:1356,_RNvNtNtCs39mWnhFxKmJ_10autumn_web8actuator5testss_40actuator_env_hidden_in_nonsensitive_mode
FN:1285,_RNvNtNtCs39mWnhFxKmJ_10autumn_web8actuator5testss_41actuator_route_helpers_normalize_prefixes
FN:1582,_RNvNtNtCs39mWnhFxKmJ_10autumn_web8actuator5testss_42actuator_loggers_put_rejects_invalid_level
FN:1733,_RNvNtNtCs39mWnhFxKmJ_10autumn_web8actuator5testss_42actuator_tasks_hidden_in_nonsensitive_mode
FN:1784,_RNvNtNtCs39mWnhFxKmJ_10autumn_web8actuator5testss_43log_levels_accepts_existing_key_at_capacity
FN:1605,_RNvNtNtCs39mWnhFxKmJ_10autumn_web8actuator5testss_44actuator_loggers_hidden_in_nonsensitive_mode
FN:1856,_RNvNtNtCs39mWnhFxKmJ_10autumn_web8actuator5testss_45configprops_returns_default_when_values_match
FN:1409,_RNvNtNtCs39mWnhFxKmJ_10autumn_web8actuator5testss_47actuator_metrics_available_in_nonsensitive_mode
FN:1684,_RNvNtNtCs39mWnhFxKmJ_10autumn_web8actuator5testss_47actuator_prometheus_hidden_in_nonsensitive_mode
FN:1913,_RNvNtNtCs39mWnhFxKmJ_10autumn_web8actuator5testss_47actuator_ui_tasks_returns_html_or_unimplemented
FN:1484,_RNvNtNtCs39mWnhFxKmJ_10autumn_web8actuator5testss_48actuator_configprops_hidden_in_nonsensitive_mode
FN:1888,_RNvNtNtCs39mWnhFxKmJ_10autumn_web8actuator5testss_49actuator_ui_metrics_returns_html_or_unimplemented
FN:1425,_RNvNtNtCs39mWnhFxKmJ_10autumn_web8actuator5testss_51actuator_metrics_returns_db_stats_when_pool_present
FN:1863,_RNvNtNtCs39mWnhFxKmJ_10autumn_web8actuator5testss_51actuator_ui_dashboard_returns_html_or_unimplemented
FN:1805,_RNvNtNtCs39mWnhFxKmJ_10autumn_web8actuator5testss_53task_registry_records_multiple_successes_and_failures
FNDA:0,_RNvMNtCslNlzF6u6e2e_10autumn_web8actuatorNtB2_9LogLevels13current_level
FNDA:0,_RNvMNtCslNlzF6u6e2e_10autumn_web8actuatorNtB2_9LogLevels16logger_overrides
FNDA:0,_RNvMNtCslNlzF6u6e2e_10autumn_web8actuatorNtB2_9LogLevels16set_logger_level
FNDA:41,_RNvMNtCslNlzF6u6e2e_10autumn_web8actuatorNtB2_9LogLevels3new
FNDA:0,_RNvMs0_NtCslNlzF6u6e2e_10autumn_web8actuatorNtB5_12TaskRegistry12record_start
FNDA:0,_RNvMs0_NtCslNlzF6u6e2e_10autumn_web8actuatorNtB5_12TaskRegistry14record_failure
FNDA:0,_RNvMs0_NtCslNlzF6u6e2e_10autumn_web8actuatorNtB5_12TaskRegistry14record_success
FNDA:41,_RNvMs0_NtCslNlzF6u6e2e_10autumn_web8actuatorNtB5_12TaskRegistry3new
FNDA:0,_RNvMs0_NtCslNlzF6u6e2e_10autumn_web8actuatorNtB5_12TaskRegistry8register
FNDA:0,_RNvMs0_NtCslNlzF6u6e2e_10autumn_web8actuatorNtB5_12TaskRegistry8snapshot
FNDA:0,_RNvMs3_NtCslNlzF6u6e2e_10autumn_web8actuatorNtB5_16ConfigProperties11from_config
FNDA:0,_RNvMs3_NtCslNlzF6u6e2e_10autumn_web8actuatorNtB5_16ConfigProperties14track_db_props
FNDA:0,_RNvMs3_NtCslNlzF6u6e2e_10autumn_web8actuatorNtB5_16ConfigProperties14track_property
FNDA:0,_RNvMs3_NtCslNlzF6u6e2e_10autumn_web8actuatorNtB5_16ConfigProperties15track_log_props
FNDA:0,_RNvMs3_NtCslNlzF6u6e2e_10autumn_web8actuatorNtB5_16ConfigProperties18track_health_props
FNDA:0,_RNvMs3_NtCslNlzF6u6e2e_10autumn_web8actuatorNtB5_16ConfigProperties18track_server_props
FNDA:0,_RNvMs3_NtCslNlzF6u6e2e_10autumn_web8actuatorNtB5_16ConfigProperties19track_session_props
FNDA:0,_RNvMs3_NtCslNlzF6u6e2e_10autumn_web8actuatorNtB5_16ConfigProperties20track_actuator_props
FNDA:0,_RNvMs3_NtCslNlzF6u6e2e_10autumn_web8actuatorNtB5_16ConfigProperties21track_telemetry_props
FNDA:0,_RNvMs3_NtCslNlzF6u6e2e_10autumn_web8actuatorNtB5_16ConfigProperties8snapshot
FNDA:0,_RNvNtCslNlzF6u6e2e_10autumn_web8actuator12ui_dashboard
FNDA:0,_RNvNtCslNlzF6u6e2e_10autumn_web8actuator13should_redact
FNDA:0,_RNvNtCslNlzF6u6e2e_10autumn_web8actuator19actuator_route_glob
FNDA:330,_RNvNtCslNlzF6u6e2e_10autumn_web8actuator19actuator_route_path
FNDA:33,_RNvNtCslNlzF6u6e2e_10autumn_web8actuator23actuator_endpoint_paths
FNDA:330,_RNvNtCslNlzF6u6e2e_10autumn_web8actuator25normalize_actuator_prefix
FNDA:0,_RNvXs1_NtCslNlzF6u6e2e_10autumn_web8actuatorNtB5_12TaskRegistryNtNtCs4kUJL3MZFFz_4core7default7Default7default
FNDA:0,_RNvXs2_NtCslNlzF6u6e2e_10autumn_web8actuatorNtB5_12TaskRegistryNtNtCs4kUJL3MZFFz_4core3fmt5Debug3fmt
FNDA:0,_RNvXs_NtCslNlzF6u6e2e_10autumn_web8actuatorNtB4_9LogLevelsNtNtCs4kUJL3MZFFz_4core3fmt5Debug3fmt
FNDA:0,_RINvNtCslNlzF6u6e2e_10autumn_web8actuator15actuator_routerpEB4_
FNDA:0,_RINvNtCslNlzF6u6e2e_10autumn_web8actuator10ui_metricsNtNtB4_5state8AppStateEB4_
FNDA:0,_RINvNtCslNlzF6u6e2e_10autumn_web8actuator11loggers_getNtNtB4_5state8AppStateEB4_
FNDA:0,_RINvNtCslNlzF6u6e2e_10autumn_web8actuator11loggers_putNtNtB4_5state8AppStateEB4_
FNDA:0,_RINvNtCslNlzF6u6e2e_10autumn_web8actuator12env_endpointNtNtB4_5state8AppStateEB4_
FNDA:0,_RINvNtCslNlzF6u6e2e_10autumn_web8actuator14tasks_endpointNtNtB4_5state8AppStateEB4_
FNDA:0,_RINvNtCslNlzF6u6e2e_10autumn_web8actuator16metrics_endpointNtNtB4_5state8AppStateEB4_
FNDA:0,_RINvNtCslNlzF6u6e2e_10autumn_web8actuator19prometheus_endpointNtNtB4_5state8AppStateEB4_
FNDA:0,_RINvNtCslNlzF6u6e2e_10autumn_web8actuator20configprops_endpointNtNtB4_5state8AppStateEB4_
FNDA:33,_RINvNtCslNlzF6u6e2e_10autumn_web8actuator27actuator_router_with_prefixNtNtB4_5state8AppStateEB4_
FNDA:0,_RINvNtCslNlzF6u6e2e_10autumn_web8actuator4infoNtNtB4_5state8AppStateEB4_
FNDA:1,_RINvNtCslNlzF6u6e2e_10autumn_web8actuator6healthNtNtB4_5state8AppStateEB4_
FNDA:0,_RINvNtCslNlzF6u6e2e_10autumn_web8actuator8ui_tasksNtNtB4_5state8AppStateEB4_
FNDA:0,_RNCINvNtCslNlzF6u6e2e_10autumn_web8actuator10ui_metricsNtNtB6_5state8AppStateE0B6_
FNDA:0,_RNCINvNtCslNlzF6u6e2e_10autumn_web8actuator11loggers_getNtNtB6_5state8AppStateE0B6_
FNDA:0,_RNCINvNtCslNlzF6u6e2e_10autumn_web8actuator11loggers_putNtNtB6_5state8AppStateE0B6_
FNDA:0,_RNCINvNtCslNlzF6u6e2e_10autumn_web8actuator12env_endpointNtNtB6_5state8AppStateE0B6_
FNDA:0,_RNCINvNtCslNlzF6u6e2e_10autumn_web8actuator14tasks_endpointNtNtB6_5state8AppStateE0B6_
FNDA:0,_RNCINvNtCslNlzF6u6e2e_10autumn_web8actuator16metrics_endpointNtNtB6_5state8AppStateE0B6_
FNDA:0,_RNCINvNtCslNlzF6u6e2e_10autumn_web8actuator19prometheus_endpointNtNtB6_5state8AppStateE0B6_
FNDA:0,_RNCINvNtCslNlzF6u6e2e_10autumn_web8actuator20configprops_endpointNtNtB6_5state8AppStateE0B6_
FNDA:0,_RNCINvNtCslNlzF6u6e2e_10autumn_web8actuator4infoNtNtB6_5state8AppStateE0B6_
FNDA:1,_RNCINvNtCslNlzF6u6e2e_10autumn_web8actuator6healthNtNtB6_5state8AppStateE0B6_
FNDA:0,_RNCINvNtCslNlzF6u6e2e_10autumn_web8actuator8ui_tasksNtNtB6_5state8AppStateE0B6_
FNDA:0,_RNCNCINvNtCslNlzF6u6e2e_10autumn_web8actuator12env_endpointNtNtB8_5state8AppStateE00B8_
FNDA:0,_RNCNCINvNtCslNlzF6u6e2e_10autumn_web8actuator4infoNtNtB8_5state8AppStateE00B8_
FNDA:0,_RNCNCINvNtCslNlzF6u6e2e_10autumn_web8actuator4infoNtNtB8_5state8AppStateE0s_0B8_
FNDA:0,_RNCNCINvNtCslNlzF6u6e2e_10autumn_web8actuator6healthNtNtB8_5state8AppStateE00B8_
FNDA:0,_RNCNvMNtCslNlzF6u6e2e_10autumn_web8actuatorNtB4_9LogLevels13current_level0B6_
FNDA:0,_RNCNvMNtCslNlzF6u6e2e_10autumn_web8actuatorNtB4_9LogLevels13current_levels_0B6_
FNDA:0,_RNCNvMNtCslNlzF6u6e2e_10autumn_web8actuatorNtB4_9LogLevels16logger_overrides0B6_
FNDA:0,_RNCNvMs0_NtCslNlzF6u6e2e_10autumn_web8actuatorNtB7_12TaskRegistry8snapshot0B9_
FNDA:0,_RNCNvMs3_NtCslNlzF6u6e2e_10autumn_web8actuatorNtB7_16ConfigProperties8snapshot0B9_
FNDA:0,_RNCNvNtCslNlzF6u6e2e_10autumn_web8actuator12ui_dashboard0B5_
FNDA:0,_RNCNvNtCslNlzF6u6e2e_10autumn_web8actuator13should_redact0B5_
FNDA:20,_RNCNvNtNtCs39mWnhFxKmJ_10autumn_web8actuator5tests22test_state_with_config0B7_
FNDA:1,_RNCNvNtNtCs39mWnhFxKmJ_10autumn_web8actuator5testss_26actuator_health_returns_ok0B7_
FNDA:1,_RNCNvNtNtCs39mWnhFxKmJ_10autumn_web8actuator5testss_30actuator_info_returns_metadata0B7_
FNDA:1,_RNCNvNtNtCs39mWnhFxKmJ_10autumn_web8actuator5testss_34actuator_loggers_put_changes_level0B7_
FNDA:1,_RNCNvNtNtCs39mWnhFxKmJ_10autumn_web8actuator5testss_35actuator_loggers_get_returns_levels0B7_
FNDA:1,_RNCNvNtNtCs39mWnhFxKmJ_10autumn_web8actuator5testss_35actuator_metrics_returns_http_stats0B7_
FNDA:1,_RNCNvNtNtCs39mWnhFxKmJ_10autumn_web8actuator5testss_35actuator_prometheus_returns_metrics0B7_
FNDA:1,_RNCNvNtNtCs39mWnhFxKmJ_10autumn_web8actuator5testss_37actuator_routes_respect_custom_prefix0B7_
FNDA:1,_RNCNvNtNtCs39mWnhFxKmJ_10autumn_web8actuator5testss_39actuator_configprops_returns_properties0B7_
FNDA:1,_RNCNvNtNtCs39mWnhFxKmJ_10autumn_web8actuator5testss_39actuator_tasks_returns_registered_tasks0B7_
FNDA:1,_RNCNvNtNtCs39mWnhFxKmJ_10autumn_web8actuator5testss_40actuator_env_available_in_sensitive_mode0B7_
FNDA:1,_RNCNvNtNtCs39mWnhFxKmJ_10autumn_web8actuator5testss_40actuator_env_hidden_in_nonsensitive_mode0B7_
FNDA:1,_RNCNvNtNtCs39mWnhFxKmJ_10autumn_web8actuator5testss_42actuator_loggers_put_rejects_invalid_level0B7_
FNDA:1,_RNCNvNtNtCs39mWnhFxKmJ_10autumn_web8actuator5testss_42actuator_tasks_hidden_in_nonsensitive_mode0B7_
FNDA:1,_RNCNvNtNtCs39mWnhFxKmJ_10autumn_web8actuator5testss_44actuator_loggers_hidden_in_nonsensitive_mode0B7_
FNDA:1,_RNCNvNtNtCs39mWnhFxKmJ_10autumn_web8actuator5testss_47actuator_metrics_available_in_nonsensitive_mode0B7_
FNDA:1,_RNCNvNtNtCs39mWnhFxKmJ_10autumn_web8actuator5testss_47actuator_prometheus_hidden_in_nonsensitive_mode0B7_
FNDA:1,_RNCNvNtNtCs39mWnhFxKmJ_10autumn_web8actuator5testss_47actuator_ui_tasks_returns_html_or_unimplemented0B7_
FNDA:1,_RNCNvNtNtCs39mWnhFxKmJ_10autumn_web8actuator5testss_48actuator_configprops_hidden_in_nonsensitive_mode0B7_
FNDA:1,_RNCNvNtNtCs39mWnhFxKmJ_10autumn_web8actuator5testss_49actuator_ui_metrics_returns_html_or_unimplemented0B7_
FNDA:1,_RNCNvNtNtCs39mWnhFxKmJ_10autumn_web8actuator5testss_51actuator_metrics_returns_db_stats_when_pool_present0B7_
FNDA:1,_RNCNvNtNtCs39mWnhFxKmJ_10autumn_web8actuator5testss_51actuator_ui_dashboard_returns_html_or_unimplemented0B7_
FNDA:0,_RNvXs1_NtCs39mWnhFxKmJ_10autumn_web8actuatorNtB5_12TaskRegistryNtNtCs4kUJL3MZFFz_4core7default7Default7default
FNDA:0,_RNvXs2_NtCs39mWnhFxKmJ_10autumn_web8actuatorNtB5_12TaskRegistryNtNtCs4kUJL3MZFFz_4core3fmt5Debug3fmt
FNDA:0,_RNvXs_NtCs39mWnhFxKmJ_10autumn_web8actuatorNtB4_9LogLevelsNtNtCs4kUJL3MZFFz_4core3fmt5Debug3fmt
FNDA:3,_RNvMNtCs39mWnhFxKmJ_10autumn_web8actuatorNtB2_9LogLevels13current_level
FNDA:8,_RNvMNtCs39mWnhFxKmJ_10autumn_web8actuatorNtB2_9LogLevels16logger_overrides
FNDA:7005,_RNvMNtCs39mWnhFxKmJ_10autumn_web8actuatorNtB2_9LogLevels16set_logger_level
FNDA:98,_RNvMNtCs39mWnhFxKmJ_10autumn_web8actuatorNtB2_9LogLevels3new
FNDA:5,_RNvMs0_NtCs39mWnhFxKmJ_10autumn_web8actuatorNtB5_12TaskRegistry12record_start
FNDA:2,_RNvMs0_NtCs39mWnhFxKmJ_10autumn_web8actuatorNtB5_12TaskRegistry14record_failure
FNDA:3,_RNvMs0_NtCs39mWnhFxKmJ_10autumn_web8actuatorNtB5_12TaskRegistry14record_success
FNDA:96,_RNvMs0_NtCs39mWnhFxKmJ_10autumn_web8actuatorNtB5_12TaskRegistry3new
FNDA:3,_RNvMs0_NtCs39mWnhFxKmJ_10autumn_web8actuatorNtB5_12TaskRegistry8register
FNDA:6,_RNvMs0_NtCs39mWnhFxKmJ_10autumn_web8actuatorNtB5_12TaskRegistry8snapshot
FNDA:21,_RNvMs3_NtCs39mWnhFxKmJ_10autumn_web8actuatorNtB5_16ConfigProperties11from_config
FNDA:21,_RNvMs3_NtCs39mWnhFxKmJ_10autumn_web8actuatorNtB5_16ConfigProperties14track_db_props
FNDA:679,_RNvMs3_NtCs39mWnhFxKmJ_10autumn_web8actuatorNtB5_16ConfigProperties14track_property
FNDA:21,_RNvMs3_NtCs39mWnhFxKmJ_10autumn_web8actuatorNtB5_16ConfigProperties15track_log_props
FNDA:21,_RNvMs3_NtCs39mWnhFxKmJ_10autumn_web8actuatorNtB5_16ConfigProperties18track_health_props
FNDA:21,_RNvMs3_NtCs39mWnhFxKmJ_10autumn_web8actuatorNtB5_16ConfigProperties18track_server_props
FNDA:21,_RNvMs3_NtCs39mWnhFxKmJ_10autumn_web8actuatorNtB5_16ConfigProperties19track_session_props
FNDA:21,_RNvMs3_NtCs39mWnhFxKmJ_10autumn_web8actuatorNtB5_16ConfigProperties20track_actuator_props
FNDA:21,_RNvMs3_NtCs39mWnhFxKmJ_10autumn_web8actuatorNtB5_16ConfigProperties21track_telemetry_props
FNDA:2,_RNvMs3_NtCs39mWnhFxKmJ_10autumn_web8actuatorNtB5_16ConfigProperties8snapshot
FNDA:1,_RNvNtCs39mWnhFxKmJ_10autumn_web8actuator12ui_dashboard
FNDA:684,_RNvNtCs39mWnhFxKmJ_10autumn_web8actuator13should_redact
FNDA:4,_RNvNtCs39mWnhFxKmJ_10autumn_web8actuator19actuator_route_glob
FNDA:656,_RNvNtCs39mWnhFxKmJ_10autumn_web8actuator19actuator_route_path
FNDA:54,_RNvNtCs39mWnhFxKmJ_10autumn_web8actuator23actuator_endpoint_paths
FNDA:660,_RNvNtCs39mWnhFxKmJ_10autumn_web8actuator25normalize_actuator_prefix
FNDA:1,_RINvNtCs39mWnhFxKmJ_10autumn_web8actuator10ui_metricsNtNtB4_5state8AppStateEB4_
FNDA:1,_RINvNtCs39mWnhFxKmJ_10autumn_web8actuator11loggers_getNtNtB4_5state8AppStateEB4_
FNDA:2,_RINvNtCs39mWnhFxKmJ_10autumn_web8actuator11loggers_putNtNtB4_5state8AppStateEB4_
FNDA:1,_RINvNtCs39mWnhFxKmJ_10autumn_web8actuator12env_endpointNtNtB4_5state8AppStateEB4_
FNDA:1,_RINvNtCs39mWnhFxKmJ_10autumn_web8actuator14tasks_endpointNtNtB4_5state8AppStateEB4_
FNDA:20,_RINvNtCs39mWnhFxKmJ_10autumn_web8actuator15actuator_routerNtNtB4_5state8AppStateEB4_
FNDA:3,_RINvNtCs39mWnhFxKmJ_10autumn_web8actuator16metrics_endpointNtNtB4_5state8AppStateEB4_
FNDA:1,_RINvNtCs39mWnhFxKmJ_10autumn_web8actuator19prometheus_endpointNtNtB4_5state8AppStateEB4_
FNDA:1,_RINvNtCs39mWnhFxKmJ_10autumn_web8actuator20configprops_endpointNtNtB4_5state8AppStateEB4_
FNDA:52,_RINvNtCs39mWnhFxKmJ_10autumn_web8actuator27actuator_router_with_prefixNtNtB4_5state8AppStateEB4_
FNDA:1,_RINvNtCs39mWnhFxKmJ_10autumn_web8actuator4infoNtNtB4_5state8AppStateEB4_
FNDA:3,_RINvNtCs39mWnhFxKmJ_10autumn_web8actuator6healthNtNtB4_5state8AppStateEB4_
FNDA:1,_RINvNtCs39mWnhFxKmJ_10autumn_web8actuator8ui_tasksNtNtB4_5state8AppStateEB4_
FNDA:1,_RNCINvNtCs39mWnhFxKmJ_10autumn_web8actuator10ui_metricsNtNtB6_5state8AppStateE0B6_
FNDA:1,_RNCINvNtCs39mWnhFxKmJ_10autumn_web8actuator11loggers_getNtNtB6_5state8AppStateE0B6_
FNDA:2,_RNCINvNtCs39mWnhFxKmJ_10autumn_web8actuator11loggers_putNtNtB6_5state8AppStateE0B6_
FNDA:1,_RNCINvNtCs39mWnhFxKmJ_10autumn_web8actuator12env_endpointNtNtB6_5state8AppStateE0B6_
FNDA:1,_RNCINvNtCs39mWnhFxKmJ_10autumn_web8actuator14tasks_endpointNtNtB6_5state8AppStateE0B6_
FNDA:3,_RNCINvNtCs39mWnhFxKmJ_10autumn_web8actuator16metrics_endpointNtNtB6_5state8AppStateE0B6_
FNDA:1,_RNCINvNtCs39mWnhFxKmJ_10autumn_web8actuator19prometheus_endpointNtNtB6_5state8AppStateE0B6_
FNDA:1,_RNCINvNtCs39mWnhFxKmJ_10autumn_web8actuator20configprops_endpointNtNtB6_5state8AppStateE0B6_
FNDA:1,_RNCINvNtCs39mWnhFxKmJ_10autumn_web8actuator4infoNtNtB6_5state8AppStateE0B6_
FNDA:3,_RNCINvNtCs39mWnhFxKmJ_10autumn_web8actuator6healthNtNtB6_5state8AppStateE0B6_
FNDA:1,_RNCINvNtCs39mWnhFxKmJ_10autumn_web8actuator8ui_tasksNtNtB6_5state8AppStateE0B6_
FNDA:32,_RNCNCINvNtCs39mWnhFxKmJ_10autumn_web8actuator12env_endpointNtNtB8_5state8AppStateE00B8_
FNDA:0,_RNCNCINvNtCs39mWnhFxKmJ_10autumn_web8actuator4infoNtNtB8_5state8AppStateE00B8_
FNDA:0,_RNCNCINvNtCs39mWnhFxKmJ_10autumn_web8actuator4infoNtNtB8_5state8AppStateE0s_0B8_
FNDA:0,_RNCNCINvNtCs39mWnhFxKmJ_10autumn_web8actuator6healthNtNtB8_5state8AppStateE00B8_
FNDA:0,_RNCNvMNtCs39mWnhFxKmJ_10autumn_web8actuatorNtB4_9LogLevels13current_level0B6_
FNDA:3,_RNCNvMNtCs39mWnhFxKmJ_10autumn_web8actuatorNtB4_9LogLevels13current_levels_0B6_
FNDA:8,_RNCNvMNtCs39mWnhFxKmJ_10autumn_web8actuatorNtB4_9LogLevels16logger_overrides0B6_
FNDA:6,_RNCNvMs0_NtCs39mWnhFxKmJ_10autumn_web8actuatorNtB7_12TaskRegistry8snapshot0B9_
FNDA:2,_RNCNvMs3_NtCs39mWnhFxKmJ_10autumn_web8actuatorNtB7_16ConfigProperties8snapshot0B9_
FNDA:1,_RNCNvNtCs39mWnhFxKmJ_10autumn_web8actuator12ui_dashboard0B5_
FNDA:4696,_RNCNvNtCs39mWnhFxKmJ_10autumn_web8actuator13should_redact0B5_
FNDA:20,_RNvNtNtCs39mWnhFxKmJ_10autumn_web8actuator5tests10test_state
FNDA:21,_RNvNtNtCs39mWnhFxKmJ_10autumn_web8actuator5tests22test_state_with_config
FNDA:1,_RNvNtNtCs39mWnhFxKmJ_10autumn_web8actuator5testss_18redaction_patterns
FNDA:1,_RNvNtNtCs39mWnhFxKmJ_10autumn_web8actuator5testss_22log_levels_set_and_get
FNDA:1,_RNvNtNtCs39mWnhFxKmJ_10autumn_web8actuator5testss_26actuator_health_returns_ok
FNDA:1,_RNvNtNtCs39mWnhFxKmJ_10autumn_web8actuator5testss_28task_registry_empty_snapshot
FNDA:1,_RNvNtNtCs39mWnhFxKmJ_10autumn_web8actuator5testss_29task_registry_records_failure
FNDA:1,_RNvNtNtCs39mWnhFxKmJ_10autumn_web8actuator5testss_30actuator_info_returns_metadata
FNDA:1,_RNvNtNtCs39mWnhFxKmJ_10autumn_web8actuator5testss_31log_levels_root_updates_current
FNDA:1,_RNvNtNtCs39mWnhFxKmJ_10autumn_web8actuator5testss_33configprops_tracks_custom_profile
FNDA:1,_RNvNtNtCs39mWnhFxKmJ_10autumn_web8actuator5testss_33configprops_tracks_default_source
FNDA:1,_RNvNtNtCs39mWnhFxKmJ_10autumn_web8actuator5testss_33configprops_tracks_profile_source
FNDA:1,_RNvNtNtCs39mWnhFxKmJ_10autumn_web8actuator5testss_34actuator_loggers_put_changes_level
FNDA:1,_RNvNtNtCs39mWnhFxKmJ_10autumn_web8actuator5testss_35actuator_loggers_get_returns_levels
FNDA:1,_RNvNtNtCs39mWnhFxKmJ_10autumn_web8actuator5testss_35actuator_metrics_returns_http_stats
FNDA:1,_RNvNtNtCs39mWnhFxKmJ_10autumn_web8actuator5testss_35actuator_prometheus_returns_metrics
FNDA:1,_RNvNtNtCs39mWnhFxKmJ_10autumn_web8actuator5testss_36configprops_redacts_sensitive_values
FNDA:1,_RNvNtNtCs39mWnhFxKmJ_10autumn_web8actuator5testss_36configprops_tracks_dev_prod_profiles
FNDA:1,_RNvNtNtCs39mWnhFxKmJ_10autumn_web8actuator5testss_37actuator_routes_respect_custom_prefix
FNDA:1,_RNvNtNtCs39mWnhFxKmJ_10autumn_web8actuator5testss_38log_levels_rejects_new_key_at_capacity
FNDA:1,_RNvNtNtCs39mWnhFxKmJ_10autumn_web8actuator5testss_39actuator_configprops_returns_properties
FNDA:1,_RNvNtNtCs39mWnhFxKmJ_10autumn_web8actuator5testss_39actuator_tasks_returns_registered_tasks
FNDA:1,_RNvNtNtCs39mWnhFxKmJ_10autumn_web8actuator5testss_40actuator_env_available_in_sensitive_mode
FNDA:1,_RNvNtNtCs39mWnhFxKmJ_10autumn_web8actuator5testss_40actuator_env_hidden_in_nonsensitive_mode
FNDA:1,_RNvNtNtCs39mWnhFxKmJ_10autumn_web8actuator5testss_41actuator_route_helpers_normalize_prefixes
FNDA:1,_RNvNtNtCs39mWnhFxKmJ_10autumn_web8actuator5testss_42actuator_loggers_put_rejects_invalid_level
FNDA:1,_RNvNtNtCs39mWnhFxKmJ_10autumn_web8actuator5testss_42actuator_tasks_hidden_in_nonsensitive_mode
FNDA:1,_RNvNtNtCs39mWnhFxKmJ_10autumn_web8actuator5testss_43log_levels_accepts_existing_key_at_capacity
FNDA:1,_RNvNtNtCs39mWnhFxKmJ_10autumn_web8actuator5testss_44actuator_loggers_hidden_in_nonsensitive_mode
FNDA:1,_RNvNtNtCs39mWnhFxKmJ_10autumn_web8actuator5testss_45configprops_returns_default_when_values_match
FNDA:1,_RNvNtNtCs39mWnhFxKmJ_10autumn_web8actuator5testss_47actuator_metrics_available_in_nonsensitive_mode
FNDA:1,_RNvNtNtCs39mWnhFxKmJ_10autumn_web8actuator5testss_47actuator_prometheus_hidden_in_nonsensitive_mode
FNDA:1,_RNvNtNtCs39mWnhFxKmJ_10autumn_web8actuator5testss_47actuator_ui_tasks_returns_html_or_unimplemented
FNDA:1,_RNvNtNtCs39mWnhFxKmJ_10autumn_web8actuator5testss_48actuator_configprops_hidden_in_nonsensitive_mode
FNDA:1,_RNvNtNtCs39mWnhFxKmJ_10autumn_web8actuator5testss_49actuator_ui_metrics_returns_html_or_unimplemented
FNDA:1,_RNvNtNtCs39mWnhFxKmJ_10autumn_web8actuator5testss_51actuator_metrics_returns_db_stats_when_pool_present
FNDA:1,_RNvNtNtCs39mWnhFxKmJ_10autumn_web8actuator5testss_51actuator_ui_dashboard_returns_html_or_unimplemented
FNDA:1,_RNvNtNtCs39mWnhFxKmJ_10autumn_web8actuator5testss_53task_registry_records_multiple_successes_and_failures
FNF:124
FNH:117
DA:87,139
DA:88,139
DA:89,139
DA:90,139
DA:91,139
DA:92,139
DA:93,139
DA:94,139
DA:98,3
DA:99,3
DA:100,3
DA:101,3
DA:102,3
DA:106,8
DA:107,8
DA:108,8
DA:109,8
DA:110,8
DA:111,8
DA:115,7005
DA:116,7005
DA:118,7005
DA:119,3828
DA:120,3177
DA:122,3177
DA:123,3177
DA:124,3177
DA:125,3177
DA:127,3177
DA:128,130
DA:129,130
DA:130,130
DA:131,3047
DA:132,3047
DA:134,0
DA:136,7005
DA:140,0
DA:141,0
DA:142,0
DA:143,0
DA:144,0
DA:181,137
DA:182,137
DA:183,137
DA:184,137
DA:185,137
DA:188,3
DA:189,3
DA:190,3
DA:191,3
DA:192,3
DA:193,3
DA:194,3
DA:195,3
DA:196,3
DA:197,3
DA:198,3
DA:199,3
DA:200,3
DA:201,3
DA:202,3
DA:203,3
DA:204,3
DA:207,5
DA:208,5
DA:209,5
DA:210,5
DA:211,5
DA:212,0
DA:213,5
DA:216,3
DA:217,3
DA:218,3
DA:219,3
DA:220,3
DA:221,3
DA:222,3
DA:223,3
DA:224,3
DA:225,3
DA:226,0
DA:227,3
DA:230,2
DA:231,2
DA:232,2
DA:233,2
DA:234,2
DA:235,2
DA:236,2
DA:237,2
DA:238,2
DA:239,2
DA:240,2
DA:241,0
DA:242,2
DA:246,6
DA:247,6
DA:248,6
DA:249,6
DA:250,6
DA:251,6
DA:255,0
DA:256,0
DA:257,0
DA:261,0
DA:262,0
DA:263,0
DA:264,0
DA:265,0
DA:287,21
DA:288,21
DA:289,21
DA:292,21
DA:293,21
DA:295,21
DA:296,21
DA:297,21
DA:298,21
DA:299,21
DA:300,21
DA:301,21
DA:303,21
DA:304,21
DA:305,21
DA:306,21
DA:308,21
DA:309,21
DA:310,21
DA:311,21
DA:312,21
DA:313,21
DA:314,21
DA:315,21
DA:316,21
DA:317,21
DA:318,21
DA:319,21
DA:321,21
DA:322,21
DA:323,21
DA:324,21
DA:325,21
DA:326,21
DA:328,21
DA:329,21
DA:330,21
DA:331,21
DA:332,21
DA:333,21
DA:335,21
DA:337,21
DA:338,21
DA:339,21
DA:340,21
DA:341,21
DA:342,21
DA:343,21
DA:344,21
DA:345,21
DA:346,21
DA:347,21
DA:348,21
DA:349,21
DA:350,21
DA:352,21
DA:354,21
DA:355,21
DA:356,21
DA:357,21
DA:358,21
DA:359,21
DA:360,21
DA:361,21
DA:362,21
DA:363,21
DA:364,21
DA:365,21
DA:367,21
DA:368,21
DA:369,21
DA:370,21
DA:371,21
DA:372,21
DA:374,21
DA:376,21
DA:377,21
DA:378,21
DA:379,21
DA:380,21
DA:381,21
DA:382,21
DA:383,21
DA:384,21
DA:385,21
DA:386,21
DA:387,21
DA:389,21
DA:390,21
DA:391,21
DA:392,21
DA:393,21
DA:394,21
DA:396,21
DA:397,21
DA:398,21
DA:399,21
DA:400,21
DA:401,21
DA:402,21
DA:403,21
DA:404,21
DA:405,21
DA:407,21
DA:408,21
DA:409,21
DA:410,21
DA:411,21
DA:412,21
DA:414,21
DA:415,21
DA:416,21
DA:417,21
DA:418,21
DA:419,21
DA:421,21
DA:422,21
DA:423,21
DA:424,21
DA:425,21
DA:426,21
DA:428,21
DA:429,21
DA:430,21
DA:431,21
DA:432,21
DA:433,21
DA:435,21
DA:436,21
DA:437,21
DA:438,21
DA:439,21
DA:440,21
DA:442,21
DA:444,21
DA:445,21
DA:446,21
DA:447,21
DA:448,21
DA:449,21
DA:450,21
DA:451,21
DA:452,21
DA:453,21
DA:454,21
DA:455,21
DA:457,21
DA:458,21
DA:459,21
DA:460,21
DA:461,21
DA:462,21
DA:464,21
DA:465,21
DA:466,21
DA:467,21
DA:468,21
DA:469,21
DA:471,21
DA:472,21
DA:473,21
DA:474,21
DA:475,21
DA:476,21
DA:478,21
DA:479,21
DA:480,21
DA:481,21
DA:482,21
DA:483,21
DA:485,21
DA:487,21
DA:488,21
DA:489,21
DA:490,21
DA:491,21
DA:492,21
DA:493,21
DA:494,21
DA:495,21
DA:496,21
DA:497,21
DA:498,21
DA:500,21
DA:501,21
DA:502,21
DA:503,21
DA:504,21
DA:505,21
DA:507,21
DA:509,21
DA:510,21
DA:511,21
DA:512,21
DA:513,21
DA:514,21
DA:515,21
DA:516,21
DA:517,21
DA:518,21
DA:519,21
DA:520,21
DA:522,21
DA:523,21
DA:524,21
DA:525,21
DA:526,21
DA:527,21
DA:529,21
DA:530,21
DA:531,21
DA:532,21
DA:533,21
DA:534,21
DA:536,21
DA:537,21
DA:538,21
DA:539,21
DA:540,21
DA:541,21
DA:543,21
DA:544,21
DA:545,21
DA:546,21
DA:547,21
DA:548,21
DA:550,21
DA:551,21
DA:552,21
DA:553,21
DA:554,21
DA:555,21
DA:557,21
DA:558,21
DA:559,21
DA:560,21
DA:561,21
DA:562,21
DA:564,21
DA:565,21
DA:566,21
DA:567,21
DA:568,21
DA:569,21
DA:571,21
DA:572,21
DA:573,21
DA:574,21
DA:575,21
DA:576,21
DA:578,21
DA:579,21
DA:580,21
DA:581,21
DA:582,21
DA:583,21
DA:585,21
DA:587,679
DA:588,679
DA:589,679
DA:590,679
DA:591,679
DA:592,679
DA:593,679
DA:595,679
DA:596,679
DA:597,0
DA:598,679
DA:599,8
DA:600,671
DA:601,1
DA:603,670
DA:606,679
DA:607,64
DA:609,615
DA:612,679
DA:613,679
DA:614,679
DA:615,679
DA:616,679
DA:617,679
DA:619,679
DA:623,2
DA:624,2
DA:625,2
DA:626,2
DA:627,2
DA:628,2
DA:659,4
DA:660,4
DA:661,4
DA:662,4
DA:666,4
DA:667,0
DA:668,0
DA:669,0
DA:670,0
DA:671,0
DA:672,0
DA:674,0
DA:675,0
DA:676,0
DA:677,0
DA:678,0
DA:679,0
DA:681,0
DA:683,4
DA:693,4
DA:695,4
DA:696,4
DA:698,4
DA:699,4
DA:700,4
DA:703,4
DA:704,4
DA:706,0
DA:708,4
DA:709,4
DA:739,1
DA:740,1
DA:741,1
DA:744,1
DA:745,1
DA:747,1
DA:748,1
DA:749,1
DA:750,1
DA:751,1
DA:752,1
DA:753,1
DA:755,1
DA:777,684
DA:778,684
DA:779,4696
DA:780,684
DA:783,1
DA:784,1
DA:785,1
DA:786,1
DA:787,1
DA:788,1
DA:789,1
DA:790,32
DA:791,1
DA:793,1
DA:794,1
DA:795,1
DA:796,1
DA:797,1
DA:802,3
DA:803,3
DA:804,3
DA:805,3
DA:806,3
DA:810,3
DA:811,3
DA:812,3
DA:813,1
DA:814,1
DA:815,1
DA:816,1
DA:817,1
DA:819,1
DA:820,1
DA:821,1
DA:822,2
DA:823,3
DA:826,3
DA:827,3
DA:832,1
DA:833,1
DA:834,1
DA:837,1
DA:838,1
DA:841,1
DA:842,1
DA:843,1
DA:844,1
DA:850,1
DA:851,1
DA:852,1
DA:853,1
DA:859,1
DA:860,1
DA:861,1
DA:862,1
DA:866,1
DA:867,1
DA:871,1
DA:872,1
DA:876,1
DA:877,1
DA:883,1
DA:884,1
DA:885,1
DA:886,2
DA:888,2
DA:889,2
DA:890,2
DA:891,2
DA:892,2
DA:893,2
DA:894,2
DA:896,0
DA:898,1
DA:899,1
DA:900,1
DA:901,1
DA:902,1
DA:903,1
DA:904,1
DA:905,1
DA:910,1
DA:911,1
DA:912,1
DA:913,1
DA:915,1
DA:916,1
DA:917,1
DA:918,1
DA:919,1
DA:935,1
DA:936,1
DA:937,1
DA:938,1
DA:939,1
DA:940,1
DA:941,1
DA:942,1
DA:943,1
DA:952,2
DA:953,2
DA:954,2
DA:955,2
DA:956,2
DA:957,2
DA:960,2
DA:961,1
DA:962,1
DA:963,1
DA:964,1
DA:965,1
DA:966,1
DA:967,1
DA:968,1
DA:969,1
DA:970,1
DA:971,1
DA:972,1
DA:974,1
DA:976,1
DA:977,1
DA:978,1
DA:979,1
DA:980,1
DA:981,1
DA:982,1
DA:983,1
DA:984,2
DA:989,1
DA:990,1
DA:991,1
DA:992,1
DA:994,1
DA:995,1
DA:996,1
DA:997,1
DA:1050,990
DA:1051,990
DA:1052,990
DA:1053,6
DA:1055,984
DA:1056,984
DA:1057,982
DA:1059,2
DA:1062,990
DA:1064,4
DA:1065,4
DA:1066,4
DA:1067,1
DA:1069,3
DA:1071,4
DA:1073,986
DA:1074,986
DA:1075,986
DA:1076,5
DA:1078,981
DA:1080,986
DA:1082,87
DA:1083,87
DA:1084,87
DA:1085,87
DA:1086,87
DA:1087,87
DA:1088,87
DA:1091,87
DA:1092,2
DA:1093,2
DA:1094,2
DA:1095,2
DA:1096,2
DA:1097,2
DA:1098,2
DA:1099,2
DA:1100,2
DA:1101,2
DA:1102,2
DA:1103,85
DA:1105,87
DA:1106,87
DA:1112,20
DA:1113,20
DA:1114,20
DA:1115,20
DA:1116,20
DA:1121,85
DA:1122,85
DA:1123,85
DA:1124,85
DA:1125,85
DA:1126,85
DA:1127,85
DA:1128,85
DA:1129,85
DA:1130,85
DA:1132,85
DA:1133,85
DA:1134,85
DA:1136,85
DA:1137,85
DA:1138,85
DA:1141,85
DA:1142,16
DA:1143,16
DA:1144,16
DA:1145,16
DA:1146,16
DA:1147,16
DA:1148,16
DA:1149,16
DA:1150,16
DA:1151,16
DA:1152,16
DA:1153,16
DA:1154,16
DA:1155,16
DA:1156,16
DA:1157,16
DA:1158,16
DA:1159,16
DA:1160,16
DA:1161,16
DA:1162,16
DA:1163,16
DA:1164,16
DA:1165,16
DA:1166,16
DA:1167,16
DA:1168,16
DA:1169,16
DA:1170,16
DA:1171,16
DA:1172,16
DA:1173,16
DA:1174,16
DA:1175,16
DA:1176,16
DA:1177,16
DA:1178,16
DA:1179,16
DA:1180,16
DA:1181,16
DA:1182,16
DA:1183,16
DA:1184,69
DA:1187,85
DA:1188,85
DA:1189,85
DA:1190,85
DA:1192,85
DA:1193,85
DA:1194,85
DA:1196,85
DA:1207,20
DA:1208,20
DA:1209,20
DA:1211,21
DA:1213,21
DA:1214,21
DA:1217,21
DA:1218,21
DA:1219,21
DA:1221,21
DA:1222,21
DA:1223,21
DA:1224,21
DA:1225,21
DA:1231,21
DA:1234,1
DA:1235,1
DA:1236,1
DA:1237,1
DA:1238,1
DA:1239,1
DA:1240,1
DA:1241,1
DA:1242,1
DA:1243,1
DA:1244,1
DA:1246,1
DA:1247,1
DA:1248,1
DA:1249,1
DA:1250,1
DA:1251,1
DA:1252,1
DA:1253,1
DA:1254,1
DA:1257,1
DA:1258,1
DA:1260,1
DA:1261,1
DA:1262,1
DA:1263,1
DA:1264,1
DA:1265,1
DA:1266,1
DA:1267,1
DA:1268,1
DA:1269,1
DA:1270,1
DA:1272,1
DA:1273,1
DA:1274,1
DA:1275,1
DA:1276,1
DA:1277,1
DA:1278,1
DA:1279,1
DA:1280,1
DA:1281,1
DA:1282,1
DA:1285,1
DA:1286,1
DA:1287,1
DA:1288,1
DA:1289,1
DA:1292,1
DA:1293,1
DA:1294,1
DA:1295,1
DA:1296,1
DA:1297,1
DA:1298,1
DA:1299,1
DA:1300,1
DA:1301,1
DA:1302,1
DA:1304,1
DA:1305,1
DA:1306,1
DA:1307,1
DA:1308,1
DA:1309,1
DA:1310,1
DA:1311,1
DA:1314,1
DA:1315,1
DA:1316,1
DA:1317,1
DA:1318,1
DA:1319,1
DA:1320,1
DA:1321,1
DA:1322,1
DA:1323,1
DA:1324,1
DA:1325,1
DA:1326,1
DA:1327,1
DA:1328,1
DA:1329,1
DA:1330,1
DA:1331,1
DA:1333,1
DA:1334,1
DA:1335,1
DA:1336,1
DA:1337,1
DA:1338,1
DA:1339,1
DA:1340,1
DA:1341,1
DA:1342,1
DA:1343,1
DA:1344,1
DA:1345,1
DA:1346,1
DA:1347,1
DA:1348,1
DA:1349,1
DA:1350,1
DA:1351,1
DA:1352,1
DA:1353,1
DA:1356,1
DA:1357,1
DA:1358,1
DA:1359,1
DA:1360,1
DA:1361,1
DA:1362,1
DA:1363,1
DA:1364,1
DA:1365,1
DA:1366,1
DA:1367,1
DA:1368,1
DA:1371,1
DA:1372,1
DA:1373,1
DA:1374,1
DA:1375,1
DA:1376,1
DA:1377,1
DA:1382,1
DA:1383,1
DA:1384,1
DA:1385,1
DA:1387,1
DA:1388,1
DA:1389,1
DA:1390,1
DA:1391,1
DA:1392,1
DA:1393,1
DA:1394,1
DA:1395,1
DA:1396,1
DA:1398,1
DA:1399,1
DA:1400,1
DA:1401,1
DA:1402,1
DA:1403,1
DA:1404,1
DA:1405,1
DA:1406,1
DA:1409,1
DA:1410,1
DA:1411,1
DA:1412,1
DA:1413,1
DA:1414,1
DA:1415,1
DA:1416,1
DA:1417,1
DA:1418,1
DA:1419,1
DA:1420,1
DA:1421,1
DA:1425,1
DA:1430,1
DA:1432,1
DA:1435,1
DA:1437,1
DA:1439,1
DA:1440,1
DA:1441,1
DA:1442,1
DA:1443,1
DA:1444,1
DA:1445,1
DA:1446,1
DA:1447,1
DA:1448,1
DA:1450,1
DA:1451,1
DA:1452,1
DA:1453,1
DA:1454,1
DA:1456,1
DA:1457,1
DA:1462,1
DA:1463,1
DA:1464,1
DA:1465,1
DA:1466,1
DA:1467,1
DA:1468,1
DA:1469,1
DA:1470,1
DA:1471,1
DA:1472,1
DA:1474,1
DA:1475,1
DA:1476,1
DA:1477,1
DA:1478,1
DA:1479,1
DA:1480,1
DA:1481,1
DA:1484,1
DA:1485,1
DA:1486,1
DA:1487,1
DA:1488,1
DA:1489,1
DA:1490,1
DA:1491,1
DA:1492,1
DA:1493,1
DA:1494,1
DA:1495,1
DA:1496,1
DA:1499,1
DA:1500,1
DA:1501,1
DA:1502,1
DA:1503,1
DA:1504,1
DA:1505,1
DA:1506,1
DA:1508,1
DA:1509,1
DA:1512,1
DA:1513,1
DA:1514,1
DA:1515,1
DA:1516,1
DA:1517,1
DA:1520,1
DA:1521,1
DA:1522,1
DA:1523,1
DA:1524,1
DA:1529,1
DA:1530,1
DA:1531,1
DA:1532,1
DA:1533,1
DA:1534,1
DA:1535,1
DA:1536,1
DA:1537,1
DA:1538,1
DA:1539,1
DA:1541,1
DA:1542,1
DA:1543,1
DA:1544,1
DA:1545,1
DA:1546,1
DA:1547,1
DA:1548,1
DA:1551,1
DA:1552,1
DA:1553,1
DA:1554,1
DA:1555,1
DA:1556,1
DA:1557,1
DA:1558,1
DA:1559,1
DA:1560,1
DA:1561,1
DA:1562,1
DA:1563,1
DA:1564,1
DA:1566,1
DA:1567,1
DA:1568,1
DA:1569,1
DA:1570,1
DA:1571,1
DA:1572,1
DA:1574,1
DA:1575,1
DA:1576,1
DA:1577,1
DA:1578,1
DA:1579,1
DA:1582,1
DA:1583,1
DA:1584,1
DA:1585,1
DA:1586,1
DA:1587,1
DA:1588,1
DA:1589,1
DA:1590,1
DA:1591,1
DA:1592,1
DA:1593,1
DA:1594,1
DA:1596,1
DA:1597,1
DA:1598,1
DA:1599,1
DA:1600,1
DA:1601,1
DA:1602,1
DA:1605,1
DA:1606,1
DA:1607,1
DA:1608,1
DA:1609,1
DA:1610,1
DA:1611,1
DA:1612,1
DA:1613,1
DA:1614,1
DA:1615,1
DA:1616,1
DA:1617,1
DA:1620,1
DA:1621,1
DA:1622,1
DA:1624,1
DA:1625,1
DA:1626,1
DA:1627,1
DA:1630,1
DA:1631,1
DA:1632,1
DA:1633,1
DA:1634,1
DA:1635,1
DA:1640,1
DA:1641,1
DA:1642,1
DA:1643,1
DA:1645,1
DA:1646,1
DA:1647,1
DA:1648,1
DA:1649,1
DA:1650,1
DA:1651,1
DA:1652,1
DA:1653,1
DA:1654,1
DA:1656,1
DA:1657,1
DA:1658,1
DA:1662,1
DA:1663,1
DA:1664,1
DA:1665,1
DA:1667,1
DA:1668,1
DA:1669,1
DA:1671,1
DA:1672,1
DA:1673,1
DA:1675,1
DA:1676,1
DA:1678,1
DA:1679,1
DA:1680,1
DA:1681,1
DA:1684,1
DA:1685,1
DA:1686,1
DA:1687,1
DA:1688,1
DA:1689,1
DA:1690,1
DA:1691,1
DA:1692,1
DA:1693,1
DA:1694,1
DA:1695,1
DA:1696,1
DA:1701,1
DA:1702,1
DA:1703,1
DA:1704,1
DA:1705,1
DA:1707,1
DA:1708,1
DA:1709,1
DA:1710,1
DA:1711,1
DA:1712,1
DA:1713,1
DA:1714,1
DA:1715,1
DA:1716,1
DA:1718,1
DA:1719,1
DA:1720,1
DA:1721,1
DA:1722,1
DA:1723,1
DA:1724,1
DA:1725,1
DA:1726,1
DA:1727,1
DA:1728,1
DA:1729,1
DA:1730,1
DA:1733,1
DA:1734,1
DA:1735,1
DA:1736,1
DA:1737,1
DA:1738,1
DA:1739,1
DA:1740,1
DA:1741,1
DA:1742,1
DA:1743,1
DA:1744,1
DA:1745,1
DA:1748,1
DA:1749,1
DA:1750,1
DA:1751,1
DA:1752,1
DA:1754,1
DA:1755,1
DA:1756,1
DA:1757,1
DA:1758,1
DA:1759,1
DA:1760,1
DA:1761,1
DA:1764,1
DA:1765,1
DA:1766,1
DA:1767,1
DA:1769,1
DA:1770,1
DA:1772,1000
DA:1773,1000
DA:1774,1000
DA:1777,1
DA:1778,1
DA:1779,1
DA:1780,1
DA:1781,1
DA:1784,1
DA:1785,1
DA:1787,1000
DA:1788,1000
DA:1789,1000
DA:1792,1
DA:1793,1
DA:1794,1
DA:1795,1
DA:1796,1
DA:1797,1
DA:1798,1
DA:1799,1
DA:1802,1
DA:1805,1
DA:1806,1
DA:1807,1
DA:1810,1
DA:1811,1
DA:1814,1
DA:1815,1
DA:1817,1
DA:1818,1
DA:1819,1
DA:1820,1
DA:1823,1
DA:1824,1
DA:1826,1
DA:1827,1
DA:1828,1
DA:1829,1
DA:1830,1
DA:1833,1
DA:1834,1
DA:1835,1
DA:1836,1
DA:1837,1
DA:1838,1
DA:1839,1
DA:1840,1
DA:1842,1
DA:1843,1
DA:1846,1
DA:1847,1
DA:1848,1
DA:1849,1
DA:1851,1
DA:1852,1
DA:1853,1
DA:1856,1
DA:1857,1
DA:1858,1
DA:1859,1
DA:1860,1
DA:1863,1
DA:1864,1
DA:1866,1
DA:1867,1
DA:1868,1
DA:1869,1
DA:1870,1
DA:1871,1
DA:1872,1
DA:1873,1
DA:1874,1
DA:1876,1
DA:1877,1
DA:1878,1
DA:1879,1
DA:1880,1
DA:1881,1
DA:1882,1
DA:1883,1
DA:1884,1
DA:1885,1
DA:1888,1
DA:1889,1
DA:1891,1
DA:1892,1
DA:1893,1
DA:1894,1
DA:1895,1
DA:1896,1
DA:1897,1
DA:1898,1
DA:1899,1
DA:1901,1
DA:1902,1
DA:1903,1
DA:1904,1
DA:1905,1
DA:1906,1
DA:1907,1
DA:1908,1
DA:1909,1
DA:1910,1
DA:1913,1
DA:1914,1
DA:1916,1
DA:1917,1
DA:1918,1
DA:1919,1
DA:1920,1
DA:1921,1
DA:1922,1
DA:1923,1
DA:1924,1
DA:1926,1
DA:1927,1
DA:1928,1
DA:1929,1
DA:1930,1
DA:1931,1
DA:1932,1
DA:1933,1
DA:1934,1
DA:1935,1
DA:1959,1
DA:1960,1
DA:1999,1
DA:2000,1
DA:2001,1
DA:2002,1
DA:2003,1
DA:2014,1
DA:2015,1
DA:2016,1
DA:2018,1
DA:2041,1
DA:2042,1
DA:2043,1
DA:2044,1
DA:2045,1
DA:2056,1
DA:2057,1
DA:2059,1
DA:2061,1
DA:2064,0
DA:2068,0
DA:2075,0
DA:2083,1
DA:2084,1
DA:2085,1
DA:2086,1
DA:2087,1
BRF:0
BRH:0
LF:1375
LH:1332
end_of_record
SF:/app/autumn/src/app.rs
FN:1015,_RNCNCNCNvMs0_NtCslNlzF6u6e2e_10autumn_web3appNtBb_10AppBuilder3run0s1_00Cs9uppY7VoQWl_11app_builder
FN:1034,_RNCNCNCNvMs0_NtCslNlzF6u6e2e_10autumn_web3appNtBb_10AppBuilder3run0s2_00Cs9uppY7VoQWl_11app_builder
FN:1127,_RNCNCNvMs0_NtCslNlzF6u6e2e_10autumn_web3appNtB9_10AppBuilder14run_build_mode00Cs9uppY7VoQWl_11app_builder
FN:1161,_RNCNCNvMs0_NtCslNlzF6u6e2e_10autumn_web3appNtB9_10AppBuilder14run_build_mode0s_0Cs9uppY7VoQWl_11app_builder
FN:948,_RNCNCNvMs0_NtCslNlzF6u6e2e_10autumn_web3appNtB9_10AppBuilder3run00Cs9uppY7VoQWl_11app_builder
FN:1001,_RNCNCNvMs0_NtCslNlzF6u6e2e_10autumn_web3appNtB9_10AppBuilder3run0s0_0Cs9uppY7VoQWl_11app_builder
FN:1010,_RNCNCNvMs0_NtCslNlzF6u6e2e_10autumn_web3appNtB9_10AppBuilder3run0s1_0Cs9uppY7VoQWl_11app_builder
FN:1026,_RNCNCNvMs0_NtCslNlzF6u6e2e_10autumn_web3appNtB9_10AppBuilder3run0s2_0Cs9uppY7VoQWl_11app_builder
FN:1064,_RNCNCNvMs0_NtCslNlzF6u6e2e_10autumn_web3appNtB9_10AppBuilder3run0s3_0Cs9uppY7VoQWl_11app_builder
FN:1069,_RNCNCNvMs0_NtCslNlzF6u6e2e_10autumn_web3appNtB9_10AppBuilder3run0s4_0Cs9uppY7VoQWl_11app_builder
FN:991,_RNCNCNvMs0_NtCslNlzF6u6e2e_10autumn_web3appNtB9_10AppBuilder3run0s_0Cs9uppY7VoQWl_11app_builder
FN:1602,_RNCNCNvNtCslNlzF6u6e2e_10autumn_web3app14setup_database00Cs9uppY7VoQWl_11app_builder
FN:1798,_RNCNCNvNtCslNlzF6u6e2e_10autumn_web3app15shutdown_signal00Cs9uppY7VoQWl_11app_builder
FN:1806,_RNCNCNvNtCslNlzF6u6e2e_10autumn_web3app15shutdown_signal0s_0Cs9uppY7VoQWl_11app_builder
FN:1566,_RNCNCNvNtCslNlzF6u6e2e_10autumn_web3app25load_config_and_telemetry00Cs9uppY7VoQWl_11app_builder
FN:1577,_RNCNCNvNtCslNlzF6u6e2e_10autumn_web3app25load_config_and_telemetry0s0_0Cs9uppY7VoQWl_11app_builder
FN:1574,_RNCNCNvNtCslNlzF6u6e2e_10autumn_web3app25load_config_and_telemetry0s_0Cs9uppY7VoQWl_11app_builder
FN:1082,_RNCNvMs0_NtCslNlzF6u6e2e_10autumn_web3appNtB7_10AppBuilder14run_build_mode0Cs9uppY7VoQWl_11app_builder
FN:881,_RNCNvMs0_NtCslNlzF6u6e2e_10autumn_web3appNtB7_10AppBuilder3run0Cs9uppY7VoQWl_11app_builder
FN:1593,_RNCNvNtCslNlzF6u6e2e_10autumn_web3app14setup_database0Cs9uppY7VoQWl_11app_builder
FN:1797,_RNCNvNtCslNlzF6u6e2e_10autumn_web3app15shutdown_signal0Cs9uppY7VoQWl_11app_builder
FN:1494,_RNCNvNtCslNlzF6u6e2e_10autumn_web3app17run_startup_hooks0Cs9uppY7VoQWl_11app_builder
FN:1501,_RNCNvNtCslNlzF6u6e2e_10autumn_web3app18run_shutdown_hooks0Cs9uppY7VoQWl_11app_builder
FN:1559,_RNCNvNtCslNlzF6u6e2e_10autumn_web3app25load_config_and_telemetry0Cs9uppY7VoQWl_11app_builder
FN:1464,_RINvNtCslNlzF6u6e2e_10autumn_web3app14build_cron_jobNCNCNvB2_18register_cron_task00EB4_
FN:1396,_RNCNCNCNvNtCslNlzF6u6e2e_10autumn_web3app18register_cron_task000B9_
FN:1393,_RNCNCNvNtCslNlzF6u6e2e_10autumn_web3app18register_cron_task00B7_
FN:1788,_RNCNvNtCslNlzF6u6e2e_10autumn_web3app11project_dir0B5_
FN:1789,_RNCNvNtCslNlzF6u6e2e_10autumn_web3app11project_dirs_0B5_
FN:1346,_RNCNvNtCslNlzF6u6e2e_10autumn_web3app17execute_cron_task0B5_
FN:1389,_RNCNvNtCslNlzF6u6e2e_10autumn_web3app18register_cron_task0B5_
FN:1446,_RNCNvNtCslNlzF6u6e2e_10autumn_web3app18run_cron_scheduler0B5_
FN:1284,_RNCNvNtCslNlzF6u6e2e_10autumn_web3app19execute_task_result0B5_
FN:1416,_RNCNvNtCslNlzF6u6e2e_10autumn_web3app20setup_cron_scheduler0B5_
FN:1223,_RNCNvNtCslNlzF6u6e2e_10autumn_web3app20start_task_scheduler0B5_
FN:1242,_RNCNvNtCslNlzF6u6e2e_10autumn_web3app20start_task_schedulers_0B5_
FN:1749,_RNCNvNtCslNlzF6u6e2e_10autumn_web3app21format_config_summary0B5_
FN:1750,_RNCNvNtCslNlzF6u6e2e_10autumn_web3app21format_config_summarys_0B5_
FN:1309,_RNCNvNtCslNlzF6u6e2e_10autumn_web3app24execute_fixed_delay_task0B5_
FN:620,_RINvMs0_NtCslNlzF6u6e2e_10autumn_web3appNtB6_10AppBuilder10on_startupppEB8_
FN:399,_RINvMs0_NtCslNlzF6u6e2e_10autumn_web3appNtB6_10AppBuilder11error_pagespEB8_
FN:635,_RINvMs0_NtCslNlzF6u6e2e_10autumn_web3appNtB6_10AppBuilder11on_shutdownppEB8_
FN:649,_RINvMs0_NtCslNlzF6u6e2e_10autumn_web3appNtB6_10AppBuilder14with_extensionpEB8_
FN:357,_RINvMs0_NtCslNlzF6u6e2e_10autumn_web3appNtB6_10AppBuilder16exception_filterpEB8_
FN:665,_RINvMs0_NtCslNlzF6u6e2e_10autumn_web3appNtB6_10AppBuilder16update_extensionpppEB8_
FN:708,_RINvMs0_NtCslNlzF6u6e2e_10autumn_web3appNtB6_10AppBuilder18with_config_loaderpEB8_
FN:732,_RINvMs0_NtCslNlzF6u6e2e_10autumn_web3appNtB6_10AppBuilder18with_pool_providerpEB8_
FN:775,_RINvMs0_NtCslNlzF6u6e2e_10autumn_web3appNtB6_10AppBuilder18with_session_storepEB8_
FN:755,_RINvMs0_NtCslNlzF6u6e2e_10autumn_web3appNtB6_10AppBuilder23with_telemetry_providerpEB8_
FN:521,_RINvMs0_NtCslNlzF6u6e2e_10autumn_web3appNtB6_10AppBuilder5layerpEB8_
FN:797,_RINvMs0_NtCslNlzF6u6e2e_10autumn_web3appNtB6_10AppBuilder6pluginpEB8_
FN:427,_RINvMs0_NtCslNlzF6u6e2e_10autumn_web3appNtB6_10AppBuilder6scopedpEB8_
FN:816,_RINvMs0_NtCslNlzF6u6e2e_10autumn_web3appNtB6_10AppBuilder7pluginspEB8_
FN:685,_RINvMs0_NtCslNlzF6u6e2e_10autumn_web3appNtB6_10AppBuilder9extensionpEB8_
FN:626,_RNCINvMs0_NtCslNlzF6u6e2e_10autumn_web3appNtB8_10AppBuilder10on_startupppE0Ba_
FN:640,_RNCINvMs0_NtCslNlzF6u6e2e_10autumn_web3appNtB8_10AppBuilder11on_shutdownppE0Ba_
FN:675,_RNCINvMs0_NtCslNlzF6u6e2e_10autumn_web3appNtB8_10AppBuilder16update_extensionpppE0Ba_
FN:717,_RNCINvMs0_NtCslNlzF6u6e2e_10autumn_web3appNtB8_10AppBuilder18with_config_loaderpE0Ba_
FN:742,_RNCINvMs0_NtCslNlzF6u6e2e_10autumn_web3appNtB8_10AppBuilder18with_pool_providerpE0Ba_
FN:529,_RNCINvMs0_NtCslNlzF6u6e2e_10autumn_web3appNtB8_10AppBuilder5layerpE0Ba_
FN:444,_RNCINvMs0_NtCslNlzF6u6e2e_10autumn_web3appNtB8_10AppBuilder6scopedpE0Ba_
FN:718,_RNCNCINvMs0_NtCslNlzF6u6e2e_10autumn_web3appNtBa_10AppBuilder18with_config_loaderpE00Bc_
FN:743,_RNCNCINvMs0_NtCslNlzF6u6e2e_10autumn_web3appNtBa_10AppBuilder18with_pool_providerpE00Bc_
FN:1015,_RNCNCNCNvMs0_NtCslNlzF6u6e2e_10autumn_web3appNtBb_10AppBuilder3run0s1_00Bd_
FN:1034,_RNCNCNCNvMs0_NtCslNlzF6u6e2e_10autumn_web3appNtBb_10AppBuilder3run0s2_00Bd_
FN:1127,_RNCNCNvMs0_NtCslNlzF6u6e2e_10autumn_web3appNtB9_10AppBuilder14run_build_mode00Bb_
FN:1161,_RNCNCNvMs0_NtCslNlzF6u6e2e_10autumn_web3appNtB9_10AppBuilder14run_build_mode0s_0Bb_
FN:948,_RNCNCNvMs0_NtCslNlzF6u6e2e_10autumn_web3appNtB9_10AppBuilder3run00Bb_
FN:1001,_RNCNCNvMs0_NtCslNlzF6u6e2e_10autumn_web3appNtB9_10AppBuilder3run0s0_0Bb_
FN:1010,_RNCNCNvMs0_NtCslNlzF6u6e2e_10autumn_web3appNtB9_10AppBuilder3run0s1_0Bb_
FN:1026,_RNCNCNvMs0_NtCslNlzF6u6e2e_10autumn_web3appNtB9_10AppBuilder3run0s2_0Bb_
FN:1064,_RNCNCNvMs0_NtCslNlzF6u6e2e_10autumn_web3appNtB9_10AppBuilder3run0s3_0Bb_
FN:1069,_RNCNCNvMs0_NtCslNlzF6u6e2e_10autumn_web3appNtB9_10AppBuilder3run0s4_0Bb_
FN:991,_RNCNCNvMs0_NtCslNlzF6u6e2e_10autumn_web3appNtB9_10AppBuilder3run0s_0Bb_
FN:1602,_RNCNCNvNtCslNlzF6u6e2e_10autumn_web3app14setup_database00B7_
FN:1798,_RNCNCNvNtCslNlzF6u6e2e_10autumn_web3app15shutdown_signal00B7_
FN:1806,_RNCNCNvNtCslNlzF6u6e2e_10autumn_web3app15shutdown_signal0s_0B7_
FN:1566,_RNCNCNvNtCslNlzF6u6e2e_10autumn_web3app25load_config_and_telemetry00B7_
FN:1577,_RNCNCNvNtCslNlzF6u6e2e_10autumn_web3app25load_config_and_telemetry0s0_0B7_
FN:1574,_RNCNCNvNtCslNlzF6u6e2e_10autumn_web3app25load_config_and_telemetry0s_0B7_
FN:1082,_RNCNvMs0_NtCslNlzF6u6e2e_10autumn_web3appNtB7_10AppBuilder14run_build_mode0B9_
FN:881,_RNCNvMs0_NtCslNlzF6u6e2e_10autumn_web3appNtB7_10AppBuilder3run0B9_
FN:1593,_RNCNvNtCslNlzF6u6e2e_10autumn_web3app14setup_database0B5_
FN:1797,_RNCNvNtCslNlzF6u6e2e_10autumn_web3app15shutdown_signal0B5_
FN:1494,_RNCNvNtCslNlzF6u6e2e_10autumn_web3app17run_startup_hooks0B5_
FN:1501,_RNCNvNtCslNlzF6u6e2e_10autumn_web3app18run_shutdown_hooks0B5_
FN:1559,_RNCNvNtCslNlzF6u6e2e_10autumn_web3app25load_config_and_telemetry0B5_
FN:271,_RNvXININtCslNlzF6u6e2e_10autumn_web3apps_0pEpNtB5_12IntoAppLayer8apply_toB7_
FN:826,_RNvMs0_NtCslNlzF6u6e2e_10autumn_web3appNtB5_10AppBuilder10has_plugin
FN:855,_RNvMs0_NtCslNlzF6u6e2e_10autumn_web3appNtB5_10AppBuilder10migrations
FN:320,_RNvMs0_NtCslNlzF6u6e2e_10autumn_web3appNtB5_10AppBuilder13static_routes
FN:1082,_RNvMs0_NtCslNlzF6u6e2e_10autumn_web3appNtB5_10AppBuilder14run_build_mode
FN:881,_RNvMs0_NtCslNlzF6u6e2e_10autumn_web3appNtB5_10AppBuilder3run
FN:609,_RNvMs0_NtCslNlzF6u6e2e_10autumn_web3appNtB5_10AppBuilder4nest
FN:571,_RNvMs0_NtCslNlzF6u6e2e_10autumn_web3appNtB5_10AppBuilder5merge
FN:310,_RNvMs0_NtCslNlzF6u6e2e_10autumn_web3appNtB5_10AppBuilder5tasks
FN:299,_RNvMs0_NtCslNlzF6u6e2e_10autumn_web3appNtB5_10AppBuilder6routes
FN:1624,_RNvNtCslNlzF6u6e2e_10autumn_web3app11build_state
FN:1786,_RNvNtCslNlzF6u6e2e_10autumn_web3app11project_dir
FN:1586,_RNvNtCslNlzF6u6e2e_10autumn_web3app14setup_database
FN:1797,_RNvNtCslNlzF6u6e2e_10autumn_web3app15shutdown_signal
FN:1346,_RNvNtCslNlzF6u6e2e_10autumn_web3app17execute_cron_task
FN:1697,_RNvNtCslNlzF6u6e2e_10autumn_web3app17format_task_lines
FN:1731,_RNvNtCslNlzF6u6e2e_10autumn_web3app17mask_database_url
FN:1494,_RNvNtCslNlzF6u6e2e_10autumn_web3app17run_startup_hooks
FN:1650,_RNvNtCslNlzF6u6e2e_10autumn_web3app18format_route_lines
FN:1382,_RNvNtCslNlzF6u6e2e_10autumn_web3app18register_cron_task
FN:1442,_RNvNtCslNlzF6u6e2e_10autumn_web3app18run_cron_scheduler
FN:1501,_RNvNtCslNlzF6u6e2e_10autumn_web3app18run_shutdown_hooks
FN:1278,_RNvNtCslNlzF6u6e2e_10autumn_web3app19execute_task_result
FN:1186,_RNvNtCslNlzF6u6e2e_10autumn_web3app20is_static_build_mode
FN:1249,_RNvNtCslNlzF6u6e2e_10autumn_web3app20send_ws_sys_task_msg
FN:1413,_RNvNtCslNlzF6u6e2e_10autumn_web3app20setup_cron_scheduler
FN:1198,_RNvNtCslNlzF6u6e2e_10autumn_web3app20start_task_scheduler
FN:1746,_RNvNtCslNlzF6u6e2e_10autumn_web3app21format_config_summary
FN:1713,_RNvNtCslNlzF6u6e2e_10autumn_web3app22format_middleware_list
FN:1305,_RNvNtCslNlzF6u6e2e_10autumn_web3app24execute_fixed_delay_task
FN:1514,_RNvNtCslNlzF6u6e2e_10autumn_web3app24log_startup_transparency
FN:1556,_RNvNtCslNlzF6u6e2e_10autumn_web3app25load_config_and_telemetry
FN:1546,_RNvNtCslNlzF6u6e2e_10autumn_web3app35fail_fast_on_invalid_session_config
FN:68,_RNvNtCslNlzF6u6e2e_10autumn_web3app3app
FN:399,_RINvMs0_NtCs39mWnhFxKmJ_10autumn_web3appNtB6_10AppBuilder11error_pagespEB8_
FN:357,_RINvMs0_NtCs39mWnhFxKmJ_10autumn_web3appNtB6_10AppBuilder16exception_filterpEB8_
FN:708,_RINvMs0_NtCs39mWnhFxKmJ_10autumn_web3appNtB6_10AppBuilder18with_config_loaderpEB8_
FN:732,_RINvMs0_NtCs39mWnhFxKmJ_10autumn_web3appNtB6_10AppBuilder18with_pool_providerpEB8_
FN:775,_RINvMs0_NtCs39mWnhFxKmJ_10autumn_web3appNtB6_10AppBuilder18with_session_storepEB8_
FN:755,_RINvMs0_NtCs39mWnhFxKmJ_10autumn_web3appNtB6_10AppBuilder23with_telemetry_providerpEB8_
FN:521,_RINvMs0_NtCs39mWnhFxKmJ_10autumn_web3appNtB6_10AppBuilder5layerpEB8_
FN:427,_RINvMs0_NtCs39mWnhFxKmJ_10autumn_web3appNtB6_10AppBuilder6scopedpEB8_
FN:1464,_RINvNtCs39mWnhFxKmJ_10autumn_web3app14build_cron_jobpEB4_
FN:717,_RNCINvMs0_NtCs39mWnhFxKmJ_10autumn_web3appNtB8_10AppBuilder18with_config_loaderpE0Ba_
FN:742,_RNCINvMs0_NtCs39mWnhFxKmJ_10autumn_web3appNtB8_10AppBuilder18with_pool_providerpE0Ba_
FN:529,_RNCINvMs0_NtCs39mWnhFxKmJ_10autumn_web3appNtB8_10AppBuilder5layerpE0Ba_
FN:444,_RNCINvMs0_NtCs39mWnhFxKmJ_10autumn_web3appNtB8_10AppBuilder6scopedpE0Ba_
FN:718,_RNCNCINvMs0_NtCs39mWnhFxKmJ_10autumn_web3appNtBa_10AppBuilder18with_config_loaderpE00Bc_
FN:743,_RNCNCINvMs0_NtCs39mWnhFxKmJ_10autumn_web3appNtBa_10AppBuilder18with_pool_providerpE00Bc_
FN:1015,_RNCNCNCNvMs0_NtCs39mWnhFxKmJ_10autumn_web3appNtBb_10AppBuilder3run0s1_00Bd_
FN:1034,_RNCNCNCNvMs0_NtCs39mWnhFxKmJ_10autumn_web3appNtBb_10AppBuilder3run0s2_00Bd_
FN:1396,_RNCNCNCNvNtCs39mWnhFxKmJ_10autumn_web3app18register_cron_task000B9_
FN:1127,_RNCNCNvMs0_NtCs39mWnhFxKmJ_10autumn_web3appNtB9_10AppBuilder14run_build_mode00Bb_
FN:1161,_RNCNCNvMs0_NtCs39mWnhFxKmJ_10autumn_web3appNtB9_10AppBuilder14run_build_mode0s_0Bb_
FN:948,_RNCNCNvMs0_NtCs39mWnhFxKmJ_10autumn_web3appNtB9_10AppBuilder3run00Bb_
FN:1001,_RNCNCNvMs0_NtCs39mWnhFxKmJ_10autumn_web3appNtB9_10AppBuilder3run0s0_0Bb_
FN:1010,_RNCNCNvMs0_NtCs39mWnhFxKmJ_10autumn_web3appNtB9_10AppBuilder3run0s1_0Bb_
FN:1026,_RNCNCNvMs0_NtCs39mWnhFxKmJ_10autumn_web3appNtB9_10AppBuilder3run0s2_0Bb_
FN:1064,_RNCNCNvMs0_NtCs39mWnhFxKmJ_10autumn_web3appNtB9_10AppBuilder3run0s3_0Bb_
FN:1069,_RNCNCNvMs0_NtCs39mWnhFxKmJ_10autumn_web3appNtB9_10AppBuilder3run0s4_0Bb_
FN:991,_RNCNCNvMs0_NtCs39mWnhFxKmJ_10autumn_web3appNtB9_10AppBuilder3run0s_0Bb_
FN:1602,_RNCNCNvNtCs39mWnhFxKmJ_10autumn_web3app14setup_database00B7_
FN:1798,_RNCNCNvNtCs39mWnhFxKmJ_10autumn_web3app15shutdown_signal00B7_
FN:1806,_RNCNCNvNtCs39mWnhFxKmJ_10autumn_web3app15shutdown_signal0s_0B7_
FN:1393,_RNCNCNvNtCs39mWnhFxKmJ_10autumn_web3app18register_cron_task00B7_
FN:1566,_RNCNCNvNtCs39mWnhFxKmJ_10autumn_web3app25load_config_and_telemetry00B7_
FN:1577,_RNCNCNvNtCs39mWnhFxKmJ_10autumn_web3app25load_config_and_telemetry0s0_0B7_
FN:1574,_RNCNCNvNtCs39mWnhFxKmJ_10autumn_web3app25load_config_and_telemetry0s_0B7_
FN:1082,_RNCNvMs0_NtCs39mWnhFxKmJ_10autumn_web3appNtB7_10AppBuilder14run_build_mode0B9_
FN:881,_RNCNvMs0_NtCs39mWnhFxKmJ_10autumn_web3appNtB7_10AppBuilder3run0B9_
FN:1593,_RNCNvNtCs39mWnhFxKmJ_10autumn_web3app14setup_database0B5_
FN:1797,_RNCNvNtCs39mWnhFxKmJ_10autumn_web3app15shutdown_signal0B5_
FN:1346,_RNCNvNtCs39mWnhFxKmJ_10autumn_web3app17execute_cron_task0B5_
FN:1389,_RNCNvNtCs39mWnhFxKmJ_10autumn_web3app18register_cron_task0B5_
FN:1446,_RNCNvNtCs39mWnhFxKmJ_10autumn_web3app18run_cron_scheduler0B5_
FN:1416,_RNCNvNtCs39mWnhFxKmJ_10autumn_web3app20setup_cron_scheduler0B5_
FN:1223,_RNCNvNtCs39mWnhFxKmJ_10autumn_web3app20start_task_scheduler0B5_
FN:1242,_RNCNvNtCs39mWnhFxKmJ_10autumn_web3app20start_task_schedulers_0B5_
FN:1309,_RNCNvNtCs39mWnhFxKmJ_10autumn_web3app24execute_fixed_delay_task0B5_
FN:1559,_RNCNvNtCs39mWnhFxKmJ_10autumn_web3app25load_config_and_telemetry0B5_
FN:855,_RNvMs0_NtCs39mWnhFxKmJ_10autumn_web3appNtB5_10AppBuilder10migrations
FN:1082,_RNvMs0_NtCs39mWnhFxKmJ_10autumn_web3appNtB5_10AppBuilder14run_build_mode
FN:881,_RNvMs0_NtCs39mWnhFxKmJ_10autumn_web3appNtB5_10AppBuilder3run
FN:609,_RNvMs0_NtCs39mWnhFxKmJ_10autumn_web3appNtB5_10AppBuilder4nest
FN:571,_RNvMs0_NtCs39mWnhFxKmJ_10autumn_web3appNtB5_10AppBuilder5merge
FN:310,_RNvMs0_NtCs39mWnhFxKmJ_10autumn_web3appNtB5_10AppBuilder5tasks
FN:1624,_RNvNtCs39mWnhFxKmJ_10autumn_web3app11build_state
FN:1586,_RNvNtCs39mWnhFxKmJ_10autumn_web3app14setup_database
FN:1797,_RNvNtCs39mWnhFxKmJ_10autumn_web3app15shutdown_signal
FN:1346,_RNvNtCs39mWnhFxKmJ_10autumn_web3app17execute_cron_task
FN:1382,_RNvNtCs39mWnhFxKmJ_10autumn_web3app18register_cron_task
FN:1442,_RNvNtCs39mWnhFxKmJ_10autumn_web3app18run_cron_scheduler
FN:1249,_RNvNtCs39mWnhFxKmJ_10autumn_web3app20send_ws_sys_task_msg
FN:1413,_RNvNtCs39mWnhFxKmJ_10autumn_web3app20setup_cron_scheduler
FN:1198,_RNvNtCs39mWnhFxKmJ_10autumn_web3app20start_task_scheduler
FN:1305,_RNvNtCs39mWnhFxKmJ_10autumn_web3app24execute_fixed_delay_task
FN:1556,_RNvNtCs39mWnhFxKmJ_10autumn_web3app25load_config_and_telemetry
FN:1546,_RNvNtCs39mWnhFxKmJ_10autumn_web3app35fail_fast_on_invalid_session_config
FN:271,_RNvXININtCs39mWnhFxKmJ_10autumn_web3apps_0pEpNtB5_12IntoAppLayer8apply_toB7_
FN:826,_RNvMs0_NtCs39mWnhFxKmJ_10autumn_web3appNtB5_10AppBuilder10has_plugin
FN:320,_RNvMs0_NtCs39mWnhFxKmJ_10autumn_web3appNtB5_10AppBuilder13static_routes
FN:299,_RNvMs0_NtCs39mWnhFxKmJ_10autumn_web3appNtB5_10AppBuilder6routes
FN:1786,_RNvNtCs39mWnhFxKmJ_10autumn_web3app11project_dir
FN:1697,_RNvNtCs39mWnhFxKmJ_10autumn_web3app17format_task_lines
FN:1731,_RNvNtCs39mWnhFxKmJ_10autumn_web3app17mask_database_url
FN:1494,_RNvNtCs39mWnhFxKmJ_10autumn_web3app17run_startup_hooks
FN:1650,_RNvNtCs39mWnhFxKmJ_10autumn_web3app18format_route_lines
FN:1501,_RNvNtCs39mWnhFxKmJ_10autumn_web3app18run_shutdown_hooks
FN:1278,_RNvNtCs39mWnhFxKmJ_10autumn_web3app19execute_task_result
FN:1186,_RNvNtCs39mWnhFxKmJ_10autumn_web3app20is_static_build_mode
FN:1746,_RNvNtCs39mWnhFxKmJ_10autumn_web3app21format_config_summary
FN:1713,_RNvNtCs39mWnhFxKmJ_10autumn_web3app22format_middleware_list
FN:1514,_RNvNtCs39mWnhFxKmJ_10autumn_web3app24log_startup_transparency
FN:68,_RNvNtCs39mWnhFxKmJ_10autumn_web3app3app
FN:620,_RINvMs0_NtCs39mWnhFxKmJ_10autumn_web3appNtB6_10AppBuilder10on_startupNCNCNvNtB6_5testss_29startup_hook_errors_propagate00NCNCB17_00EB8_
FN:620,_RINvMs0_NtCs39mWnhFxKmJ_10autumn_web3appNtB6_10AppBuilder10on_startupNCNCNvNtB6_5testss_48startup_and_shutdown_hooks_run_in_expected_order00NCNCB17_00EB8_
FN:635,_RINvMs0_NtCs39mWnhFxKmJ_10autumn_web3appNtB6_10AppBuilder11on_shutdownNCNCNvNtB6_5testss_48startup_and_shutdown_hooks_run_in_expected_order0s0_0NCNCB18_s0_00EB8_
FN:635,_RINvMs0_NtCs39mWnhFxKmJ_10autumn_web3appNtB6_10AppBuilder11on_shutdownNCNCNvNtB6_5testss_48startup_and_shutdown_hooks_run_in_expected_order0s_0NCNCB18_s_00EB8_
FN:649,_RINvMs0_NtCs39mWnhFxKmJ_10autumn_web3appNtB6_10AppBuilder14with_extensionNtNtCsauO83Ko6oyK_5alloc6string6StringEB8_
FN:665,_RINvMs0_NtCs39mWnhFxKmJ_10autumn_web3appNtB6_10AppBuilder16update_extensionNtNtCsauO83Ko6oyK_5alloc6string6StringNvMB1d_B1b_3newNCNvNtB6_5testss_52app_builder_extensions_store_and_update_typed_values0EB8_
FN:797,_RINvMs0_NtCs39mWnhFxKmJ_10autumn_web3appNtB6_10AppBuilder6pluginNtNtNtB8_6plugin5tests10ColaPluginEB8_
FN:797,_RINvMs0_NtCs39mWnhFxKmJ_10autumn_web3appNtB6_10AppBuilder6pluginNtNtNtB8_6plugin5tests11PepsiPluginEB8_
FN:797,_RINvMs0_NtCs39mWnhFxKmJ_10autumn_web3appNtB6_10AppBuilder6pluginNtNtNtB8_6plugin5tests15RecordingPluginEB8_
FN:816,_RINvMs0_NtCs39mWnhFxKmJ_10autumn_web3appNtB6_10AppBuilder7pluginsTNtNtNtB8_6plugin5tests10ColaPluginNtB14_11PepsiPluginEEB8_
FN:685,_RINvMs0_NtCs39mWnhFxKmJ_10autumn_web3appNtB6_10AppBuilder9extensionNtNtCsauO83Ko6oyK_5alloc6string6StringEB8_
FN:626,_RNCINvMs0_NtCs39mWnhFxKmJ_10autumn_web3appNtB8_10AppBuilder10on_startupNCNCNvNtB8_5testss_29startup_hook_errors_propagate00NCNCB19_00E0Ba_
FN:626,_RNCINvMs0_NtCs39mWnhFxKmJ_10autumn_web3appNtB8_10AppBuilder10on_startupNCNCNvNtB8_5testss_48startup_and_shutdown_hooks_run_in_expected_order00NCNCB19_00E0Ba_
FN:640,_RNCINvMs0_NtCs39mWnhFxKmJ_10autumn_web3appNtB8_10AppBuilder11on_shutdownNCNCNvNtB8_5testss_48startup_and_shutdown_hooks_run_in_expected_order0s0_0NCNCB1a_s0_00E0Ba_
FN:640,_RNCINvMs0_NtCs39mWnhFxKmJ_10autumn_web3appNtB8_10AppBuilder11on_shutdownNCNCNvNtB8_5testss_48startup_and_shutdown_hooks_run_in_expected_order0s_0NCNCB1a_s_00E0Ba_
FN:675,_RNCINvMs0_NtCs39mWnhFxKmJ_10autumn_web3appNtB8_10AppBuilder16update_extensionNtNtCsauO83Ko6oyK_5alloc6string6StringNvMB1f_B1d_3newNCNvNtB8_5testss_52app_builder_extensions_store_and_update_typed_values0E0Ba_
FN:1788,_RNCNvNtCs39mWnhFxKmJ_10autumn_web3app11project_dir0B5_
FN:1789,_RNCNvNtCs39mWnhFxKmJ_10autumn_web3app11project_dirs_0B5_
FN:1494,_RNCNvNtCs39mWnhFxKmJ_10autumn_web3app17run_startup_hooks0B5_
FN:1501,_RNCNvNtCs39mWnhFxKmJ_10autumn_web3app18run_shutdown_hooks0B5_
FN:1284,_RNCNvNtCs39mWnhFxKmJ_10autumn_web3app19execute_task_result0B5_
FN:1749,_RNCNvNtCs39mWnhFxKmJ_10autumn_web3app21format_config_summary0B5_
FN:1750,_RNCNvNtCs39mWnhFxKmJ_10autumn_web3app21format_config_summarys_0B5_
FN:1831,_RNvNtNtCs39mWnhFxKmJ_10autumn_web3app5tests11test_router
FN:1856,_RNvNtNtCs39mWnhFxKmJ_10autumn_web3app5tests14test_get_route
FN:2570,_RNvNtNtCs39mWnhFxKmJ_10autumn_web3app5tests23test_router_with_config
FN:2822,_RNvNtNtCs39mWnhFxKmJ_10autumn_web3app5testss_22format_task_lines_cron
FN:2075,_RNvNtNtCs39mWnhFxKmJ_10autumn_web3app5testss_23build_router_post_route
FN:2674,_RNvNtNtCs39mWnhFxKmJ_10autumn_web3app5testss_26cors_preflight_returns_204
FN:2250,_RNvNtNtCs39mWnhFxKmJ_10autumn_web3app5testss_27build_router_serves_htmx_js
FN:2057,_RNvNtNtCs39mWnhFxKmJ_10autumn_web3app5testss_28build_router_multiple_routes
FN:2887,_RNvNtNtCs39mWnhFxKmJ_10autumn_web3app5testss_28mask_database_url_edge_cases
FN:2648,_RNvNtNtCs39mWnhFxKmJ_10autumn_web3app5testss_29cors_disabled_when_no_origins
FN:2926,_RNvNtNtCs39mWnhFxKmJ_10autumn_web3app5testss_29format_config_summary_with_db
FN:2811,_RNvNtNtCs39mWnhFxKmJ_10autumn_web3app5testss_29format_task_lines_fixed_delay
FN:1942,_RNvNtNtCs39mWnhFxKmJ_10autumn_web3app5testss_29startup_hook_errors_propagate
FN:1866,_RNvNtNtCs39mWnhFxKmJ_10autumn_web3app5testss_30app_builder_routes_adds_routes
FN:2621,_RNvNtNtCs39mWnhFxKmJ_10autumn_web3app5testss_30cors_specific_origin_reflected
FN:2914,_RNvNtNtCs39mWnhFxKmJ_10autumn_web3app5testss_30format_config_summary_defaults
FN:2836,_RNvNtNtCs39mWnhFxKmJ_10autumn_web3app5testss_30format_middleware_list_default
FN:2561,_RNvNtNtCs39mWnhFxKmJ_10autumn_web3app5testss_30project_dir_defaults_to_subdir
FN:1956,_RNvNtNtCs39mWnhFxKmJ_10autumn_web3app5testss_31build_router_mounts_user_routes
FN:2594,_RNvNtNtCs39mWnhFxKmJ_10autumn_web3app5testss_31cors_wildcard_allows_any_origin
FN:2870,_RNvNtNtCs39mWnhFxKmJ_10autumn_web3app5testss_31mask_database_url_with_password
FN:2548,_RNvNtNtCs39mWnhFxKmJ_10autumn_web3app5testss_33app_builder_accepts_static_routes
FN:2806,_RNvNtNtCs39mWnhFxKmJ_10autumn_web3app5testss_33format_task_lines_none_when_empty
FN:2982,_RNvNtNtCs39mWnhFxKmJ_10autumn_web3app5testss_33log_startup_transparency_no_tasks
FN:2744,_RNvNtNtCs39mWnhFxKmJ_10autumn_web3app5testss_34build_router_with_static_none_dist
FN:2942,_RNvNtNtCs39mWnhFxKmJ_10autumn_web3app5testss_34format_config_summary_with_profile
FN:2879,_RNvNtNtCs39mWnhFxKmJ_10autumn_web3app5testss_34mask_database_url_without_password
FN:2033,_RNvNtNtCs39mWnhFxKmJ_10autumn_web3app5testss_35build_router_adds_request_id_header
FN:2952,_RNvNtNtCs39mWnhFxKmJ_10autumn_web3app5testss_36format_config_summary_with_telemetry
FN:2783,_RNvNtNtCs39mWnhFxKmJ_10autumn_web3app5testss_36format_route_lines_lists_user_routes
FN:2045,_RNvNtNtCs39mWnhFxKmJ_10autumn_web3app5testss_38build_router_unknown_route_returns_404
FN:2906,_RNvNtNtCs39mWnhFxKmJ_10autumn_web3app5testss_38mask_database_url_invalid_url_fallback
FN:3103,_RNvNtNtCs39mWnhFxKmJ_10autumn_web3app5testss_39execute_task_result_ok_returns_duration
FN:2119,_RNvNtNtCs39mWnhFxKmJ_10autumn_web3app5testss_40build_router_merges_methods_on_same_path
FN:2849,_RNvNtNtCs39mWnhFxKmJ_10autumn_web3app5testss_41format_middleware_list_with_cors_and_csrf
FN:2967,_RNvNtNtCs39mWnhFxKmJ_10autumn_web3app5testss_43log_startup_transparency_runs_without_panic
FN:1994,_RNvNtNtCs39mWnhFxKmJ_10autumn_web3app5testss_47build_router_mounts_health_check_at_custom_path
FN:2701,_RNvNtNtCs39mWnhFxKmJ_10autumn_web3app5testss_47build_router_with_static_skips_without_manifest
FN:1972,_RNvNtNtCs39mWnhFxKmJ_10autumn_web3app5testss_48build_router_mounts_health_check_at_default_path
FN:1897,_RNvNtNtCs39mWnhFxKmJ_10autumn_web3app5testss_48startup_and_shutdown_hooks_run_in_expected_order
FN:1885,_RNvNtNtCs39mWnhFxKmJ_10autumn_web3app5testss_52app_builder_extensions_store_and_update_typed_values
FN:2345,_RNvNtNtCs39mWnhFxKmJ_10autumn_web3app5testss_52build_mode_static_rendering_bypasses_startup_barrier
FN:2382,_RNvNtNtCs39mWnhFxKmJ_10autumn_web3app5testss_52build_router_injects_live_reload_script_when_enabled
FN:2466,_RNvNtNtCs39mWnhFxKmJ_10autumn_web3app5testss_52build_router_mounts_dev_reload_endpoint_when_enabled
FN:2274,_RNvNtNtCs39mWnhFxKmJ_10autumn_web3app5testss_52build_router_serves_static_files_for_unmatched_paths
FN:3115,_RNvNtNtCs39mWnhFxKmJ_10autumn_web3app5testss_52execute_task_result_err_returns_duration_and_message
FN:2193,_RNvNtNtCs39mWnhFxKmJ_10autumn_web3app5testss_52htmx_handler_returns_javascript_with_correct_headers
FN:2419,_RNvNtNtCs39mWnhFxKmJ_10autumn_web3app5testss_59build_router_mounts_dev_reload_script_endpoint_when_enabled
FN:2797,_RNvNtNtCs39mWnhFxKmJ_10autumn_web3app5testss_60config_runtime_drift_format_route_lines_uses_actuator_prefix
FN:2505,_RNvNtNtCs39mWnhFxKmJ_10autumn_web3app5testss_64build_router_disables_cache_for_static_assets_in_dev_reload_mode
FN:2353,_RNCNCNCNCNvNtNtCs39mWnhFxKmJ_10autumn_web3app5testss_52build_mode_static_rendering_bypasses_startup_barrier0000Bd_
FN:2397,_RNCNCNCNCNvNtNtCs39mWnhFxKmJ_10autumn_web3app5testss_52build_router_injects_live_reload_script_when_enabled0000Bd_
FN:2079,_RNCNCNCNvNtNtCs39mWnhFxKmJ_10autumn_web3app5testss_23build_router_post_route000Bb_
FN:1943,_RNCNCNCNvNtNtCs39mWnhFxKmJ_10autumn_web3app5testss_29startup_hook_errors_propagate000Bb_
FN:3105,_RNCNCNCNvNtNtCs39mWnhFxKmJ_10autumn_web3app5testss_39execute_task_result_ok_returns_duration000Bb_
FN:2124,_RNCNCNCNvNtNtCs39mWnhFxKmJ_10autumn_web3app5testss_40build_router_merges_methods_on_same_path000Bb_
FN:2130,_RNCNCNCNvNtNtCs39mWnhFxKmJ_10autumn_web3app5testss_40build_router_merges_methods_on_same_path0s_00Bb_
FN:1905,_RNCNCNCNvNtNtCs39mWnhFxKmJ_10autumn_web3app5testss_48startup_and_shutdown_hooks_run_in_expected_order000Bb_
FN:1924,_RNCNCNCNvNtNtCs39mWnhFxKmJ_10autumn_web3app5testss_48startup_and_shutdown_hooks_run_in_expected_order0s0_00Bb_
FN:1915,_RNCNCNCNvNtNtCs39mWnhFxKmJ_10autumn_web3app5testss_48startup_and_shutdown_hooks_run_in_expected_order0s_00Bb_
FN:2353,_RNCNCNCNvNtNtCs39mWnhFxKmJ_10autumn_web3app5testss_52build_mode_static_rendering_bypasses_startup_barrier000Bb_
FN:2399,_RNCNCNCNvNtNtCs39mWnhFxKmJ_10autumn_web3app5testss_52build_router_injects_live_reload_script_when_enabled000Bb_
FN:3118,_RNCNCNCNvNtNtCs39mWnhFxKmJ_10autumn_web3app5testss_52execute_task_result_err_returns_duration_and_message000Bb_
FN:2452,_RNCNCNCNvNtNtCs39mWnhFxKmJ_10autumn_web3app5testss_59build_router_mounts_dev_reload_script_endpoint_when_enabled000Bb_
FN:1860,_RNCNCNvNtNtCs39mWnhFxKmJ_10autumn_web3app5tests14test_get_route00B9_
FN:2829,_RNCNCNvNtNtCs39mWnhFxKmJ_10autumn_web3app5testss_22format_task_lines_cron00B9_
FN:2079,_RNCNCNvNtNtCs39mWnhFxKmJ_10autumn_web3app5testss_23build_router_post_route00B9_
FN:2815,_RNCNCNvNtNtCs39mWnhFxKmJ_10autumn_web3app5testss_29format_task_lines_fixed_delay00B9_
FN:1947,_RNCNCNvNtNtCs39mWnhFxKmJ_10autumn_web3app5testss_29startup_hook_errors_propagate00B9_
FN:3105,_RNCNCNvNtNtCs39mWnhFxKmJ_10autumn_web3app5testss_39execute_task_result_ok_returns_duration00B9_
FN:2124,_RNCNCNvNtNtCs39mWnhFxKmJ_10autumn_web3app5testss_40build_router_merges_methods_on_same_path00B9_
FN:2130,_RNCNCNvNtNtCs39mWnhFxKmJ_10autumn_web3app5testss_40build_router_merges_methods_on_same_path0s_0B9_
FN:2975,_RNCNCNvNtNtCs39mWnhFxKmJ_10autumn_web3app5testss_43log_startup_transparency_runs_without_panic00B9_
FN:1903,_RNCNCNvNtNtCs39mWnhFxKmJ_10autumn_web3app5testss_48startup_and_shutdown_hooks_run_in_expected_order00B9_
FN:1922,_RNCNCNvNtNtCs39mWnhFxKmJ_10autumn_web3app5testss_48startup_and_shutdown_hooks_run_in_expected_order0s0_0B9_
FN:1913,_RNCNCNvNtNtCs39mWnhFxKmJ_10autumn_web3app5testss_48startup_and_shutdown_hooks_run_in_expected_order0s_0B9_
FN:2346,_RNCNCNvNtNtCs39mWnhFxKmJ_10autumn_web3app5testss_52build_mode_static_rendering_bypasses_startup_barrier00B9_
FN:2393,_RNCNCNvNtNtCs39mWnhFxKmJ_10autumn_web3app5testss_52build_router_injects_live_reload_script_when_enabled00B9_
FN:2477,_RNCNCNvNtNtCs39mWnhFxKmJ_10autumn_web3app5testss_52build_router_mounts_dev_reload_endpoint_when_enabled00B9_
FN:3118,_RNCNCNvNtNtCs39mWnhFxKmJ_10autumn_web3app5testss_52execute_task_result_err_returns_duration_and_message00B9_
FN:2434,_RNCNCNvNtNtCs39mWnhFxKmJ_10autumn_web3app5testss_59build_router_mounts_dev_reload_script_endpoint_when_enabled00B9_
FN:2524,_RNCNCNvNtNtCs39mWnhFxKmJ_10autumn_web3app5testss_64build_router_disables_cache_for_static_assets_in_dev_reload_mode00B9_
FN:1860,_RNCNvNtNtCs39mWnhFxKmJ_10autumn_web3app5tests14test_get_route0B7_
FN:2829,_RNCNvNtNtCs39mWnhFxKmJ_10autumn_web3app5testss_22format_task_lines_cron0B7_
FN:2075,_RNCNvNtNtCs39mWnhFxKmJ_10autumn_web3app5testss_23build_router_post_route0B7_
FN:2674,_RNCNvNtNtCs39mWnhFxKmJ_10autumn_web3app5testss_26cors_preflight_returns_2040B7_
FN:2250,_RNCNvNtNtCs39mWnhFxKmJ_10autumn_web3app5testss_27build_router_serves_htmx_js0B7_
FN:2057,_RNCNvNtNtCs39mWnhFxKmJ_10autumn_web3app5testss_28build_router_multiple_routes0B7_
FN:2648,_RNCNvNtNtCs39mWnhFxKmJ_10autumn_web3app5testss_29cors_disabled_when_no_origins0B7_
FN:2815,_RNCNvNtNtCs39mWnhFxKmJ_10autumn_web3app5testss_29format_task_lines_fixed_delay0B7_
FN:1942,_RNCNvNtNtCs39mWnhFxKmJ_10autumn_web3app5testss_29startup_hook_errors_propagate0B7_
FN:2621,_RNCNvNtNtCs39mWnhFxKmJ_10autumn_web3app5testss_30cors_specific_origin_reflected0B7_
FN:1956,_RNCNvNtNtCs39mWnhFxKmJ_10autumn_web3app5testss_31build_router_mounts_user_routes0B7_
FN:2594,_RNCNvNtNtCs39mWnhFxKmJ_10autumn_web3app5testss_31cors_wildcard_allows_any_origin0B7_
FN:2744,_RNCNvNtNtCs39mWnhFxKmJ_10autumn_web3app5testss_34build_router_with_static_none_dist0B7_
FN:2033,_RNCNvNtNtCs39mWnhFxKmJ_10autumn_web3app5testss_35build_router_adds_request_id_header0B7_
FN:2045,_RNCNvNtNtCs39mWnhFxKmJ_10autumn_web3app5testss_38build_router_unknown_route_returns_4040B7_
FN:3103,_RNCNvNtNtCs39mWnhFxKmJ_10autumn_web3app5testss_39execute_task_result_ok_returns_duration0B7_
FN:2119,_RNCNvNtNtCs39mWnhFxKmJ_10autumn_web3app5testss_40build_router_merges_methods_on_same_path0B7_
FN:2975,_RNCNvNtNtCs39mWnhFxKmJ_10autumn_web3app5testss_43log_startup_transparency_runs_without_panic0B7_
FN:1994,_RNCNvNtNtCs39mWnhFxKmJ_10autumn_web3app5testss_47build_router_mounts_health_check_at_custom_path0B7_
FN:2701,_RNCNvNtNtCs39mWnhFxKmJ_10autumn_web3app5testss_47build_router_with_static_skips_without_manifest0B7_
FN:1972,_RNCNvNtNtCs39mWnhFxKmJ_10autumn_web3app5testss_48build_router_mounts_health_check_at_default_path0B7_
FN:1897,_RNCNvNtNtCs39mWnhFxKmJ_10autumn_web3app5testss_48startup_and_shutdown_hooks_run_in_expected_order0B7_
FN:1888,_RNCNvNtNtCs39mWnhFxKmJ_10autumn_web3app5testss_52app_builder_extensions_store_and_update_typed_values0B7_
FN:2345,_RNCNvNtNtCs39mWnhFxKmJ_10autumn_web3app5testss_52build_mode_static_rendering_bypasses_startup_barrier0B7_
FN:2382,_RNCNvNtNtCs39mWnhFxKmJ_10autumn_web3app5testss_52build_router_injects_live_reload_script_when_enabled0B7_
FN:2466,_RNCNvNtNtCs39mWnhFxKmJ_10autumn_web3app5testss_52build_router_mounts_dev_reload_endpoint_when_enabled0B7_
FN:2274,_RNCNvNtNtCs39mWnhFxKmJ_10autumn_web3app5testss_52build_router_serves_static_files_for_unmatched_paths0B7_
FN:3115,_RNCNvNtNtCs39mWnhFxKmJ_10autumn_web3app5testss_52execute_task_result_err_returns_duration_and_message0B7_
FN:2193,_RNCNvNtNtCs39mWnhFxKmJ_10autumn_web3app5testss_52htmx_handler_returns_javascript_with_correct_headers0B7_
FN:2419,_RNCNvNtNtCs39mWnhFxKmJ_10autumn_web3app5testss_59build_router_mounts_dev_reload_script_endpoint_when_enabled0B7_
FN:2505,_RNCNvNtNtCs39mWnhFxKmJ_10autumn_web3app5testss_64build_router_disables_cache_for_static_assets_in_dev_reload_mode0B7_
FN:271,_RNvXs_NtCslNlzF6u6e2e_10autumn_web3appNtCs95ch7NHVUcv_12custom_layer12PendingLayerNtB4_12IntoAppLayer8apply_toBC_
FN:271,_RNvXs_NtCslNlzF6u6e2e_10autumn_web3appNtCs95ch7NHVUcv_12custom_layer14CaptureIdLayerNtB4_12IntoAppLayer8apply_toBC_
FN:271,_RNvXs_NtCslNlzF6u6e2e_10autumn_web3appINtNtCs524LpGUut0J_5tower7builder14ServiceBuilderINtNtCscMAT8yzRe8V_11tower_layer5stack5StackNtNtNtBF_7timeout5layer12TimeoutLayerIB1o_INtNtCs2SFNBOiMNMK_4axum14error_handling16HandleErrorLayerNCNCNvCs95ch7NHVUcv_12custom_layers_32timeout_layer_one_liner_triggers00uENtNtB1s_8identity8IdentityEEENtB4_12IntoAppLayer8apply_toB3N_
FN:357,_RINvMs0_NtCslNlzF6u6e2e_10autumn_web3appNtB6_10AppBuilder16exception_filterNtNvCsioC65L6WwC5_19middleware_pipelines_37app_builder_exception_filter_compiles10NoopFilterEB1f_
FN:427,_RINvMs0_NtCslNlzF6u6e2e_10autumn_web3appNtB6_10AppBuilder6scopedNtCsioC65L6WwC5_19middleware_pipeline14AddHeaderLayerEB12_
FN:444,_RNCINvMs0_NtCslNlzF6u6e2e_10autumn_web3appNtB8_10AppBuilder6scopedNtCsioC65L6WwC5_19middleware_pipeline14AddHeaderLayerE0B14_
FNDA:0,_RNCNCNCNvMs0_NtCslNlzF6u6e2e_10autumn_web3appNtBb_10AppBuilder3run0s1_00Cs9uppY7VoQWl_11app_builder
FNDA:0,_RNCNCNCNvMs0_NtCslNlzF6u6e2e_10autumn_web3appNtBb_10AppBuilder3run0s2_00Cs9uppY7VoQWl_11app_builder
FNDA:0,_RNCNCNvMs0_NtCslNlzF6u6e2e_10autumn_web3appNtB9_10AppBuilder14run_build_mode00Cs9uppY7VoQWl_11app_builder
FNDA:0,_RNCNCNvMs0_NtCslNlzF6u6e2e_10autumn_web3appNtB9_10AppBuilder14run_build_mode0s_0Cs9uppY7VoQWl_11app_builder
FNDA:0,_RNCNCNvMs0_NtCslNlzF6u6e2e_10autumn_web3appNtB9_10AppBuilder3run00Cs9uppY7VoQWl_11app_builder
FNDA:0,_RNCNCNvMs0_NtCslNlzF6u6e2e_10autumn_web3appNtB9_10AppBuilder3run0s0_0Cs9uppY7VoQWl_11app_builder
FNDA:0,_RNCNCNvMs0_NtCslNlzF6u6e2e_10autumn_web3appNtB9_10AppBuilder3run0s1_0Cs9uppY7VoQWl_11app_builder
FNDA:0,_RNCNCNvMs0_NtCslNlzF6u6e2e_10autumn_web3appNtB9_10AppBuilder3run0s2_0Cs9uppY7VoQWl_11app_builder
FNDA:0,_RNCNCNvMs0_NtCslNlzF6u6e2e_10autumn_web3appNtB9_10AppBuilder3run0s3_0Cs9uppY7VoQWl_11app_builder
FNDA:0,_RNCNCNvMs0_NtCslNlzF6u6e2e_10autumn_web3appNtB9_10AppBuilder3run0s4_0Cs9uppY7VoQWl_11app_builder
FNDA:0,_RNCNCNvMs0_NtCslNlzF6u6e2e_10autumn_web3appNtB9_10AppBuilder3run0s_0Cs9uppY7VoQWl_11app_builder
FNDA:0,_RNCNCNvNtCslNlzF6u6e2e_10autumn_web3app14setup_database00Cs9uppY7VoQWl_11app_builder
FNDA:0,_RNCNCNvNtCslNlzF6u6e2e_10autumn_web3app15shutdown_signal00Cs9uppY7VoQWl_11app_builder
FNDA:0,_RNCNCNvNtCslNlzF6u6e2e_10autumn_web3app15shutdown_signal0s_0Cs9uppY7VoQWl_11app_builder
FNDA:0,_RNCNCNvNtCslNlzF6u6e2e_10autumn_web3app25load_config_and_telemetry00Cs9uppY7VoQWl_11app_builder
FNDA:0,_RNCNCNvNtCslNlzF6u6e2e_10autumn_web3app25load_config_and_telemetry0s0_0Cs9uppY7VoQWl_11app_builder
FNDA:1,_RNCNCNvNtCslNlzF6u6e2e_10autumn_web3app25load_config_and_telemetry0s_0Cs9uppY7VoQWl_11app_builder
FNDA:0,_RNCNvMs0_NtCslNlzF6u6e2e_10autumn_web3appNtB7_10AppBuilder14run_build_mode0Cs9uppY7VoQWl_11app_builder
FNDA:1,_RNCNvMs0_NtCslNlzF6u6e2e_10autumn_web3appNtB7_10AppBuilder3run0Cs9uppY7VoQWl_11app_builder
FNDA:0,_RNCNvNtCslNlzF6u6e2e_10autumn_web3app14setup_database0Cs9uppY7VoQWl_11app_builder
FNDA:0,_RNCNvNtCslNlzF6u6e2e_10autumn_web3app15shutdown_signal0Cs9uppY7VoQWl_11app_builder
FNDA:0,_RNCNvNtCslNlzF6u6e2e_10autumn_web3app17run_startup_hooks0Cs9uppY7VoQWl_11app_builder
FNDA:0,_RNCNvNtCslNlzF6u6e2e_10autumn_web3app18run_shutdown_hooks0Cs9uppY7VoQWl_11app_builder
FNDA:1,_RNCNvNtCslNlzF6u6e2e_10autumn_web3app25load_config_and_telemetry0Cs9uppY7VoQWl_11app_builder
FNDA:0,_RINvNtCslNlzF6u6e2e_10autumn_web3app14build_cron_jobNCNCNvB2_18register_cron_task00EB4_
FNDA:0,_RNCNCNCNvNtCslNlzF6u6e2e_10autumn_web3app18register_cron_task000B9_
FNDA:0,_RNCNCNvNtCslNlzF6u6e2e_10autumn_web3app18register_cron_task00B7_
FNDA:33,_RNCNvNtCslNlzF6u6e2e_10autumn_web3app11project_dir0B5_
FNDA:0,_RNCNvNtCslNlzF6u6e2e_10autumn_web3app11project_dirs_0B5_
FNDA:0,_RNCNvNtCslNlzF6u6e2e_10autumn_web3app17execute_cron_task0B5_
FNDA:0,_RNCNvNtCslNlzF6u6e2e_10autumn_web3app18register_cron_task0B5_
FNDA:0,_RNCNvNtCslNlzF6u6e2e_10autumn_web3app18run_cron_scheduler0B5_
FNDA:0,_RNCNvNtCslNlzF6u6e2e_10autumn_web3app19execute_task_result0B5_
FNDA:0,_RNCNvNtCslNlzF6u6e2e_10autumn_web3app20setup_cron_scheduler0B5_
FNDA:0,_RNCNvNtCslNlzF6u6e2e_10autumn_web3app20start_task_scheduler0B5_
FNDA:0,_RNCNvNtCslNlzF6u6e2e_10autumn_web3app20start_task_schedulers_0B5_
FNDA:0,_RNCNvNtCslNlzF6u6e2e_10autumn_web3app21format_config_summary0B5_
FNDA:0,_RNCNvNtCslNlzF6u6e2e_10autumn_web3app21format_config_summarys_0B5_
FNDA:0,_RNCNvNtCslNlzF6u6e2e_10autumn_web3app24execute_fixed_delay_task0B5_
FNDA:0,_RINvMs0_NtCslNlzF6u6e2e_10autumn_web3appNtB6_10AppBuilder10on_startupppEB8_
FNDA:0,_RINvMs0_NtCslNlzF6u6e2e_10autumn_web3appNtB6_10AppBuilder11error_pagespEB8_
FNDA:0,_RINvMs0_NtCslNlzF6u6e2e_10autumn_web3appNtB6_10AppBuilder11on_shutdownppEB8_
FNDA:0,_RINvMs0_NtCslNlzF6u6e2e_10autumn_web3appNtB6_10AppBuilder14with_extensionpEB8_
FNDA:0,_RINvMs0_NtCslNlzF6u6e2e_10autumn_web3appNtB6_10AppBuilder16exception_filterpEB8_
FNDA:0,_RINvMs0_NtCslNlzF6u6e2e_10autumn_web3appNtB6_10AppBuilder16update_extensionpppEB8_
FNDA:0,_RINvMs0_NtCslNlzF6u6e2e_10autumn_web3appNtB6_10AppBuilder18with_config_loaderpEB8_
FNDA:0,_RINvMs0_NtCslNlzF6u6e2e_10autumn_web3appNtB6_10AppBuilder18with_pool_providerpEB8_
FNDA:0,_RINvMs0_NtCslNlzF6u6e2e_10autumn_web3appNtB6_10AppBuilder18with_session_storepEB8_
FNDA:0,_RINvMs0_NtCslNlzF6u6e2e_10autumn_web3appNtB6_10AppBuilder23with_telemetry_providerpEB8_
FNDA:0,_RINvMs0_NtCslNlzF6u6e2e_10autumn_web3appNtB6_10AppBuilder5layerpEB8_
FNDA:0,_RINvMs0_NtCslNlzF6u6e2e_10autumn_web3appNtB6_10AppBuilder6pluginpEB8_
FNDA:0,_RINvMs0_NtCslNlzF6u6e2e_10autumn_web3appNtB6_10AppBuilder6scopedpEB8_
FNDA:0,_RINvMs0_NtCslNlzF6u6e2e_10autumn_web3appNtB6_10AppBuilder7pluginspEB8_
FNDA:0,_RINvMs0_NtCslNlzF6u6e2e_10autumn_web3appNtB6_10AppBuilder9extensionpEB8_
FNDA:0,_RNCINvMs0_NtCslNlzF6u6e2e_10autumn_web3appNtB8_10AppBuilder10on_startupppE0Ba_
FNDA:0,_RNCINvMs0_NtCslNlzF6u6e2e_10autumn_web3appNtB8_10AppBuilder11on_shutdownppE0Ba_
FNDA:0,_RNCINvMs0_NtCslNlzF6u6e2e_10autumn_web3appNtB8_10AppBuilder16update_extensionpppE0Ba_
FNDA:0,_RNCINvMs0_NtCslNlzF6u6e2e_10autumn_web3appNtB8_10AppBuilder18with_config_loaderpE0Ba_
FNDA:0,_RNCINvMs0_NtCslNlzF6u6e2e_10autumn_web3appNtB8_10AppBuilder18with_pool_providerpE0Ba_
FNDA:0,_RNCINvMs0_NtCslNlzF6u6e2e_10autumn_web3appNtB8_10AppBuilder5layerpE0Ba_
FNDA:0,_RNCINvMs0_NtCslNlzF6u6e2e_10autumn_web3appNtB8_10AppBuilder6scopedpE0Ba_
FNDA:0,_RNCNCINvMs0_NtCslNlzF6u6e2e_10autumn_web3appNtBa_10AppBuilder18with_config_loaderpE00Bc_
FNDA:0,_RNCNCINvMs0_NtCslNlzF6u6e2e_10autumn_web3appNtBa_10AppBuilder18with_pool_providerpE00Bc_
FNDA:0,_RNCNCNCNvMs0_NtCslNlzF6u6e2e_10autumn_web3appNtBb_10AppBuilder3run0s1_00Bd_
FNDA:0,_RNCNCNCNvMs0_NtCslNlzF6u6e2e_10autumn_web3appNtBb_10AppBuilder3run0s2_00Bd_
FNDA:0,_RNCNCNvMs0_NtCslNlzF6u6e2e_10autumn_web3appNtB9_10AppBuilder14run_build_mode00Bb_
FNDA:0,_RNCNCNvMs0_NtCslNlzF6u6e2e_10autumn_web3appNtB9_10AppBuilder14run_build_mode0s_0Bb_
FNDA:0,_RNCNCNvMs0_NtCslNlzF6u6e2e_10autumn_web3appNtB9_10AppBuilder3run00Bb_
FNDA:0,_RNCNCNvMs0_NtCslNlzF6u6e2e_10autumn_web3appNtB9_10AppBuilder3run0s0_0Bb_
FNDA:0,_RNCNCNvMs0_NtCslNlzF6u6e2e_10autumn_web3appNtB9_10AppBuilder3run0s1_0Bb_
FNDA:0,_RNCNCNvMs0_NtCslNlzF6u6e2e_10autumn_web3appNtB9_10AppBuilder3run0s2_0Bb_
FNDA:0,_RNCNCNvMs0_NtCslNlzF6u6e2e_10autumn_web3appNtB9_10AppBuilder3run0s3_0Bb_
FNDA:0,_RNCNCNvMs0_NtCslNlzF6u6e2e_10autumn_web3appNtB9_10AppBuilder3run0s4_0Bb_
FNDA:0,_RNCNCNvMs0_NtCslNlzF6u6e2e_10autumn_web3appNtB9_10AppBuilder3run0s_0Bb_
FNDA:0,_RNCNCNvNtCslNlzF6u6e2e_10autumn_web3app14setup_database00B7_
FNDA:0,_RNCNCNvNtCslNlzF6u6e2e_10autumn_web3app15shutdown_signal00B7_
FNDA:0,_RNCNCNvNtCslNlzF6u6e2e_10autumn_web3app15shutdown_signal0s_0B7_
FNDA:0,_RNCNCNvNtCslNlzF6u6e2e_10autumn_web3app25load_config_and_telemetry00B7_
FNDA:0,_RNCNCNvNtCslNlzF6u6e2e_10autumn_web3app25load_config_and_telemetry0s0_0B7_
FNDA:0,_RNCNCNvNtCslNlzF6u6e2e_10autumn_web3app25load_config_and_telemetry0s_0B7_
FNDA:0,_RNCNvMs0_NtCslNlzF6u6e2e_10autumn_web3appNtB7_10AppBuilder14run_build_mode0B9_
FNDA:0,_RNCNvMs0_NtCslNlzF6u6e2e_10autumn_web3appNtB7_10AppBuilder3run0B9_
FNDA:0,_RNCNvNtCslNlzF6u6e2e_10autumn_web3app14setup_database0B5_
FNDA:0,_RNCNvNtCslNlzF6u6e2e_10autumn_web3app15shutdown_signal0B5_
FNDA:0,_RNCNvNtCslNlzF6u6e2e_10autumn_web3app17run_startup_hooks0B5_
FNDA:0,_RNCNvNtCslNlzF6u6e2e_10autumn_web3app18run_shutdown_hooks0B5_
FNDA:0,_RNCNvNtCslNlzF6u6e2e_10autumn_web3app25load_config_and_telemetry0B5_
FNDA:0,_RNvXININtCslNlzF6u6e2e_10autumn_web3apps_0pEpNtB5_12IntoAppLayer8apply_toB7_
FNDA:0,_RNvMs0_NtCslNlzF6u6e2e_10autumn_web3appNtB5_10AppBuilder10has_plugin
FNDA:0,_RNvMs0_NtCslNlzF6u6e2e_10autumn_web3appNtB5_10AppBuilder10migrations
FNDA:0,_RNvMs0_NtCslNlzF6u6e2e_10autumn_web3appNtB5_10AppBuilder13static_routes
FNDA:0,_RNvMs0_NtCslNlzF6u6e2e_10autumn_web3appNtB5_10AppBuilder14run_build_mode
FNDA:1,_RNvMs0_NtCslNlzF6u6e2e_10autumn_web3appNtB5_10AppBuilder3run
FNDA:0,_RNvMs0_NtCslNlzF6u6e2e_10autumn_web3appNtB5_10AppBuilder4nest
FNDA:0,_RNvMs0_NtCslNlzF6u6e2e_10autumn_web3appNtB5_10AppBuilder5merge
FNDA:0,_RNvMs0_NtCslNlzF6u6e2e_10autumn_web3appNtB5_10AppBuilder5tasks
FNDA:5,_RNvMs0_NtCslNlzF6u6e2e_10autumn_web3appNtB5_10AppBuilder6routes
FNDA:0,_RNvNtCslNlzF6u6e2e_10autumn_web3app11build_state
FNDA:33,_RNvNtCslNlzF6u6e2e_10autumn_web3app11project_dir
FNDA:0,_RNvNtCslNlzF6u6e2e_10autumn_web3app14setup_database
FNDA:0,_RNvNtCslNlzF6u6e2e_10autumn_web3app15shutdown_signal
FNDA:0,_RNvNtCslNlzF6u6e2e_10autumn_web3app17execute_cron_task
FNDA:0,_RNvNtCslNlzF6u6e2e_10autumn_web3app17format_task_lines
FNDA:0,_RNvNtCslNlzF6u6e2e_10autumn_web3app17mask_database_url
FNDA:0,_RNvNtCslNlzF6u6e2e_10autumn_web3app17run_startup_hooks
FNDA:0,_RNvNtCslNlzF6u6e2e_10autumn_web3app18format_route_lines
FNDA:0,_RNvNtCslNlzF6u6e2e_10autumn_web3app18register_cron_task
FNDA:0,_RNvNtCslNlzF6u6e2e_10autumn_web3app18run_cron_scheduler
FNDA:0,_RNvNtCslNlzF6u6e2e_10autumn_web3app18run_shutdown_hooks
FNDA:0,_RNvNtCslNlzF6u6e2e_10autumn_web3app19execute_task_result
FNDA:1,_RNvNtCslNlzF6u6e2e_10autumn_web3app20is_static_build_mode
FNDA:0,_RNvNtCslNlzF6u6e2e_10autumn_web3app20send_ws_sys_task_msg
FNDA:0,_RNvNtCslNlzF6u6e2e_10autumn_web3app20setup_cron_scheduler
FNDA:0,_RNvNtCslNlzF6u6e2e_10autumn_web3app20start_task_scheduler
FNDA:0,_RNvNtCslNlzF6u6e2e_10autumn_web3app21format_config_summary
FNDA:0,_RNvNtCslNlzF6u6e2e_10autumn_web3app22format_middleware_list
FNDA:0,_RNvNtCslNlzF6u6e2e_10autumn_web3app24execute_fixed_delay_task
FNDA:0,_RNvNtCslNlzF6u6e2e_10autumn_web3app24log_startup_transparency
FNDA:1,_RNvNtCslNlzF6u6e2e_10autumn_web3app25load_config_and_telemetry
FNDA:0,_RNvNtCslNlzF6u6e2e_10autumn_web3app35fail_fast_on_invalid_session_config
FNDA:5,_RNvNtCslNlzF6u6e2e_10autumn_web3app3app
FNDA:0,_RINvMs0_NtCs39mWnhFxKmJ_10autumn_web3appNtB6_10AppBuilder11error_pagespEB8_
FNDA:0,_RINvMs0_NtCs39mWnhFxKmJ_10autumn_web3appNtB6_10AppBuilder16exception_filterpEB8_
FNDA:0,_RINvMs0_NtCs39mWnhFxKmJ_10autumn_web3appNtB6_10AppBuilder18with_config_loaderpEB8_
FNDA:0,_RINvMs0_NtCs39mWnhFxKmJ_10autumn_web3appNtB6_10AppBuilder18with_pool_providerpEB8_
FNDA:0,_RINvMs0_NtCs39mWnhFxKmJ_10autumn_web3appNtB6_10AppBuilder18with_session_storepEB8_
FNDA:0,_RINvMs0_NtCs39mWnhFxKmJ_10autumn_web3appNtB6_10AppBuilder23with_telemetry_providerpEB8_
FNDA:0,_RINvMs0_NtCs39mWnhFxKmJ_10autumn_web3appNtB6_10AppBuilder5layerpEB8_
FNDA:0,_RINvMs0_NtCs39mWnhFxKmJ_10autumn_web3appNtB6_10AppBuilder6scopedpEB8_
FNDA:0,_RINvNtCs39mWnhFxKmJ_10autumn_web3app14build_cron_jobpEB4_
FNDA:0,_RNCINvMs0_NtCs39mWnhFxKmJ_10autumn_web3appNtB8_10AppBuilder18with_config_loaderpE0Ba_
FNDA:0,_RNCINvMs0_NtCs39mWnhFxKmJ_10autumn_web3appNtB8_10AppBuilder18with_pool_providerpE0Ba_
FNDA:0,_RNCINvMs0_NtCs39mWnhFxKmJ_10autumn_web3appNtB8_10AppBuilder5layerpE0Ba_
FNDA:0,_RNCINvMs0_NtCs39mWnhFxKmJ_10autumn_web3appNtB8_10AppBuilder6scopedpE0Ba_
FNDA:0,_RNCNCINvMs0_NtCs39mWnhFxKmJ_10autumn_web3appNtBa_10AppBuilder18with_config_loaderpE00Bc_
FNDA:0,_RNCNCINvMs0_NtCs39mWnhFxKmJ_10autumn_web3appNtBa_10AppBuilder18with_pool_providerpE00Bc_
FNDA:0,_RNCNCNCNvMs0_NtCs39mWnhFxKmJ_10autumn_web3appNtBb_10AppBuilder3run0s1_00Bd_
FNDA:0,_RNCNCNCNvMs0_NtCs39mWnhFxKmJ_10autumn_web3appNtBb_10AppBuilder3run0s2_00Bd_
FNDA:0,_RNCNCNCNvNtCs39mWnhFxKmJ_10autumn_web3app18register_cron_task000B9_
FNDA:0,_RNCNCNvMs0_NtCs39mWnhFxKmJ_10autumn_web3appNtB9_10AppBuilder14run_build_mode00Bb_
FNDA:0,_RNCNCNvMs0_NtCs39mWnhFxKmJ_10autumn_web3appNtB9_10AppBuilder14run_build_mode0s_0Bb_
FNDA:0,_RNCNCNvMs0_NtCs39mWnhFxKmJ_10autumn_web3appNtB9_10AppBuilder3run00Bb_
FNDA:0,_RNCNCNvMs0_NtCs39mWnhFxKmJ_10autumn_web3appNtB9_10AppBuilder3run0s0_0Bb_
FNDA:0,_RNCNCNvMs0_NtCs39mWnhFxKmJ_10autumn_web3appNtB9_10AppBuilder3run0s1_0Bb_
FNDA:0,_RNCNCNvMs0_NtCs39mWnhFxKmJ_10autumn_web3appNtB9_10AppBuilder3run0s2_0Bb_
FNDA:0,_RNCNCNvMs0_NtCs39mWnhFxKmJ_10autumn_web3appNtB9_10AppBuilder3run0s3_0Bb_
FNDA:0,_RNCNCNvMs0_NtCs39mWnhFxKmJ_10autumn_web3appNtB9_10AppBuilder3run0s4_0Bb_
FNDA:0,_RNCNCNvMs0_NtCs39mWnhFxKmJ_10autumn_web3appNtB9_10AppBuilder3run0s_0Bb_
FNDA:0,_RNCNCNvNtCs39mWnhFxKmJ_10autumn_web3app14setup_database00B7_
FNDA:0,_RNCNCNvNtCs39mWnhFxKmJ_10autumn_web3app15shutdown_signal00B7_
FNDA:0,_RNCNCNvNtCs39mWnhFxKmJ_10autumn_web3app15shutdown_signal0s_0B7_
FNDA:0,_RNCNCNvNtCs39mWnhFxKmJ_10autumn_web3app18register_cron_task00B7_
FNDA:0,_RNCNCNvNtCs39mWnhFxKmJ_10autumn_web3app25load_config_and_telemetry00B7_
FNDA:0,_RNCNCNvNtCs39mWnhFxKmJ_10autumn_web3app25load_config_and_telemetry0s0_0B7_
FNDA:0,_RNCNCNvNtCs39mWnhFxKmJ_10autumn_web3app25load_config_and_telemetry0s_0B7_
FNDA:0,_RNCNvMs0_NtCs39mWnhFxKmJ_10autumn_web3appNtB7_10AppBuilder14run_build_mode0B9_
FNDA:0,_RNCNvMs0_NtCs39mWnhFxKmJ_10autumn_web3appNtB7_10AppBuilder3run0B9_
FNDA:0,_RNCNvNtCs39mWnhFxKmJ_10autumn_web3app14setup_database0B5_
FNDA:0,_RNCNvNtCs39mWnhFxKmJ_10autumn_web3app15shutdown_signal0B5_
FNDA:0,_RNCNvNtCs39mWnhFxKmJ_10autumn_web3app17execute_cron_task0B5_
FNDA:0,_RNCNvNtCs39mWnhFxKmJ_10autumn_web3app18register_cron_task0B5_
FNDA:0,_RNCNvNtCs39mWnhFxKmJ_10autumn_web3app18run_cron_scheduler0B5_
FNDA:0,_RNCNvNtCs39mWnhFxKmJ_10autumn_web3app20setup_cron_scheduler0B5_
FNDA:0,_RNCNvNtCs39mWnhFxKmJ_10autumn_web3app20start_task_scheduler0B5_
FNDA:0,_RNCNvNtCs39mWnhFxKmJ_10autumn_web3app20start_task_schedulers_0B5_
FNDA:0,_RNCNvNtCs39mWnhFxKmJ_10autumn_web3app24execute_fixed_delay_task0B5_
FNDA:0,_RNCNvNtCs39mWnhFxKmJ_10autumn_web3app25load_config_and_telemetry0B5_
FNDA:0,_RNvMs0_NtCs39mWnhFxKmJ_10autumn_web3appNtB5_10AppBuilder10migrations
FNDA:0,_RNvMs0_NtCs39mWnhFxKmJ_10autumn_web3appNtB5_10AppBuilder14run_build_mode
FNDA:0,_RNvMs0_NtCs39mWnhFxKmJ_10autumn_web3appNtB5_10AppBuilder3run
FNDA:0,_RNvMs0_NtCs39mWnhFxKmJ_10autumn_web3appNtB5_10AppBuilder4nest
FNDA:0,_RNvMs0_NtCs39mWnhFxKmJ_10autumn_web3appNtB5_10AppBuilder5merge
FNDA:0,_RNvMs0_NtCs39mWnhFxKmJ_10autumn_web3appNtB5_10AppBuilder5tasks
FNDA:0,_RNvNtCs39mWnhFxKmJ_10autumn_web3app11build_state
FNDA:0,_RNvNtCs39mWnhFxKmJ_10autumn_web3app14setup_database
FNDA:0,_RNvNtCs39mWnhFxKmJ_10autumn_web3app15shutdown_signal
FNDA:0,_RNvNtCs39mWnhFxKmJ_10autumn_web3app17execute_cron_task
FNDA:0,_RNvNtCs39mWnhFxKmJ_10autumn_web3app18register_cron_task
FNDA:0,_RNvNtCs39mWnhFxKmJ_10autumn_web3app18run_cron_scheduler
FNDA:0,_RNvNtCs39mWnhFxKmJ_10autumn_web3app20send_ws_sys_task_msg
FNDA:0,_RNvNtCs39mWnhFxKmJ_10autumn_web3app20setup_cron_scheduler
FNDA:0,_RNvNtCs39mWnhFxKmJ_10autumn_web3app20start_task_scheduler
FNDA:0,_RNvNtCs39mWnhFxKmJ_10autumn_web3app24execute_fixed_delay_task
FNDA:0,_RNvNtCs39mWnhFxKmJ_10autumn_web3app25load_config_and_telemetry
FNDA:0,_RNvNtCs39mWnhFxKmJ_10autumn_web3app35fail_fast_on_invalid_session_config
FNDA:0,_RNvXININtCs39mWnhFxKmJ_10autumn_web3apps_0pEpNtB5_12IntoAppLayer8apply_toB7_
FNDA:2,_RNvMs0_NtCs39mWnhFxKmJ_10autumn_web3appNtB5_10AppBuilder10has_plugin
FNDA:1,_RNvMs0_NtCs39mWnhFxKmJ_10autumn_web3appNtB5_10AppBuilder13static_routes
FNDA:3,_RNvMs0_NtCs39mWnhFxKmJ_10autumn_web3appNtB5_10AppBuilder6routes
FNDA:32,_RNvNtCs39mWnhFxKmJ_10autumn_web3app11project_dir
FNDA:5,_RNvNtCs39mWnhFxKmJ_10autumn_web3app17format_task_lines
FNDA:6,_RNvNtCs39mWnhFxKmJ_10autumn_web3app17mask_database_url
FNDA:2,_RNvNtCs39mWnhFxKmJ_10autumn_web3app17run_startup_hooks
FNDA:2,_RNvNtCs39mWnhFxKmJ_10autumn_web3app18format_route_lines
FNDA:1,_RNvNtCs39mWnhFxKmJ_10autumn_web3app18run_shutdown_hooks
FNDA:2,_RNvNtCs39mWnhFxKmJ_10autumn_web3app19execute_task_result
FNDA:25,_RNvNtCs39mWnhFxKmJ_10autumn_web3app20is_static_build_mode
FNDA:4,_RNvNtCs39mWnhFxKmJ_10autumn_web3app21format_config_summary
FNDA:2,_RNvNtCs39mWnhFxKmJ_10autumn_web3app22format_middleware_list
FNDA:2,_RNvNtCs39mWnhFxKmJ_10autumn_web3app24log_startup_transparency
FNDA:9,_RNvNtCs39mWnhFxKmJ_10autumn_web3app3app
FNDA:1,_RINvMs0_NtCs39mWnhFxKmJ_10autumn_web3appNtB6_10AppBuilder10on_startupNCNCNvNtB6_5testss_29startup_hook_errors_propagate00NCNCB17_00EB8_
FNDA:1,_RINvMs0_NtCs39mWnhFxKmJ_10autumn_web3appNtB6_10AppBuilder10on_startupNCNCNvNtB6_5testss_48startup_and_shutdown_hooks_run_in_expected_order00NCNCB17_00EB8_
FNDA:1,_RINvMs0_NtCs39mWnhFxKmJ_10autumn_web3appNtB6_10AppBuilder11on_shutdownNCNCNvNtB6_5testss_48startup_and_shutdown_hooks_run_in_expected_order0s0_0NCNCB18_s0_00EB8_
FNDA:1,_RINvMs0_NtCs39mWnhFxKmJ_10autumn_web3appNtB6_10AppBuilder11on_shutdownNCNCNvNtB6_5testss_48startup_and_shutdown_hooks_run_in_expected_order0s_0NCNCB18_s_00EB8_
FNDA:1,_RINvMs0_NtCs39mWnhFxKmJ_10autumn_web3appNtB6_10AppBuilder14with_extensionNtNtCsauO83Ko6oyK_5alloc6string6StringEB8_
FNDA:1,_RINvMs0_NtCs39mWnhFxKmJ_10autumn_web3appNtB6_10AppBuilder16update_extensionNtNtCsauO83Ko6oyK_5alloc6string6StringNvMB1d_B1b_3newNCNvNtB6_5testss_52app_builder_extensions_store_and_update_typed_values0EB8_
FNDA:1,_RINvMs0_NtCs39mWnhFxKmJ_10autumn_web3appNtB6_10AppBuilder6pluginNtNtNtB8_6plugin5tests10ColaPluginEB8_
FNDA:1,_RINvMs0_NtCs39mWnhFxKmJ_10autumn_web3appNtB6_10AppBuilder6pluginNtNtNtB8_6plugin5tests11PepsiPluginEB8_
FNDA:3,_RINvMs0_NtCs39mWnhFxKmJ_10autumn_web3appNtB6_10AppBuilder6pluginNtNtNtB8_6plugin5tests15RecordingPluginEB8_
FNDA:1,_RINvMs0_NtCs39mWnhFxKmJ_10autumn_web3appNtB6_10AppBuilder7pluginsTNtNtNtB8_6plugin5tests10ColaPluginNtB14_11PepsiPluginEEB8_
FNDA:1,_RINvMs0_NtCs39mWnhFxKmJ_10autumn_web3appNtB6_10AppBuilder9extensionNtNtCsauO83Ko6oyK_5alloc6string6StringEB8_
FNDA:1,_RNCINvMs0_NtCs39mWnhFxKmJ_10autumn_web3appNtB8_10AppBuilder10on_startupNCNCNvNtB8_5testss_29startup_hook_errors_propagate00NCNCB19_00E0Ba_
FNDA:1,_RNCINvMs0_NtCs39mWnhFxKmJ_10autumn_web3appNtB8_10AppBuilder10on_startupNCNCNvNtB8_5testss_48startup_and_shutdown_hooks_run_in_expected_order00NCNCB19_00E0Ba_
FNDA:1,_RNCINvMs0_NtCs39mWnhFxKmJ_10autumn_web3appNtB8_10AppBuilder11on_shutdownNCNCNvNtB8_5testss_48startup_and_shutdown_hooks_run_in_expected_order0s0_0NCNCB1a_s0_00E0Ba_
FNDA:1,_RNCINvMs0_NtCs39mWnhFxKmJ_10autumn_web3appNtB8_10AppBuilder11on_shutdownNCNCNvNtB8_5testss_48startup_and_shutdown_hooks_run_in_expected_order0s_0NCNCB1a_s_00E0Ba_
FNDA:0,_RNCINvMs0_NtCs39mWnhFxKmJ_10autumn_web3appNtB8_10AppBuilder16update_extensionNtNtCsauO83Ko6oyK_5alloc6string6StringNvMB1f_B1d_3newNCNvNtB8_5testss_52app_builder_extensions_store_and_update_typed_values0E0Ba_
FNDA:30,_RNCNvNtCs39mWnhFxKmJ_10autumn_web3app11project_dir0B5_
FNDA:2,_RNCNvNtCs39mWnhFxKmJ_10autumn_web3app11project_dirs_0B5_
FNDA:2,_RNCNvNtCs39mWnhFxKmJ_10autumn_web3app17run_startup_hooks0B5_
FNDA:1,_RNCNvNtCs39mWnhFxKmJ_10autumn_web3app18run_shutdown_hooks0B5_
FNDA:2,_RNCNvNtCs39mWnhFxKmJ_10autumn_web3app19execute_task_result0B5_
FNDA:3,_RNCNvNtCs39mWnhFxKmJ_10autumn_web3app21format_config_summary0B5_
FNDA:1,_RNCNvNtCs39mWnhFxKmJ_10autumn_web3app21format_config_summarys_0B5_
FNDA:10,_RNvNtNtCs39mWnhFxKmJ_10autumn_web3app5tests11test_router
FNDA:25,_RNvNtNtCs39mWnhFxKmJ_10autumn_web3app5tests14test_get_route
FNDA:4,_RNvNtNtCs39mWnhFxKmJ_10autumn_web3app5tests23test_router_with_config
FNDA:1,_RNvNtNtCs39mWnhFxKmJ_10autumn_web3app5testss_22format_task_lines_cron
FNDA:1,_RNvNtNtCs39mWnhFxKmJ_10autumn_web3app5testss_23build_router_post_route
FNDA:1,_RNvNtNtCs39mWnhFxKmJ_10autumn_web3app5testss_26cors_preflight_returns_204
FNDA:1,_RNvNtNtCs39mWnhFxKmJ_10autumn_web3app5testss_27build_router_serves_htmx_js
FNDA:1,_RNvNtNtCs39mWnhFxKmJ_10autumn_web3app5testss_28build_router_multiple_routes
FNDA:1,_RNvNtNtCs39mWnhFxKmJ_10autumn_web3app5testss_28mask_database_url_edge_cases
FNDA:1,_RNvNtNtCs39mWnhFxKmJ_10autumn_web3app5testss_29cors_disabled_when_no_origins
FNDA:1,_RNvNtNtCs39mWnhFxKmJ_10autumn_web3app5testss_29format_config_summary_with_db
FNDA:1,_RNvNtNtCs39mWnhFxKmJ_10autumn_web3app5testss_29format_task_lines_fixed_delay
FNDA:1,_RNvNtNtCs39mWnhFxKmJ_10autumn_web3app5testss_29startup_hook_errors_propagate
FNDA:1,_RNvNtNtCs39mWnhFxKmJ_10autumn_web3app5testss_30app_builder_routes_adds_routes
FNDA:1,_RNvNtNtCs39mWnhFxKmJ_10autumn_web3app5testss_30cors_specific_origin_reflected
FNDA:1,_RNvNtNtCs39mWnhFxKmJ_10autumn_web3app5testss_30format_config_summary_defaults
FNDA:1,_RNvNtNtCs39mWnhFxKmJ_10autumn_web3app5testss_30format_middleware_list_default
FNDA:1,_RNvNtNtCs39mWnhFxKmJ_10autumn_web3app5testss_30project_dir_defaults_to_subdir
FNDA:1,_RNvNtNtCs39mWnhFxKmJ_10autumn_web3app5testss_31build_router_mounts_user_routes
FNDA:1,_RNvNtNtCs39mWnhFxKmJ_10autumn_web3app5testss_31cors_wildcard_allows_any_origin
FNDA:1,_RNvNtNtCs39mWnhFxKmJ_10autumn_web3app5testss_31mask_database_url_with_password
FNDA:1,_RNvNtNtCs39mWnhFxKmJ_10autumn_web3app5testss_33app_builder_accepts_static_routes
FNDA:1,_RNvNtNtCs39mWnhFxKmJ_10autumn_web3app5testss_33format_task_lines_none_when_empty
FNDA:1,_RNvNtNtCs39mWnhFxKmJ_10autumn_web3app5testss_33log_startup_transparency_no_tasks
FNDA:1,_RNvNtNtCs39mWnhFxKmJ_10autumn_web3app5testss_34build_router_with_static_none_dist
FNDA:1,_RNvNtNtCs39mWnhFxKmJ_10autumn_web3app5testss_34format_config_summary_with_profile
FNDA:1,_RNvNtNtCs39mWnhFxKmJ_10autumn_web3app5testss_34mask_database_url_without_password
FNDA:1,_RNvNtNtCs39mWnhFxKmJ_10autumn_web3app5testss_35build_router_adds_request_id_header
FNDA:1,_RNvNtNtCs39mWnhFxKmJ_10autumn_web3app5testss_36format_config_summary_with_telemetry
FNDA:1,_RNvNtNtCs39mWnhFxKmJ_10autumn_web3app5testss_36format_route_lines_lists_user_routes
FNDA:1,_RNvNtNtCs39mWnhFxKmJ_10autumn_web3app5testss_38build_router_unknown_route_returns_404
FNDA:1,_RNvNtNtCs39mWnhFxKmJ_10autumn_web3app5testss_38mask_database_url_invalid_url_fallback
FNDA:1,_RNvNtNtCs39mWnhFxKmJ_10autumn_web3app5testss_39execute_task_result_ok_returns_duration
FNDA:1,_RNvNtNtCs39mWnhFxKmJ_10autumn_web3app5testss_40build_router_merges_methods_on_same_path
FNDA:1,_RNvNtNtCs39mWnhFxKmJ_10autumn_web3app5testss_41format_middleware_list_with_cors_and_csrf
FNDA:1,_RNvNtNtCs39mWnhFxKmJ_10autumn_web3app5testss_43log_startup_transparency_runs_without_panic
FNDA:1,_RNvNtNtCs39mWnhFxKmJ_10autumn_web3app5testss_47build_router_mounts_health_check_at_custom_path
FNDA:1,_RNvNtNtCs39mWnhFxKmJ_10autumn_web3app5testss_47build_router_with_static_skips_without_manifest
FNDA:1,_RNvNtNtCs39mWnhFxKmJ_10autumn_web3app5testss_48build_router_mounts_health_check_at_default_path
FNDA:1,_RNvNtNtCs39mWnhFxKmJ_10autumn_web3app5testss_48startup_and_shutdown_hooks_run_in_expected_order
FNDA:1,_RNvNtNtCs39mWnhFxKmJ_10autumn_web3app5testss_52app_builder_extensions_store_and_update_typed_values
FNDA:1,_RNvNtNtCs39mWnhFxKmJ_10autumn_web3app5testss_52build_mode_static_rendering_bypasses_startup_barrier
FNDA:1,_RNvNtNtCs39mWnhFxKmJ_10autumn_web3app5testss_52build_router_injects_live_reload_script_when_enabled
FNDA:1,_RNvNtNtCs39mWnhFxKmJ_10autumn_web3app5testss_52build_router_mounts_dev_reload_endpoint_when_enabled
FNDA:1,_RNvNtNtCs39mWnhFxKmJ_10autumn_web3app5testss_52build_router_serves_static_files_for_unmatched_paths
FNDA:1,_RNvNtNtCs39mWnhFxKmJ_10autumn_web3app5testss_52execute_task_result_err_returns_duration_and_message
FNDA:1,_RNvNtNtCs39mWnhFxKmJ_10autumn_web3app5testss_52htmx_handler_returns_javascript_with_correct_headers
FNDA:1,_RNvNtNtCs39mWnhFxKmJ_10autumn_web3app5testss_59build_router_mounts_dev_reload_script_endpoint_when_enabled
FNDA:1,_RNvNtNtCs39mWnhFxKmJ_10autumn_web3app5testss_60config_runtime_drift_format_route_lines_uses_actuator_prefix
FNDA:1,_RNvNtNtCs39mWnhFxKmJ_10autumn_web3app5testss_64build_router_disables_cache_for_static_assets_in_dev_reload_mode
FNDA:1,_RNCNCNCNCNvNtNtCs39mWnhFxKmJ_10autumn_web3app5testss_52build_mode_static_rendering_bypasses_startup_barrier0000Bd_
FNDA:1,_RNCNCNCNCNvNtNtCs39mWnhFxKmJ_10autumn_web3app5testss_52build_router_injects_live_reload_script_when_enabled0000Bd_
FNDA:1,_RNCNCNCNvNtNtCs39mWnhFxKmJ_10autumn_web3app5testss_23build_router_post_route000Bb_
FNDA:1,_RNCNCNCNvNtNtCs39mWnhFxKmJ_10autumn_web3app5testss_29startup_hook_errors_propagate000Bb_
FNDA:1,_RNCNCNCNvNtNtCs39mWnhFxKmJ_10autumn_web3app5testss_39execute_task_result_ok_returns_duration000Bb_
FNDA:1,_RNCNCNCNvNtNtCs39mWnhFxKmJ_10autumn_web3app5testss_40build_router_merges_methods_on_same_path000Bb_
FNDA:1,_RNCNCNCNvNtNtCs39mWnhFxKmJ_10autumn_web3app5testss_40build_router_merges_methods_on_same_path0s_00Bb_
FNDA:1,_RNCNCNCNvNtNtCs39mWnhFxKmJ_10autumn_web3app5testss_48startup_and_shutdown_hooks_run_in_expected_order000Bb_
FNDA:1,_RNCNCNCNvNtNtCs39mWnhFxKmJ_10autumn_web3app5testss_48startup_and_shutdown_hooks_run_in_expected_order0s0_00Bb_
FNDA:1,_RNCNCNCNvNtNtCs39mWnhFxKmJ_10autumn_web3app5testss_48startup_and_shutdown_hooks_run_in_expected_order0s_00Bb_
FNDA:1,_RNCNCNCNvNtNtCs39mWnhFxKmJ_10autumn_web3app5testss_52build_mode_static_rendering_bypasses_startup_barrier000Bb_
FNDA:1,_RNCNCNCNvNtNtCs39mWnhFxKmJ_10autumn_web3app5testss_52build_router_injects_live_reload_script_when_enabled000Bb_
FNDA:1,_RNCNCNCNvNtNtCs39mWnhFxKmJ_10autumn_web3app5testss_52execute_task_result_err_returns_duration_and_message000Bb_
FNDA:1,_RNCNCNCNvNtNtCs39mWnhFxKmJ_10autumn_web3app5testss_59build_router_mounts_dev_reload_script_endpoint_when_enabled000Bb_
FNDA:9,_RNCNCNvNtNtCs39mWnhFxKmJ_10autumn_web3app5tests14test_get_route00B9_
FNDA:0,_RNCNCNvNtNtCs39mWnhFxKmJ_10autumn_web3app5testss_22format_task_lines_cron00B9_
FNDA:1,_RNCNCNvNtNtCs39mWnhFxKmJ_10autumn_web3app5testss_23build_router_post_route00B9_
FNDA:0,_RNCNCNvNtNtCs39mWnhFxKmJ_10autumn_web3app5testss_29format_task_lines_fixed_delay00B9_
FNDA:1,_RNCNCNvNtNtCs39mWnhFxKmJ_10autumn_web3app5testss_29startup_hook_errors_propagate00B9_
FNDA:1,_RNCNCNvNtNtCs39mWnhFxKmJ_10autumn_web3app5testss_39execute_task_result_ok_returns_duration00B9_
FNDA:1,_RNCNCNvNtNtCs39mWnhFxKmJ_10autumn_web3app5testss_40build_router_merges_methods_on_same_path00B9_
FNDA:1,_RNCNCNvNtNtCs39mWnhFxKmJ_10autumn_web3app5testss_40build_router_merges_methods_on_same_path0s_0B9_
FNDA:0,_RNCNCNvNtNtCs39mWnhFxKmJ_10autumn_web3app5testss_43log_startup_transparency_runs_without_panic00B9_
FNDA:1,_RNCNCNvNtNtCs39mWnhFxKmJ_10autumn_web3app5testss_48startup_and_shutdown_hooks_run_in_expected_order00B9_
FNDA:1,_RNCNCNvNtNtCs39mWnhFxKmJ_10autumn_web3app5testss_48startup_and_shutdown_hooks_run_in_expected_order0s0_0B9_
FNDA:1,_RNCNCNvNtNtCs39mWnhFxKmJ_10autumn_web3app5testss_48startup_and_shutdown_hooks_run_in_expected_order0s_0B9_
FNDA:1,_RNCNCNvNtNtCs39mWnhFxKmJ_10autumn_web3app5testss_52build_mode_static_rendering_bypasses_startup_barrier00B9_
FNDA:1,_RNCNCNvNtNtCs39mWnhFxKmJ_10autumn_web3app5testss_52build_router_injects_live_reload_script_when_enabled00B9_
FNDA:1,_RNCNCNvNtNtCs39mWnhFxKmJ_10autumn_web3app5testss_52build_router_mounts_dev_reload_endpoint_when_enabled00B9_
FNDA:1,_RNCNCNvNtNtCs39mWnhFxKmJ_10autumn_web3app5testss_52execute_task_result_err_returns_duration_and_message00B9_
FNDA:1,_RNCNCNvNtNtCs39mWnhFxKmJ_10autumn_web3app5testss_59build_router_mounts_dev_reload_script_endpoint_when_enabled00B9_
FNDA:1,_RNCNCNvNtNtCs39mWnhFxKmJ_10autumn_web3app5testss_64build_router_disables_cache_for_static_assets_in_dev_reload_mode00B9_
FNDA:9,_RNCNvNtNtCs39mWnhFxKmJ_10autumn_web3app5tests14test_get_route0B7_
FNDA:0,_RNCNvNtNtCs39mWnhFxKmJ_10autumn_web3app5testss_22format_task_lines_cron0B7_
FNDA:1,_RNCNvNtNtCs39mWnhFxKmJ_10autumn_web3app5testss_23build_router_post_route0B7_
FNDA:1,_RNCNvNtNtCs39mWnhFxKmJ_10autumn_web3app5testss_26cors_preflight_returns_2040B7_
FNDA:1,_RNCNvNtNtCs39mWnhFxKmJ_10autumn_web3app5testss_27build_router_serves_htmx_js0B7_
FNDA:1,_RNCNvNtNtCs39mWnhFxKmJ_10autumn_web3app5testss_28build_router_multiple_routes0B7_
FNDA:1,_RNCNvNtNtCs39mWnhFxKmJ_10autumn_web3app5testss_29cors_disabled_when_no_origins0B7_
FNDA:0,_RNCNvNtNtCs39mWnhFxKmJ_10autumn_web3app5testss_29format_task_lines_fixed_delay0B7_
FNDA:1,_RNCNvNtNtCs39mWnhFxKmJ_10autumn_web3app5testss_29startup_hook_errors_propagate0B7_
FNDA:1,_RNCNvNtNtCs39mWnhFxKmJ_10autumn_web3app5testss_30cors_specific_origin_reflected0B7_
FNDA:1,_RNCNvNtNtCs39mWnhFxKmJ_10autumn_web3app5testss_31build_router_mounts_user_routes0B7_
FNDA:1,_RNCNvNtNtCs39mWnhFxKmJ_10autumn_web3app5testss_31cors_wildcard_allows_any_origin0B7_
FNDA:1,_RNCNvNtNtCs39mWnhFxKmJ_10autumn_web3app5testss_34build_router_with_static_none_dist0B7_
FNDA:1,_RNCNvNtNtCs39mWnhFxKmJ_10autumn_web3app5testss_35build_router_adds_request_id_header0B7_
FNDA:1,_RNCNvNtNtCs39mWnhFxKmJ_10autumn_web3app5testss_38build_router_unknown_route_returns_4040B7_
FNDA:1,_RNCNvNtNtCs39mWnhFxKmJ_10autumn_web3app5testss_39execute_task_result_ok_returns_duration0B7_
FNDA:1,_RNCNvNtNtCs39mWnhFxKmJ_10autumn_web3app5testss_40build_router_merges_methods_on_same_path0B7_
FNDA:0,_RNCNvNtNtCs39mWnhFxKmJ_10autumn_web3app5testss_43log_startup_transparency_runs_without_panic0B7_
FNDA:1,_RNCNvNtNtCs39mWnhFxKmJ_10autumn_web3app5testss_47build_router_mounts_health_check_at_custom_path0B7_
FNDA:1,_RNCNvNtNtCs39mWnhFxKmJ_10autumn_web3app5testss_47build_router_with_static_skips_without_manifest0B7_
FNDA:1,_RNCNvNtNtCs39mWnhFxKmJ_10autumn_web3app5testss_48build_router_mounts_health_check_at_default_path0B7_
FNDA:1,_RNCNvNtNtCs39mWnhFxKmJ_10autumn_web3app5testss_48startup_and_shutdown_hooks_run_in_expected_order0B7_
FNDA:1,_RNCNvNtNtCs39mWnhFxKmJ_10autumn_web3app5testss_52app_builder_extensions_store_and_update_typed_values0B7_
FNDA:1,_RNCNvNtNtCs39mWnhFxKmJ_10autumn_web3app5testss_52build_mode_static_rendering_bypasses_startup_barrier0B7_
FNDA:1,_RNCNvNtNtCs39mWnhFxKmJ_10autumn_web3app5testss_52build_router_injects_live_reload_script_when_enabled0B7_
FNDA:1,_RNCNvNtNtCs39mWnhFxKmJ_10autumn_web3app5testss_52build_router_mounts_dev_reload_endpoint_when_enabled0B7_
FNDA:1,_RNCNvNtNtCs39mWnhFxKmJ_10autumn_web3app5testss_52build_router_serves_static_files_for_unmatched_paths0B7_
FNDA:1,_RNCNvNtNtCs39mWnhFxKmJ_10autumn_web3app5testss_52execute_task_result_err_returns_duration_and_message0B7_
FNDA:1,_RNCNvNtNtCs39mWnhFxKmJ_10autumn_web3app5testss_52htmx_handler_returns_javascript_with_correct_headers0B7_
FNDA:1,_RNCNvNtNtCs39mWnhFxKmJ_10autumn_web3app5testss_59build_router_mounts_dev_reload_script_endpoint_when_enabled0B7_
FNDA:1,_RNCNvNtNtCs39mWnhFxKmJ_10autumn_web3app5testss_64build_router_disables_cache_for_static_assets_in_dev_reload_mode0B7_
FNDA:1,_RNvXs_NtCslNlzF6u6e2e_10autumn_web3appNtCs95ch7NHVUcv_12custom_layer12PendingLayerNtB4_12IntoAppLayer8apply_toBC_
FNDA:1,_RNvXs_NtCslNlzF6u6e2e_10autumn_web3appNtCs95ch7NHVUcv_12custom_layer14CaptureIdLayerNtB4_12IntoAppLayer8apply_toBC_
FNDA:1,_RNvXs_NtCslNlzF6u6e2e_10autumn_web3appINtNtCs524LpGUut0J_5tower7builder14ServiceBuilderINtNtCscMAT8yzRe8V_11tower_layer5stack5StackNtNtNtBF_7timeout5layer12TimeoutLayerIB1o_INtNtCs2SFNBOiMNMK_4axum14error_handling16HandleErrorLayerNCNCNvCs95ch7NHVUcv_12custom_layers_32timeout_layer_one_liner_triggers00uENtNtB1s_8identity8IdentityEEENtB4_12IntoAppLayer8apply_toB3N_
FNDA:1,_RINvMs0_NtCslNlzF6u6e2e_10autumn_web3appNtB6_10AppBuilder16exception_filterNtNvCsioC65L6WwC5_19middleware_pipelines_37app_builder_exception_filter_compiles10NoopFilterEB1f_
FNDA:1,_RINvMs0_NtCslNlzF6u6e2e_10autumn_web3appNtB6_10AppBuilder6scopedNtCsioC65L6WwC5_19middleware_pipeline14AddHeaderLayerEB12_
FNDA:0,_RNCINvMs0_NtCslNlzF6u6e2e_10autumn_web3appNtB8_10AppBuilder6scopedNtCsioC65L6WwC5_19middleware_pipeline14AddHeaderLayerE0B14_
FNF:210
FNH:146
DA:68,14
DA:69,14
DA:70,14
DA:71,14
DA:72,14
DA:73,14
DA:74,14
DA:75,14
DA:76,14
DA:77,14
DA:78,14
DA:79,14
DA:80,14
DA:81,14
DA:82,14
DA:83,14
DA:84,14
DA:85,14
DA:86,14
DA:87,14
DA:88,14
DA:89,14
DA:90,14
DA:91,14
DA:271,3
DA:272,3
DA:273,3
DA:299,8
DA:300,8
DA:301,8
DA:302,8
DA:310,0
DA:311,0
DA:312,0
DA:313,0
DA:320,1
DA:321,1
DA:322,1
DA:323,1
DA:357,1
DA:358,1
DA:359,1
DA:360,1
DA:399,0
DA:400,0
DA:401,0
DA:402,0
DA:427,1
DA:428,1
DA:429,1
DA:430,1
DA:431,1
DA:432,1
DA:433,1
DA:434,1
DA:435,1
DA:436,1
DA:437,1
DA:438,1
DA:439,1
DA:441,1
DA:442,1
DA:443,1
DA:444,1
DA:446,1
DA:447,1
DA:521,0
DA:528,0
DA:529,0
DA:530,0
DA:531,0
DA:571,0
DA:572,0
DA:573,0
DA:574,0
DA:609,0
DA:610,0
DA:611,0
DA:612,0
DA:620,2
DA:621,2
DA:622,2
DA:623,2
DA:625,2
DA:626,2
DA:627,2
DA:628,2
DA:635,2
DA:636,2
DA:637,2
DA:638,2
DA:640,2
DA:641,2
DA:642,2
DA:649,1
DA:650,1
DA:651,1
DA:653,1
DA:654,1
DA:655,1
DA:665,1
DA:666,1
DA:667,1
DA:668,1
DA:669,1
DA:671,1
DA:672,1
DA:673,1
DA:674,1
DA:675,1
DA:676,1
DA:677,1
DA:678,1
DA:679,1
DA:680,1
DA:681,1
DA:685,1
DA:686,1
DA:687,1
DA:689,1
DA:690,1
DA:708,0
DA:709,0
DA:710,0
DA:712,0
DA:713,0
DA:716,0
DA:717,0
DA:718,0
DA:719,0
DA:720,0
DA:721,0
DA:732,0
DA:733,0
DA:734,0
DA:736,0
DA:737,0
DA:740,0
DA:741,0
DA:742,0
DA:743,0
DA:744,0
DA:745,0
DA:746,0
DA:755,0
DA:756,0
DA:757,0
DA:759,0
DA:760,0
DA:763,0
DA:764,0
DA:765,0
DA:766,0
DA:775,0
DA:776,0
DA:777,0
DA:779,0
DA:780,0
DA:783,0
DA:784,0
DA:785,0
DA:786,0
DA:797,5
DA:798,5
DA:799,5
DA:801,5
DA:802,5
DA:803,1
DA:804,0
DA:807,1
DA:808,4
DA:809,4
DA:810,4
DA:811,5
DA:816,1
DA:817,1
DA:818,1
DA:820,1
DA:821,1
DA:826,2
DA:827,2
DA:828,2
DA:855,0
DA:856,0
DA:857,0
DA:858,0
DA:881,1
DA:885,1
DA:886,0
DA:887,0
DA:888,1
DA:891,1
DA:892,1
DA:894,1
DA:895,1
DA:896,1
DA:897,1
DA:898,1
DA:899,1
DA:900,1
DA:903,1
DA:905,1
DA:906,1
DA:908,1
DA:909,1
DA:910,1
DA:911,1
DA:913,1
DA:916,1
DA:917,1
DA:920,1
DA:921,1
DA:926,0
DA:927,0
DA:934,0
DA:935,0
DA:936,0
DA:937,0
DA:942,0
DA:946,0
DA:947,0
DA:948,0
DA:949,0
DA:950,0
DA:954,0
DA:955,0
DA:960,0
DA:964,0
DA:965,0
DA:967,0
DA:969,0
DA:970,0
DA:971,0
DA:972,0
DA:974,0
DA:976,0
DA:977,0
DA:978,0
DA:979,0
DA:980,0
DA:981,0
DA:982,0
DA:983,0
DA:984,0
DA:985,0
DA:986,0
DA:987,0
DA:988,0
DA:989,0
DA:991,0
DA:992,0
DA:993,0
DA:998,0
DA:999,0
DA:1000,0
DA:1001,0
DA:1002,0
DA:1003,0
DA:1005,0
DA:1007,0
DA:1008,0
DA:1009,0
DA:1010,0
DA:1011,0
DA:1012,0
DA:1013,0
DA:1015,0
DA:1016,0
DA:1017,0
DA:1018,0
DA:1019,0
DA:1021,0
DA:1022,0
DA:1026,0
DA:1027,0
DA:1028,0
DA:1033,0
DA:1034,0
DA:1035,0
DA:1036,0
DA:1037,0
DA:1038,0
DA:1039,0
DA:1043,0
DA:1044,0
DA:1046,0
DA:1047,0
DA:1048,0
DA:1050,0
DA:1051,0
DA:1052,0
DA:1053,0
DA:1054,0
DA:1055,0
DA:1057,0
DA:1058,0
DA:1059,0
DA:1060,0
DA:1061,0
DA:1062,0
DA:1064,0
DA:1065,0
DA:1066,0
DA:1068,0
DA:1069,0
DA:1070,0
DA:1071,0
DA:1074,0
DA:1075,0
DA:1082,0
DA:1084,0
DA:1086,0
DA:1091,0
DA:1099,0
DA:1101,0
DA:1102,0
DA:1103,0
DA:1104,0
DA:1106,0
DA:1109,0
DA:1110,0
DA:1112,0
DA:1113,0
DA:1114,0
DA:1115,0
DA:1116,0
DA:1121,0
DA:1125,0
DA:1126,0
DA:1127,0
DA:1128,0
DA:1129,0
DA:1132,0
DA:1133,0
DA:1135,0
DA:1138,0
DA:1147,0
DA:1148,0
DA:1149,0
DA:1150,0
DA:1151,0
DA:1152,0
DA:1153,0
DA:1154,0
DA:1155,0
DA:1156,0
DA:1157,0
DA:1158,0
DA:1159,0
DA:1161,0
DA:1162,0
DA:1163,0
DA:1166,0
DA:1167,0
DA:1169,0
DA:1171,0
DA:1172,0
DA:1173,0
DA:1174,0
DA:1175,0
DA:1176,0
DA:1177,0
DA:1178,0
DA:1179,0
DA:1180,0
DA:1183,0
DA:1186,26
DA:1187,26
DA:1188,26
DA:1198,0
DA:1199,0
DA:1200,0
DA:1201,0
DA:1202,0
DA:1203,0
DA:1204,0
DA:1205,0
DA:1206,0
DA:1209,0
DA:1210,0
DA:1212,0
DA:1213,0
DA:1214,0
DA:1215,0
DA:1216,0
DA:1218,0
DA:1219,0
DA:1221,0
DA:1223,0
DA:1225,0
DA:1226,0
DA:1231,0
DA:1232,0
DA:1233,0
DA:1234,0
DA:1235,0
DA:1236,0
DA:1240,0
DA:1241,0
DA:1242,0
DA:1243,0
DA:1244,0
DA:1245,0
DA:1246,0
DA:1249,0
DA:1250,0
DA:1251,0
DA:1252,0
DA:1253,0
DA:1254,0
DA:1276,0
DA:1278,2
DA:1279,2
DA:1280,2
DA:1281,2
DA:1282,2
DA:1283,2
DA:1284,2
DA:1288,2
DA:1289,0
DA:1295,2
DA:1296,2
DA:1298,2
DA:1299,1
DA:1300,1
DA:1302,2
DA:1305,0
DA:1306,0
DA:1307,0
DA:1308,0
DA:1309,0
DA:1310,0
DA:1311,0
DA:1313,0
DA:1315,0
DA:1316,0
DA:1317,0
DA:1318,0
DA:1319,0
DA:1320,0
DA:1321,0
DA:1322,0
DA:1323,0
DA:1324,0
DA:1327,0
DA:1328,0
DA:1329,0
DA:1330,0
DA:1331,0
DA:1332,0
DA:1333,0
DA:1334,0
DA:1335,0
DA:1336,0
DA:1337,0
DA:1338,0
DA:1343,0
DA:1346,0
DA:1347,0
DA:1348,0
DA:1350,0
DA:1352,0
DA:1353,0
DA:1354,0
DA:1355,0
DA:1356,0
DA:1357,0
DA:1358,0
DA:1359,0
DA:1360,0
DA:1361,0
DA:1364,0
DA:1365,0
DA:1366,0
DA:1367,0
DA:1368,0
DA:1369,0
DA:1370,0
DA:1371,0
DA:1372,0
DA:1373,0
DA:1374,0
DA:1375,0
DA:1380,0
DA:1382,0
DA:1383,0
DA:1384,0
DA:1385,0
DA:1386,0
DA:1387,0
DA:1388,0
DA:1389,0
DA:1390,0
DA:1391,0
DA:1393,0
DA:1394,0
DA:1395,0
DA:1396,0
DA:1397,0
DA:1398,0
DA:1399,0
DA:1401,0
DA:1402,0
DA:1403,0
DA:1404,0
DA:1405,0
DA:1407,0
DA:1408,0
DA:1411,0
DA:1413,0
DA:1414,0
DA:1415,0
DA:1416,0
DA:1419,0
DA:1420,0
DA:1421,0
DA:1422,0
DA:1423,0
DA:1427,0
DA:1428,0
DA:1431,0
DA:1432,0
DA:1433,0
DA:1434,0
DA:1436,0
DA:1437,0
DA:1442,0
DA:1443,0
DA:1444,0
DA:1445,0
DA:1446,0
DA:1447,0
DA:1448,0
DA:1451,0
DA:1452,0
DA:1453,0
DA:1455,0
DA:1456,0
DA:1457,0
DA:1458,0
DA:1464,0
DA:1465,0
DA:1466,0
DA:1467,0
DA:1468,0
DA:1469,0
DA:1470,0
DA:1471,0
DA:1472,0
DA:1473,0
DA:1474,0
DA:1475,0
DA:1476,0
DA:1480,0
DA:1481,0
DA:1482,0
DA:1484,0
DA:1490,0
DA:1491,0
DA:1492,0
DA:1494,2
DA:1495,2
DA:1496,2
DA:1498,1
DA:1499,2
DA:1501,1
DA:1502,2
DA:1503,2
DA:1505,1
DA:1514,2
DA:1515,2
DA:1516,2
DA:1517,2
DA:1518,2
DA:1519,2
DA:1520,2
DA:1522,0
DA:1525,2
DA:1526,1
DA:1527,1
DA:1529,2
DA:1531,2
DA:1532,2
DA:1546,0
DA:1547,0
DA:1548,0
DA:1549,0
DA:1550,0
DA:1551,0
DA:1552,0
DA:1553,0
DA:1554,0
DA:1556,1
DA:1557,1
DA:1558,1
DA:1559,1
DA:1562,1
DA:1563,0
DA:1564,1
DA:1566,1
DA:1567,0
DA:1568,0
DA:1573,1
DA:1574,1
DA:1575,1
DA:1576,1
DA:1577,1
DA:1578,0
DA:1579,0
DA:1582,1
DA:1583,1
DA:1586,0
DA:1587,0
DA:1588,0
DA:1589,0
DA:1590,0
DA:1591,0
DA:1592,0
DA:1593,0
DA:1594,0
DA:1595,0
DA:1597,0
DA:1598,0
DA:1599,0
DA:1602,0
DA:1608,0
DA:1609,0
DA:1610,0
DA:1611,0
DA:1612,0
DA:1613,0
DA:1614,0
DA:1615,0
DA:1616,0
DA:1617,0
DA:1618,0
DA:1619,0
DA:1621,0
DA:1622,0
DA:1624,0
DA:1625,0
DA:1626,0
DA:1627,0
DA:1628,0
DA:1629,0
DA:1630,0
DA:1631,0
DA:1632,0
DA:1633,0
DA:1634,0
DA:1635,0
DA:1636,0
DA:1637,0
DA:1638,0
DA:1639,0
DA:1640,0
DA:1641,0
DA:1642,0
DA:1643,0
DA:1644,0
DA:1645,0
DA:1646,0
DA:1647,0
DA:1650,2
DA:1651,2
DA:1652,2
DA:1653,2
DA:1654,2
DA:1657,2
DA:1658,2
DA:1659,2
DA:1660,2
DA:1661,2
DA:1662,2
DA:1663,2
DA:1664,2
DA:1665,2
DA:1666,0
DA:1667,0
DA:1668,0
DA:1669,0
DA:1670,0
DA:1671,0
DA:1672,0
DA:1674,2
DA:1675,8
DA:1676,2
DA:1677,2
DA:1678,2
DA:1679,2
DA:1680,2
DA:1681,8
DA:1682,8
DA:1683,8
DA:1685,2
DA:1686,2
DA:1688,2
DA:1692,2
DA:1693,2
DA:1694,2
DA:1697,5
DA:1700,5
DA:1701,2
DA:1702,3
DA:1704,3
DA:1705,3
DA:1706,3
DA:1707,3
DA:1708,3
DA:1709,3
DA:1710,5
DA:1713,2
DA:1714,2
DA:1716,2
DA:1717,2
DA:1718,2
DA:1720,2
DA:1721,1
DA:1722,1
DA:1723,2
DA:1724,1
DA:1725,1
DA:1726,2
DA:1727,2
DA:1728,2
DA:1731,6
DA:1732,6
DA:1733,5
DA:1734,4
DA:1735,4
DA:1736,1
DA:1737,1
DA:1741,1
DA:1743,6
DA:1746,4
DA:1747,4
DA:1748,4
DA:1749,3
DA:1750,1
DA:1752,4
DA:1753,1
DA:1754,1
DA:1755,1
DA:1756,1
DA:1757,1
DA:1758,1
DA:1760,3
DA:1762,4
DA:1782,4
DA:1786,65
DA:1787,65
DA:1788,63
DA:1789,2
DA:1791,65
DA:1797,0
DA:1798,0
DA:1799,0
DA:1800,0
DA:1801,0
DA:1802,0
DA:1803,0
DA:1806,0
DA:1807,0
DA:1808,0
DA:1809,0
DA:1810,0
DA:1811,0
DA:1812,0
DA:1817,0
DA:1818,0
DA:1819,0
DA:1821,0
DA:1831,10
DA:1832,10
DA:1833,10
DA:1834,10
DA:1835,10
DA:1836,10
DA:1837,10
DA:1838,10
DA:1839,10
DA:1840,10
DA:1841,10
DA:1842,10
DA:1843,10
DA:1844,10
DA:1845,10
DA:1846,10
DA:1847,10
DA:1848,10
DA:1849,10
DA:1850,10
DA:1851,10
DA:1852,10
DA:1853,10
DA:1856,25
DA:1858,25
DA:1859,25
DA:1860,25
DA:1861,25
DA:1863,25
DA:1866,1
DA:1867,1
DA:1868,1
DA:1870,1
DA:1871,1
DA:1873,1
DA:1874,1
DA:1875,1
DA:1877,1
DA:1879,1
DA:1880,1
DA:1881,1
DA:1882,1
DA:1885,1
DA:1886,1
DA:1887,1
DA:1888,1
DA:1890,1
DA:1891,1
DA:1892,1
DA:1893,1
DA:1894,1
DA:1897,1
DA:1898,1
DA:1899,1
DA:1900,1
DA:1901,1
DA:1902,1
DA:1903,1
DA:1904,1
DA:1905,1
DA:1906,1
DA:1907,1
DA:1908,1
DA:1909,1
DA:1910,1
DA:1911,1
DA:1912,1
DA:1913,1
DA:1914,1
DA:1915,1
DA:1916,1
DA:1917,1
DA:1918,1
DA:1919,1
DA:1920,1
DA:1921,1
DA:1922,1
DA:1923,1
DA:1924,1
DA:1925,1
DA:1926,1
DA:1927,1
DA:1928,1
DA:1929,1
DA:1930,1
DA:1932,1
DA:1933,1
DA:1934,1
DA:1935,1
DA:1937,1
DA:1938,1
DA:1939,1
DA:1942,1
DA:1943,1
DA:1944,1
DA:1945,1
DA:1946,1
DA:1947,2
DA:1949,1
DA:1950,1
DA:1951,1
DA:1952,1
DA:1953,1
DA:1956,1
DA:1957,1
DA:1959,1
DA:1960,1
DA:1961,1
DA:1962,1
DA:1964,1
DA:1965,1
DA:1966,1
DA:1967,1
DA:1968,1
DA:1969,1
DA:1972,1
DA:1973,1
DA:1975,1
DA:1976,1
DA:1977,1
DA:1978,1
DA:1979,1
DA:1980,1
DA:1981,1
DA:1982,1
DA:1983,1
DA:1985,1
DA:1986,1
DA:1987,1
DA:1988,1
DA:1989,1
DA:1990,1
DA:1991,1
DA:1994,1
DA:1995,1
DA:1996,1
DA:1997,1
DA:1998,1
DA:1999,1
DA:2000,1
DA:2001,1
DA:2002,1
DA:2003,1
DA:2004,1
DA:2005,1
DA:2006,1
DA:2007,1
DA:2008,1
DA:2009,1
DA:2010,1
DA:2011,1
DA:2012,1
DA:2013,1
DA:2014,1
DA:2015,1
DA:2016,1
DA:2017,1
DA:2019,1
DA:2020,1
DA:2021,1
DA:2022,1
DA:2023,1
DA:2024,1
DA:2025,1
DA:2026,1
DA:2027,1
DA:2029,1
DA:2030,1
DA:2033,1
DA:2034,1
DA:2036,1
DA:2037,1
DA:2038,1
DA:2039,1
DA:2041,1
DA:2042,1
DA:2045,1
DA:2046,1
DA:2048,1
DA:2049,1
DA:2050,1
DA:2051,1
DA:2053,1
DA:2054,1
DA:2057,1
DA:2058,1
DA:2060,1
DA:2061,1
DA:2062,1
DA:2063,1
DA:2064,1
DA:2065,1
DA:2067,1
DA:2068,1
DA:2069,1
DA:2070,1
DA:2071,1
DA:2072,1
DA:2075,1
DA:2076,1
DA:2077,1
DA:2079,2
DA:2082,1
DA:2083,1
DA:2084,1
DA:2085,1
DA:2086,1
DA:2087,1
DA:2088,1
DA:2089,1
DA:2090,1
DA:2091,1
DA:2092,1
DA:2093,1
DA:2094,1
DA:2095,1
DA:2096,1
DA:2097,1
DA:2098,1
DA:2099,1
DA:2100,1
DA:2101,1
DA:2102,1
DA:2104,1
DA:2105,1
DA:2106,1
DA:2107,1
DA:2108,1
DA:2109,1
DA:2110,1
DA:2111,1
DA:2112,1
DA:2113,1
DA:2115,1
DA:2116,1
DA:2119,1
DA:2120,1
DA:2122,1
DA:2124,2
DA:2128,1
DA:2130,2
DA:2134,1
DA:2135,1
DA:2136,1
DA:2137,1
DA:2138,1
DA:2139,1
DA:2140,1
DA:2141,1
DA:2142,1
DA:2143,1
DA:2144,1
DA:2145,1
DA:2146,1
DA:2147,1
DA:2148,1
DA:2149,1
DA:2150,1
DA:2151,1
DA:2152,1
DA:2153,1
DA:2154,1
DA:2157,1
DA:2158,1
DA:2159,1
DA:2160,1
DA:2161,1
DA:2162,1
DA:2163,1
DA:2164,1
DA:2165,1
DA:2166,1
DA:2167,1
DA:2168,1
DA:2169,1
DA:2170,1
DA:2171,1
DA:2174,1
DA:2175,1
DA:2176,1
DA:2177,1
DA:2178,1
DA:2179,1
DA:2180,1
DA:2181,1
DA:2182,1
DA:2183,1
DA:2184,1
DA:2185,1
DA:2186,1
DA:2187,1
DA:2188,1
DA:2189,1
DA:2193,1
DA:2194,1
DA:2195,1
DA:2196,1
DA:2199,1
DA:2200,1
DA:2201,1
DA:2202,1
DA:2203,1
DA:2204,1
DA:2205,1
DA:2206,1
DA:2207,1
DA:2209,1
DA:2211,1
DA:2212,1
DA:2213,1
DA:2214,1
DA:2215,1
DA:2216,1
DA:2217,1
DA:2218,1
DA:2222,1
DA:2223,1
DA:2224,1
DA:2225,1
DA:2226,1
DA:2227,1
DA:2228,1
DA:2229,1
DA:2233,1
DA:2234,1
DA:2235,1
DA:2238,1
DA:2241,1
DA:2242,1
DA:2243,1
DA:2244,1
DA:2245,1
DA:2246,1
DA:2250,1
DA:2251,1
DA:2253,1
DA:2254,1
DA:2255,1
DA:2256,1
DA:2257,1
DA:2258,1
DA:2259,1
DA:2260,1
DA:2261,1
DA:2263,1
DA:2264,1
DA:2265,1
DA:2266,1
DA:2267,1
DA:2268,1
DA:2269,1
DA:2270,1
DA:2271,1
DA:2274,1
DA:2278,1
DA:2279,1
DA:2280,1
DA:2281,1
DA:2283,1
DA:2284,1
DA:2285,1
DA:2286,1
DA:2287,1
DA:2288,1
DA:2289,1
DA:2290,1
DA:2291,1
DA:2292,1
DA:2293,1
DA:2294,1
DA:2295,1
DA:2298,1
DA:2299,1
DA:2300,1
DA:2301,1
DA:2302,1
DA:2303,1
DA:2304,1
DA:2305,1
DA:2306,1
DA:2307,1
DA:2308,1
DA:2309,1
DA:2310,1
DA:2311,1
DA:2312,1
DA:2313,1
DA:2314,1
DA:2315,1
DA:2316,1
DA:2317,1
DA:2318,1
DA:2319,1
DA:2320,1
DA:2321,1
DA:2322,1
DA:2327,1
DA:2328,1
DA:2329,1
DA:2330,1
DA:2331,1
DA:2332,1
DA:2333,1
DA:2334,1
DA:2335,1
DA:2337,1
DA:2338,1
DA:2339,1
DA:2340,1
DA:2341,1
DA:2342,1
DA:2345,1
DA:2346,1
DA:2347,1
DA:2348,1
DA:2349,1
DA:2350,1
DA:2351,1
DA:2352,1
DA:2353,2
DA:2354,1
DA:2355,1
DA:2356,1
DA:2357,1
DA:2358,1
DA:2359,1
DA:2360,1
DA:2361,1
DA:2362,1
DA:2363,1
DA:2364,1
DA:2365,1
DA:2366,1
DA:2367,1
DA:2368,1
DA:2369,1
DA:2370,1
DA:2371,1
DA:2372,1
DA:2373,1
DA:2374,1
DA:2375,1
DA:2376,1
DA:2377,1
DA:2378,1
DA:2379,1
DA:2382,1
DA:2383,1
DA:2384,1
DA:2385,1
DA:2386,1
DA:2387,1
DA:2388,1
DA:2389,1
DA:2390,1
DA:2391,1
DA:2392,1
DA:2393,1
DA:2394,1
DA:2395,1
DA:2396,1
DA:2397,1
DA:2398,1
DA:2399,2
DA:2400,1
DA:2401,1
DA:2402,1
DA:2403,1
DA:2404,1
DA:2405,1
DA:2406,1
DA:2407,1
DA:2408,1
DA:2409,1
DA:2410,1
DA:2411,1
DA:2412,1
DA:2413,1
DA:2414,1
DA:2415,1
DA:2416,1
DA:2419,1
DA:2424,1
DA:2425,1
DA:2426,1
DA:2427,1
DA:2428,1
DA:2429,1
DA:2430,1
DA:2431,1
DA:2432,1
DA:2433,1
DA:2434,1
DA:2435,1
DA:2436,1
DA:2437,1
DA:2438,1
DA:2439,1
DA:2440,1
DA:2441,1
DA:2442,1
DA:2443,1
DA:2444,1
DA:2445,1
DA:2446,1
DA:2447,1
DA:2448,1
DA:2449,1
DA:2450,1
DA:2451,1
DA:2452,1
DA:2453,1
DA:2454,1
DA:2455,1
DA:2456,1
DA:2457,1
DA:2458,1
DA:2459,1
DA:2460,1
DA:2461,1
DA:2462,1
DA:2463,1
DA:2466,1
DA:2467,1
DA:2468,1
DA:2469,1
DA:2470,1
DA:2471,1
DA:2472,1
DA:2473,1
DA:2474,1
DA:2475,1
DA:2476,1
DA:2477,1
DA:2478,1
DA:2479,1
DA:2480,1
DA:2481,1
DA:2482,1
DA:2483,1
DA:2484,1
DA:2485,1
DA:2486,1
DA:2487,1
DA:2488,1
DA:2489,1
DA:2490,1
DA:2491,1
DA:2492,1
DA:2493,1
DA:2494,1
DA:2495,1
DA:2496,1
DA:2497,1
DA:2498,1
DA:2499,1
DA:2500,1
DA:2501,1
DA:2502,1
DA:2505,1
DA:2506,1
DA:2507,1
DA:2508,1
DA:2509,1
DA:2510,1
DA:2511,1
DA:2512,1
DA:2513,1
DA:2514,1
DA:2515,1
DA:2516,1
DA:2517,1
DA:2518,1
DA:2519,1
DA:2520,1
DA:2521,1
DA:2522,1
DA:2523,1
DA:2524,1
DA:2525,1
DA:2526,1
DA:2527,1
DA:2528,1
DA:2529,1
DA:2530,1
DA:2531,1
DA:2532,1
DA:2533,1
DA:2534,1
DA:2535,1
DA:2536,1
DA:2537,1
DA:2538,1
DA:2539,1
DA:2540,1
DA:2541,1
DA:2542,1
DA:2543,1
DA:2544,1
DA:2545,1
DA:2548,1
DA:2550,1
DA:2551,1
DA:2552,1
DA:2553,1
DA:2554,1
DA:2555,1
DA:2556,1
DA:2557,1
DA:2558,1
DA:2561,1
DA:2564,1
DA:2565,1
DA:2566,1
DA:2567,1
DA:2570,4
DA:2571,4
DA:2572,4
DA:2573,4
DA:2574,4
DA:2575,4
DA:2576,4
DA:2577,4
DA:2578,4
DA:2579,4
DA:2580,4
DA:2581,4
DA:2582,4
DA:2583,4
DA:2584,4
DA:2585,4
DA:2586,4
DA:2587,4
DA:2588,4
DA:2589,4
DA:2590,4
DA:2591,4
DA:2594,1
DA:2595,1
DA:2596,1
DA:2597,1
DA:2599,1
DA:2600,1
DA:2601,1
DA:2602,1
DA:2603,1
DA:2604,1
DA:2605,1
DA:2606,1
DA:2607,1
DA:2608,1
DA:2610,1
DA:2611,1
DA:2612,1
DA:2613,1
DA:2614,1
DA:2615,1
DA:2616,1
DA:2617,1
DA:2618,1
DA:2621,1
DA:2622,1
DA:2623,1
DA:2624,1
DA:2626,1
DA:2627,1
DA:2628,1
DA:2629,1
DA:2630,1
DA:2631,1
DA:2632,1
DA:2633,1
DA:2634,1
DA:2635,1
DA:2637,1
DA:2638,1
DA:2639,1
DA:2640,1
DA:2641,1
DA:2642,1
DA:2643,1
DA:2644,1
DA:2645,1
DA:2648,1
DA:2649,1
DA:2650,1
DA:2651,1
DA:2653,1
DA:2654,1
DA:2655,1
DA:2656,1
DA:2657,1
DA:2658,1
DA:2659,1
DA:2660,1
DA:2661,1
DA:2662,1
DA:2664,1
DA:2665,1
DA:2666,1
DA:2667,1
DA:2668,1
DA:2669,1
DA:2670,1
DA:2671,1
DA:2674,1
DA:2675,1
DA:2676,1
DA:2677,1
DA:2679,1
DA:2680,1
DA:2681,1
DA:2682,1
DA:2683,1
DA:2684,1
DA:2685,1
DA:2686,1
DA:2687,1
DA:2688,1
DA:2689,1
DA:2690,1
DA:2692,1
DA:2693,1
DA:2694,1
DA:2695,1
DA:2696,1
DA:2697,1
DA:2698,1
DA:2701,1
DA:2704,1
DA:2705,1
DA:2706,1
DA:2709,1
DA:2710,1
DA:2711,1
DA:2712,1
DA:2713,1
DA:2714,1
DA:2715,1
DA:2716,1
DA:2717,1
DA:2718,1
DA:2719,1
DA:2720,1
DA:2721,1
DA:2722,1
DA:2723,1
DA:2724,1
DA:2725,1
DA:2726,1
DA:2727,1
DA:2728,1
DA:2729,1
DA:2730,1
DA:2731,1
DA:2732,1
DA:2733,1
DA:2736,1
DA:2737,1
DA:2738,1
DA:2739,1
DA:2740,1
DA:2741,1
DA:2744,1
DA:2746,1
DA:2747,1
DA:2748,1
DA:2749,1
DA:2750,1
DA:2751,1
DA:2752,1
DA:2753,1
DA:2754,1
DA:2755,1
DA:2756,1
DA:2757,1
DA:2758,1
DA:2759,1
DA:2760,1
DA:2761,1
DA:2762,1
DA:2763,1
DA:2764,1
DA:2765,1
DA:2766,1
DA:2767,1
DA:2768,1
DA:2769,1
DA:2770,1
DA:2773,1
DA:2774,1
DA:2775,1
DA:2776,1
DA:2777,1
DA:2778,1
DA:2783,1
DA:2784,1
DA:2785,1
DA:2786,1
DA:2788,1
DA:2789,1
DA:2790,1
DA:2791,1
DA:2792,1
DA:2793,1
DA:2794,1
DA:2797,1
DA:2798,1
DA:2799,1
DA:2800,1
DA:2801,1
DA:2802,1
DA:2803,1
DA:2806,1
DA:2807,1
DA:2808,1
DA:2811,1
DA:2812,1
DA:2813,1
DA:2814,1
DA:2815,0
DA:2817,1
DA:2818,1
DA:2819,1
DA:2822,1
DA:2823,1
DA:2824,1
DA:2825,1
DA:2826,1
DA:2827,1
DA:2828,1
DA:2829,0
DA:2831,1
DA:2832,1
DA:2833,1
DA:2836,1
DA:2837,1
DA:2838,1
DA:2839,1
DA:2840,1
DA:2841,1
DA:2842,1
DA:2844,1
DA:2845,1
DA:2846,1
DA:2849,1
DA:2850,1
DA:2851,1
DA:2852,1
DA:2853,1
DA:2854,1
DA:2855,1
DA:2856,1
DA:2857,1
DA:2858,1
DA:2859,1
DA:2860,1
DA:2861,1
DA:2862,1
DA:2863,1
DA:2864,1
DA:2865,1
DA:2866,1
DA:2867,1
DA:2870,1
DA:2871,1
DA:2872,1
DA:2873,1
DA:2874,1
DA:2875,1
DA:2876,1
DA:2879,1
DA:2880,1
DA:2881,1
DA:2882,1
DA:2883,1
DA:2884,1
DA:2887,1
DA:2894,1
DA:2895,1
DA:2896,1
DA:2897,1
DA:2900,1
DA:2901,1
DA:2902,1
DA:2903,1
DA:2904,1
DA:2906,1
DA:2907,1
DA:2908,1
DA:2909,1
DA:2910,1
DA:2911,1
DA:2914,1
DA:2915,1
DA:2916,1
DA:2917,1
DA:2918,1
DA:2919,1
DA:2920,1
DA:2921,1
DA:2922,1
DA:2923,1
DA:2926,1
DA:2927,1
DA:2928,1
DA:2929,1
DA:2930,1
DA:2931,1
DA:2932,1
DA:2933,1
DA:2934,1
DA:2935,1
DA:2936,1
DA:2937,1
DA:2938,1
DA:2939,1
DA:2942,1
DA:2943,1
DA:2944,1
DA:2945,1
DA:2946,1
DA:2947,1
DA:2948,1
DA:2949,1
DA:2952,1
DA:2953,1
DA:2954,1
DA:2955,1
DA:2956,1
DA:2957,1
DA:2958,1
DA:2959,1
DA:2960,1
DA:2961,1
DA:2962,1
DA:2963,1
DA:2964,1
DA:2967,1
DA:2971,1
DA:2972,1
DA:2973,1
DA:2974,1
DA:2975,0
DA:2977,1
DA:2978,1
DA:2979,1
DA:2982,1
DA:2983,1
DA:2984,1
DA:2985,1
DA:2986,1
DA:3103,1
DA:3104,1
DA:3105,1
DA:3106,1
DA:3107,1
DA:3108,1
DA:3109,1
DA:3111,1
DA:3112,1
DA:3115,1
DA:3116,1
DA:3117,1
DA:3118,1
DA:3119,1
DA:3120,1
DA:3121,1
DA:3122,1
DA:3123,1
DA:3124,1
DA:3125,1
DA:3126,1
BRF:0
BRH:0
LF:2018
LH:1484
end_of_record
SF:/app/autumn/src/auth.rs
FN:279,_RINvMs1_NtCslNlzF6u6e2e_10autumn_web4authNtB6_11RequireAuth3newpEB8_
FN:223,_RNCNCNvXININtCslNlzF6u6e2e_10autumn_web4auth0ppEINtB9_4AuthpEINtNtCsemqjQd4VUoN_9axum_core7extract16FromRequestPartspE18from_request_parts00Bb_
FN:223,_RNCNCNvXININtCslNlzF6u6e2e_10autumn_web4auth0ppEINtB9_4AuthpEINtNtCsemqjQd4VUoN_9axum_core7extract16FromRequestPartspE18from_request_parts0s_0Bb_
FN:223,_RNCNvXININtCslNlzF6u6e2e_10autumn_web4auth0ppEINtB7_4AuthpEINtNtCsemqjQd4VUoN_9axum_core7extract16FromRequestPartspE18from_request_parts0B9_
FN:327,_RNCNvXININtCslNlzF6u6e2e_10autumn_web4auths3_0ppEINtB7_18RequireAuthServicepEINtCs9j4nKNK4ihi_13tower_service7ServiceINtNtCs9nCgvg33Qqo_4http7request7RequestNtNtCsemqjQd4VUoN_9axum_core4body4BodyEE4call0B9_
FN:218,_RNvXININtCslNlzF6u6e2e_10autumn_web4auth0ppEINtB5_4AuthpEINtNtCsemqjQd4VUoN_9axum_core7extract16FromRequestPartspE18from_request_partsB7_
FN:289,_RNvXININtCslNlzF6u6e2e_10autumn_web4auths2_0pENtB5_11RequireAuthINtCscMAT8yzRe8V_11tower_layer5LayerpE5layerB7_
FN:318,_RNvXININtCslNlzF6u6e2e_10autumn_web4auths3_0ppEINtB5_18RequireAuthServicepEINtCs9j4nKNK4ihi_13tower_service7ServiceINtNtCs9nCgvg33Qqo_4http7request7RequestNtNtCsemqjQd4VUoN_9axum_core4body4BodyEE10poll_readyB7_
FN:322,_RNvXININtCslNlzF6u6e2e_10autumn_web4auths3_0ppEINtB5_18RequireAuthServicepEINtCs9j4nKNK4ihi_13tower_service7ServiceINtNtCs9nCgvg33Qqo_4http7request7RequestNtNtCsemqjQd4VUoN_9axum_core4body4BodyEE4callB7_
FN:89,_RNvNtCslNlzF6u6e2e_10autumn_web4auth13hash_password
FN:156,_RNvNtCslNlzF6u6e2e_10autumn_web4auth15___check_secured
FN:118,_RNvNtCslNlzF6u6e2e_10autumn_web4auth15verify_password
FN:380,_RNvNtCslNlzF6u6e2e_10autumn_web4auth19default_bcrypt_cost
FN:384,_RNvNtCslNlzF6u6e2e_10autumn_web4auth19default_session_key
FN:247,_RNvXs0_NtCslNlzF6u6e2e_10autumn_web4authNtB5_13AuthRejectionNtNtCs4kUJL3MZFFz_4core3fmt7Display3fmt
FN:389,_RNvXs4_NtCslNlzF6u6e2e_10autumn_web4authNtB5_10AuthConfigNtNtCs4kUJL3MZFFz_4core7default7Default7default
FN:232,_RNvXs_NtCslNlzF6u6e2e_10autumn_web4authNtB4_13AuthRejectionNtNtNtCsemqjQd4VUoN_9axum_core8response13into_response12IntoResponse13into_response
FN:93,_RNCNCNCNvNtCslNlzF6u6e2e_10autumn_web4auth13hash_password000B9_
FN:91,_RNCNCNvNtCslNlzF6u6e2e_10autumn_web4auth13hash_password00B7_
FN:96,_RNCNCNvNtCslNlzF6u6e2e_10autumn_web4auth13hash_password0s_0B7_
FN:171,_RNCNCNvNtCslNlzF6u6e2e_10autumn_web4auth15___check_secured00B7_
FN:132,_RNCNCNvNtCslNlzF6u6e2e_10autumn_web4auth15verify_password00B7_
FN:140,_RNCNCNvNtCslNlzF6u6e2e_10autumn_web4auth15verify_password0s0_0B7_
FN:134,_RNCNCNvNtCslNlzF6u6e2e_10autumn_web4auth15verify_password0s_0B7_
FN:89,_RNCNvNtCslNlzF6u6e2e_10autumn_web4auth13hash_password0B5_
FN:159,_RNCNvNtCslNlzF6u6e2e_10autumn_web4auth15___check_secured0B5_
FN:118,_RNCNvNtCslNlzF6u6e2e_10autumn_web4auth15verify_password0B5_
FN:1034,_RNvXNCNvNtNtCs39mWnhFxKmJ_10autumn_web4auth5testss_34require_auth_poll_ready_propagates0NtB2_11MockServiceINtCs9j4nKNK4ihi_13tower_service7ServiceINtNtCs9nCgvg33Qqo_4http7request7RequestNtNtCsemqjQd4VUoN_9axum_core4body4BodyEE4call
FN:468,_RNvNCNvNtNtCs39mWnhFxKmJ_10autumn_web4auth5testss_39auth_extractor_returns_401_when_no_user07handler
FN:520,_RNvNCNvNtNtCs39mWnhFxKmJ_10autumn_web4auth5testss_40auth_extractor_returns_user_when_present07handler
FN:1087,_RNvNtNtCs39mWnhFxKmJ_10autumn_web4auth5testss_18test_hash_password
FN:437,_RNvNtNtCs39mWnhFxKmJ_10autumn_web4auth5testss_20auth_config_defaults
FN:444,_RNvNtNtCs39mWnhFxKmJ_10autumn_web4auth5testss_21auth_rejection_is_401
FN:451,_RNvNtNtCs39mWnhFxKmJ_10autumn_web4auth5testss_22auth_rejection_display
FN:402,_RNvNtNtCs39mWnhFxKmJ_10autumn_web4auth5testss_24hash_and_verify_password
FN:1080,_RNvNtNtCs39mWnhFxKmJ_10autumn_web4auth5testss_25test_auth_config_defaults
FN:1067,_RNvNtNtCs39mWnhFxKmJ_10autumn_web4auth5testss_28auth_rejection_into_response
FN:648,_RNvNtNtCs39mWnhFxKmJ_10autumn_web4auth5testss_32check_secured_rejects_wrong_role
FN:948,_RNvNtNtCs39mWnhFxKmJ_10autumn_web4auth5testss_33require_auth_allows_authenticated
FN:410,_RNvNtNtCs39mWnhFxKmJ_10autumn_web4auth5testss_33verify_invalid_hash_returns_false
FN:640,_RNvNtNtCs39mWnhFxKmJ_10autumn_web4auth5testss_34check_secured_allows_authenticated
FN:662,_RNvNtNtCs39mWnhFxKmJ_10autumn_web4auth5testss_34check_secured_allows_matching_role
FN:1009,_RNvNtNtCs39mWnhFxKmJ_10autumn_web4auth5testss_34require_auth_poll_ready_propagates
FN:742,_RNvNtNtCs39mWnhFxKmJ_10autumn_web4auth5testss_34secured_macro_allows_authenticated
FN:575,_RNvNtNtCs39mWnhFxKmJ_10autumn_web4auth5testss_36require_auth_rejects_unauthenticated
FN:629,_RNvNtNtCs39mWnhFxKmJ_10autumn_web4auth5testss_37check_secured_rejects_unauthenticated
FN:686,_RNvNtNtCs39mWnhFxKmJ_10autumn_web4auth5testss_37secured_macro_rejects_unauthenticated
FN:456,_RNvNtNtCs39mWnhFxKmJ_10autumn_web4auth5testss_39auth_extractor_returns_401_when_no_user
FN:508,_RNvNtNtCs39mWnhFxKmJ_10autumn_web4auth5testss_40auth_extractor_returns_user_when_present
FN:673,_RNvNtNtCs39mWnhFxKmJ_10autumn_web4auth5testss_42check_secured_allows_any_of_multiple_roles
FN:810,_RNvNtNtCs39mWnhFxKmJ_10autumn_web4auth5testss_42secured_macro_with_role_rejects_wrong_role
FN:877,_RNvNtNtCs39mWnhFxKmJ_10autumn_web4auth5testss_46secured_macro_with_multiple_roles_allows_match
FN:417,_RNvNtNtCs39mWnhFxKmJ_10autumn_web4auth5testss_50verify_password_rejects_invalid_hash_format_safely
FN:1024,_RNvXNCNvNtNtCs39mWnhFxKmJ_10autumn_web4auth5testss_34require_auth_poll_ready_propagates0NtB2_11MockServiceINtCs9j4nKNK4ihi_13tower_service7ServiceINtNtCs9nCgvg33Qqo_4http7request7RequestNtNtCsemqjQd4VUoN_9axum_core4body4BodyEE10poll_ready
FN:985,_RNCNCNCNvNtNtCs39mWnhFxKmJ_10autumn_web4auth5testss_33require_auth_allows_authenticated000Bb_
FN:605,_RNCNCNCNvNtNtCs39mWnhFxKmJ_10autumn_web4auth5testss_36require_auth_rejects_unauthenticated000Bb_
FN:548,_RNCNCNCNvNtNtCs39mWnhFxKmJ_10autumn_web4auth5testss_40auth_extractor_returns_user_when_present000Bb_
FN:985,_RNCNCNvNtNtCs39mWnhFxKmJ_10autumn_web4auth5testss_33require_auth_allows_authenticated00B9_
FN:605,_RNCNCNvNtNtCs39mWnhFxKmJ_10autumn_web4auth5testss_36require_auth_rejects_unauthenticated00B9_
FN:553,_RNCNCNvNtNtCs39mWnhFxKmJ_10autumn_web4auth5testss_40auth_extractor_returns_user_when_present00B9_
FN:468,_RNCNvNCNvNtNtCs39mWnhFxKmJ_10autumn_web4auth5testss_39auth_extractor_returns_401_when_no_user07handler0Bb_
FN:520,_RNCNvNCNvNtNtCs39mWnhFxKmJ_10autumn_web4auth5testss_40auth_extractor_returns_user_when_present07handler0Bb_
FN:1087,_RNCNvNtNtCs39mWnhFxKmJ_10autumn_web4auth5testss_18test_hash_password0B7_
FN:402,_RNCNvNtNtCs39mWnhFxKmJ_10autumn_web4auth5testss_24hash_and_verify_password0B7_
FN:1067,_RNCNvNtNtCs39mWnhFxKmJ_10autumn_web4auth5testss_28auth_rejection_into_response0B7_
FN:648,_RNCNvNtNtCs39mWnhFxKmJ_10autumn_web4auth5testss_32check_secured_rejects_wrong_role0B7_
FN:948,_RNCNvNtNtCs39mWnhFxKmJ_10autumn_web4auth5testss_33require_auth_allows_authenticated0B7_
FN:410,_RNCNvNtNtCs39mWnhFxKmJ_10autumn_web4auth5testss_33verify_invalid_hash_returns_false0B7_
FN:640,_RNCNvNtNtCs39mWnhFxKmJ_10autumn_web4auth5testss_34check_secured_allows_authenticated0B7_
FN:662,_RNCNvNtNtCs39mWnhFxKmJ_10autumn_web4auth5testss_34check_secured_allows_matching_role0B7_
FN:1009,_RNCNvNtNtCs39mWnhFxKmJ_10autumn_web4auth5testss_34require_auth_poll_ready_propagates0B7_
FN:742,_RNCNvNtNtCs39mWnhFxKmJ_10autumn_web4auth5testss_34secured_macro_allows_authenticated0B7_
FN:575,_RNCNvNtNtCs39mWnhFxKmJ_10autumn_web4auth5testss_36require_auth_rejects_unauthenticated0B7_
FN:629,_RNCNvNtNtCs39mWnhFxKmJ_10autumn_web4auth5testss_37check_secured_rejects_unauthenticated0B7_
FN:686,_RNCNvNtNtCs39mWnhFxKmJ_10autumn_web4auth5testss_37secured_macro_rejects_unauthenticated0B7_
FN:456,_RNCNvNtNtCs39mWnhFxKmJ_10autumn_web4auth5testss_39auth_extractor_returns_401_when_no_user0B7_
FN:508,_RNCNvNtNtCs39mWnhFxKmJ_10autumn_web4auth5testss_40auth_extractor_returns_user_when_present0B7_
FN:673,_RNCNvNtNtCs39mWnhFxKmJ_10autumn_web4auth5testss_42check_secured_allows_any_of_multiple_roles0B7_
FN:810,_RNCNvNtNtCs39mWnhFxKmJ_10autumn_web4auth5testss_42secured_macro_with_role_rejects_wrong_role0B7_
FN:877,_RNCNvNtNtCs39mWnhFxKmJ_10autumn_web4auth5testss_46secured_macro_with_multiple_roles_allows_match0B7_
FN:417,_RNCNvNtNtCs39mWnhFxKmJ_10autumn_web4auth5testss_50verify_password_rejects_invalid_hash_format_safely0B7_
FN:279,_RINvMs1_NtCs39mWnhFxKmJ_10autumn_web4authNtB6_11RequireAuth3newReEB8_
FN:93,_RNCNCNCNvNtCs39mWnhFxKmJ_10autumn_web4auth13hash_password000B9_
FN:91,_RNCNCNvNtCs39mWnhFxKmJ_10autumn_web4auth13hash_password00B7_
FN:96,_RNCNCNvNtCs39mWnhFxKmJ_10autumn_web4auth13hash_password0s_0B7_
FN:171,_RNCNCNvNtCs39mWnhFxKmJ_10autumn_web4auth15___check_secured00B7_
FN:132,_RNCNCNvNtCs39mWnhFxKmJ_10autumn_web4auth15verify_password00B7_
FN:140,_RNCNCNvNtCs39mWnhFxKmJ_10autumn_web4auth15verify_password0s0_0B7_
FN:134,_RNCNCNvNtCs39mWnhFxKmJ_10autumn_web4auth15verify_password0s_0B7_
FN:223,_RNCNCNvXNtCs39mWnhFxKmJ_10autumn_web4authINtB6_4AuthNtNCNvNtB6_5testss_39auth_extractor_returns_401_when_no_user08TestUserEINtNtCsemqjQd4VUoN_9axum_core7extract16FromRequestPartsNtNtB8_5state8AppStateE18from_request_parts00B8_
FN:223,_RNCNCNvXNtCs39mWnhFxKmJ_10autumn_web4authINtB6_4AuthNtNCNvNtB6_5testss_39auth_extractor_returns_401_when_no_user08TestUserEINtNtCsemqjQd4VUoN_9axum_core7extract16FromRequestPartsNtNtB8_5state8AppStateE18from_request_parts0s_0B8_
FN:223,_RNCNCNvXNtCs39mWnhFxKmJ_10autumn_web4authINtB6_4AuthNtNCNvNtB6_5testss_40auth_extractor_returns_user_when_present08TestUserEINtNtCsemqjQd4VUoN_9axum_core7extract16FromRequestPartsNtNtB8_5state8AppStateE18from_request_parts00B8_
FN:223,_RNCNCNvXNtCs39mWnhFxKmJ_10autumn_web4authINtB6_4AuthNtNCNvNtB6_5testss_40auth_extractor_returns_user_when_present08TestUserEINtNtCsemqjQd4VUoN_9axum_core7extract16FromRequestPartsNtNtB8_5state8AppStateE18from_request_parts0s_0B8_
FN:89,_RNCNvNtCs39mWnhFxKmJ_10autumn_web4auth13hash_password0B5_
FN:159,_RNCNvNtCs39mWnhFxKmJ_10autumn_web4auth15___check_secured0B5_
FN:118,_RNCNvNtCs39mWnhFxKmJ_10autumn_web4auth15verify_password0B5_
FN:223,_RNCNvXNtCs39mWnhFxKmJ_10autumn_web4authINtB4_4AuthNtNCNvNtB4_5testss_39auth_extractor_returns_401_when_no_user08TestUserEINtNtCsemqjQd4VUoN_9axum_core7extract16FromRequestPartsNtNtB6_5state8AppStateE18from_request_parts0B6_
FN:223,_RNCNvXNtCs39mWnhFxKmJ_10autumn_web4authINtB4_4AuthNtNCNvNtB4_5testss_40auth_extractor_returns_user_when_present08TestUserEINtNtCsemqjQd4VUoN_9axum_core7extract16FromRequestPartsNtNtB6_5state8AppStateE18from_request_parts0B6_
FN:327,_RNCNvXs3_NtCs39mWnhFxKmJ_10autumn_web4authINtB7_18RequireAuthServiceNtNtNtCs2SFNBOiMNMK_4axum7routing5route5RouteEINtCs9j4nKNK4ihi_13tower_service7ServiceINtNtCs9nCgvg33Qqo_4http7request7RequestNtNtCsemqjQd4VUoN_9axum_core4body4BodyEE4call0B9_
FN:218,_RNvXNtCs39mWnhFxKmJ_10autumn_web4authINtB2_4AuthNtNCNvNtB2_5testss_39auth_extractor_returns_401_when_no_user08TestUserEINtNtCsemqjQd4VUoN_9axum_core7extract16FromRequestPartsNtNtB4_5state8AppStateE18from_request_partsB4_
FN:218,_RNvXNtCs39mWnhFxKmJ_10autumn_web4authINtB2_4AuthNtNCNvNtB2_5testss_40auth_extractor_returns_user_when_present08TestUserEINtNtCsemqjQd4VUoN_9axum_core7extract16FromRequestPartsNtNtB4_5state8AppStateE18from_request_partsB4_
FN:289,_RNvXs2_NtCs39mWnhFxKmJ_10autumn_web4authNtB5_11RequireAuthINtCscMAT8yzRe8V_11tower_layer5LayerNtNCNvNtB5_5testss_34require_auth_poll_ready_propagates011MockServiceE5layerB7_
FN:289,_RNvXs2_NtCs39mWnhFxKmJ_10autumn_web4authNtB5_11RequireAuthINtCscMAT8yzRe8V_11tower_layer5LayerNtNtNtCs2SFNBOiMNMK_4axum7routing5route5RouteE5layerB7_
FN:318,_RNvXs3_NtCs39mWnhFxKmJ_10autumn_web4authINtB5_18RequireAuthServiceNtNCNvNtB5_5testss_34require_auth_poll_ready_propagates011MockServiceEINtCs9j4nKNK4ihi_13tower_service7ServiceINtNtCs9nCgvg33Qqo_4http7request7RequestNtNtCsemqjQd4VUoN_9axum_core4body4BodyEE10poll_readyB7_
FN:318,_RNvXs3_NtCs39mWnhFxKmJ_10autumn_web4authINtB5_18RequireAuthServiceNtNtNtCs2SFNBOiMNMK_4axum7routing5route5RouteEINtCs9j4nKNK4ihi_13tower_service7ServiceINtNtCs9nCgvg33Qqo_4http7request7RequestNtNtCsemqjQd4VUoN_9axum_core4body4BodyEE10poll_readyB7_
FN:322,_RNvXs3_NtCs39mWnhFxKmJ_10autumn_web4authINtB5_18RequireAuthServiceNtNtNtCs2SFNBOiMNMK_4axum7routing5route5RouteEINtCs9j4nKNK4ihi_13tower_service7ServiceINtNtCs9nCgvg33Qqo_4http7request7RequestNtNtCsemqjQd4VUoN_9axum_core4body4BodyEE4callB7_
FN:89,_RNvNtCs39mWnhFxKmJ_10autumn_web4auth13hash_password
FN:156,_RNvNtCs39mWnhFxKmJ_10autumn_web4auth15___check_secured
FN:118,_RNvNtCs39mWnhFxKmJ_10autumn_web4auth15verify_password
FN:380,_RNvNtCs39mWnhFxKmJ_10autumn_web4auth19default_bcrypt_cost
FN:384,_RNvNtCs39mWnhFxKmJ_10autumn_web4auth19default_session_key
FN:247,_RNvXs0_NtCs39mWnhFxKmJ_10autumn_web4authNtB5_13AuthRejectionNtNtCs4kUJL3MZFFz_4core3fmt7Display3fmt
FN:389,_RNvXs4_NtCs39mWnhFxKmJ_10autumn_web4authNtB5_10AuthConfigNtNtCs4kUJL3MZFFz_4core7default7Default7default
FN:232,_RNvXs_NtCs39mWnhFxKmJ_10autumn_web4authNtB4_13AuthRejectionNtNtNtCsemqjQd4VUoN_9axum_core8response13into_response12IntoResponse13into_response
FNDA:0,_RINvMs1_NtCslNlzF6u6e2e_10autumn_web4authNtB6_11RequireAuth3newpEB8_
FNDA:0,_RNCNCNvXININtCslNlzF6u6e2e_10autumn_web4auth0ppEINtB9_4AuthpEINtNtCsemqjQd4VUoN_9axum_core7extract16FromRequestPartspE18from_request_parts00Bb_
FNDA:0,_RNCNCNvXININtCslNlzF6u6e2e_10autumn_web4auth0ppEINtB9_4AuthpEINtNtCsemqjQd4VUoN_9axum_core7extract16FromRequestPartspE18from_request_parts0s_0Bb_
FNDA:0,_RNCNvXININtCslNlzF6u6e2e_10autumn_web4auth0ppEINtB7_4AuthpEINtNtCsemqjQd4VUoN_9axum_core7extract16FromRequestPartspE18from_request_parts0B9_
FNDA:0,_RNCNvXININtCslNlzF6u6e2e_10autumn_web4auths3_0ppEINtB7_18RequireAuthServicepEINtCs9j4nKNK4ihi_13tower_service7ServiceINtNtCs9nCgvg33Qqo_4http7request7RequestNtNtCsemqjQd4VUoN_9axum_core4body4BodyEE4call0B9_
FNDA:0,_RNvXININtCslNlzF6u6e2e_10autumn_web4auth0ppEINtB5_4AuthpEINtNtCsemqjQd4VUoN_9axum_core7extract16FromRequestPartspE18from_request_partsB7_
FNDA:0,_RNvXININtCslNlzF6u6e2e_10autumn_web4auths2_0pENtB5_11RequireAuthINtCscMAT8yzRe8V_11tower_layer5LayerpE5layerB7_
FNDA:0,_RNvXININtCslNlzF6u6e2e_10autumn_web4auths3_0ppEINtB5_18RequireAuthServicepEINtCs9j4nKNK4ihi_13tower_service7ServiceINtNtCs9nCgvg33Qqo_4http7request7RequestNtNtCsemqjQd4VUoN_9axum_core4body4BodyEE10poll_readyB7_
FNDA:0,_RNvXININtCslNlzF6u6e2e_10autumn_web4auths3_0ppEINtB5_18RequireAuthServicepEINtCs9j4nKNK4ihi_13tower_service7ServiceINtNtCs9nCgvg33Qqo_4http7request7RequestNtNtCsemqjQd4VUoN_9axum_core4body4BodyEE4callB7_
FNDA:66,_RNvNtCslNlzF6u6e2e_10autumn_web4auth13hash_password
FNDA:0,_RNvNtCslNlzF6u6e2e_10autumn_web4auth15___check_secured
FNDA:7,_RNvNtCslNlzF6u6e2e_10autumn_web4auth15verify_password
FNDA:37,_RNvNtCslNlzF6u6e2e_10autumn_web4auth19default_bcrypt_cost
FNDA:37,_RNvNtCslNlzF6u6e2e_10autumn_web4auth19default_session_key
FNDA:0,_RNvXs0_NtCslNlzF6u6e2e_10autumn_web4authNtB5_13AuthRejectionNtNtCs4kUJL3MZFFz_4core3fmt7Display3fmt
FNDA:37,_RNvXs4_NtCslNlzF6u6e2e_10autumn_web4authNtB5_10AuthConfigNtNtCs4kUJL3MZFFz_4core7default7Default7default
FNDA:0,_RNvXs_NtCslNlzF6u6e2e_10autumn_web4authNtB4_13AuthRejectionNtNtNtCsemqjQd4VUoN_9axum_core8response13into_response12IntoResponse13into_response
FNDA:0,_RNCNCNCNvNtCslNlzF6u6e2e_10autumn_web4auth13hash_password000B9_
FNDA:66,_RNCNCNvNtCslNlzF6u6e2e_10autumn_web4auth13hash_password00B7_
FNDA:0,_RNCNCNvNtCslNlzF6u6e2e_10autumn_web4auth13hash_password0s_0B7_
FNDA:0,_RNCNCNvNtCslNlzF6u6e2e_10autumn_web4auth15___check_secured00B7_
FNDA:7,_RNCNCNvNtCslNlzF6u6e2e_10autumn_web4auth15verify_password00B7_
FNDA:0,_RNCNCNvNtCslNlzF6u6e2e_10autumn_web4auth15verify_password0s0_0B7_
FNDA:0,_RNCNCNvNtCslNlzF6u6e2e_10autumn_web4auth15verify_password0s_0B7_
FNDA:66,_RNCNvNtCslNlzF6u6e2e_10autumn_web4auth13hash_password0B5_
FNDA:0,_RNCNvNtCslNlzF6u6e2e_10autumn_web4auth15___check_secured0B5_
FNDA:7,_RNCNvNtCslNlzF6u6e2e_10autumn_web4auth15verify_password0B5_
FNDA:0,_RNvXNCNvNtNtCs39mWnhFxKmJ_10autumn_web4auth5testss_34require_auth_poll_ready_propagates0NtB2_11MockServiceINtCs9j4nKNK4ihi_13tower_service7ServiceINtNtCs9nCgvg33Qqo_4http7request7RequestNtNtCsemqjQd4VUoN_9axum_core4body4BodyEE4call
FNDA:0,_RNvNCNvNtNtCs39mWnhFxKmJ_10autumn_web4auth5testss_39auth_extractor_returns_401_when_no_user07handler
FNDA:1,_RNvNCNvNtNtCs39mWnhFxKmJ_10autumn_web4auth5testss_40auth_extractor_returns_user_when_present07handler
FNDA:1,_RNvNtNtCs39mWnhFxKmJ_10autumn_web4auth5testss_18test_hash_password
FNDA:1,_RNvNtNtCs39mWnhFxKmJ_10autumn_web4auth5testss_20auth_config_defaults
FNDA:1,_RNvNtNtCs39mWnhFxKmJ_10autumn_web4auth5testss_21auth_rejection_is_401
FNDA:1,_RNvNtNtCs39mWnhFxKmJ_10autumn_web4auth5testss_22auth_rejection_display
FNDA:1,_RNvNtNtCs39mWnhFxKmJ_10autumn_web4auth5testss_24hash_and_verify_password
FNDA:1,_RNvNtNtCs39mWnhFxKmJ_10autumn_web4auth5testss_25test_auth_config_defaults
FNDA:1,_RNvNtNtCs39mWnhFxKmJ_10autumn_web4auth5testss_28auth_rejection_into_response
FNDA:1,_RNvNtNtCs39mWnhFxKmJ_10autumn_web4auth5testss_32check_secured_rejects_wrong_role
FNDA:1,_RNvNtNtCs39mWnhFxKmJ_10autumn_web4auth5testss_33require_auth_allows_authenticated
FNDA:1,_RNvNtNtCs39mWnhFxKmJ_10autumn_web4auth5testss_33verify_invalid_hash_returns_false
FNDA:1,_RNvNtNtCs39mWnhFxKmJ_10autumn_web4auth5testss_34check_secured_allows_authenticated
FNDA:1,_RNvNtNtCs39mWnhFxKmJ_10autumn_web4auth5testss_34check_secured_allows_matching_role
FNDA:1,_RNvNtNtCs39mWnhFxKmJ_10autumn_web4auth5testss_34require_auth_poll_ready_propagates
FNDA:1,_RNvNtNtCs39mWnhFxKmJ_10autumn_web4auth5testss_34secured_macro_allows_authenticated
FNDA:1,_RNvNtNtCs39mWnhFxKmJ_10autumn_web4auth5testss_36require_auth_rejects_unauthenticated
FNDA:1,_RNvNtNtCs39mWnhFxKmJ_10autumn_web4auth5testss_37check_secured_rejects_unauthenticated
FNDA:1,_RNvNtNtCs39mWnhFxKmJ_10autumn_web4auth5testss_37secured_macro_rejects_unauthenticated
FNDA:1,_RNvNtNtCs39mWnhFxKmJ_10autumn_web4auth5testss_39auth_extractor_returns_401_when_no_user
FNDA:1,_RNvNtNtCs39mWnhFxKmJ_10autumn_web4auth5testss_40auth_extractor_returns_user_when_present
FNDA:1,_RNvNtNtCs39mWnhFxKmJ_10autumn_web4auth5testss_42check_secured_allows_any_of_multiple_roles
FNDA:1,_RNvNtNtCs39mWnhFxKmJ_10autumn_web4auth5testss_42secured_macro_with_role_rejects_wrong_role
FNDA:1,_RNvNtNtCs39mWnhFxKmJ_10autumn_web4auth5testss_46secured_macro_with_multiple_roles_allows_match
FNDA:1,_RNvNtNtCs39mWnhFxKmJ_10autumn_web4auth5testss_50verify_password_rejects_invalid_hash_format_safely
FNDA:2,_RNvXNCNvNtNtCs39mWnhFxKmJ_10autumn_web4auth5testss_34require_auth_poll_ready_propagates0NtB2_11MockServiceINtCs9j4nKNK4ihi_13tower_service7ServiceINtNtCs9nCgvg33Qqo_4http7request7RequestNtNtCsemqjQd4VUoN_9axum_core4body4BodyEE10poll_ready
FNDA:1,_RNCNCNCNvNtNtCs39mWnhFxKmJ_10autumn_web4auth5testss_33require_auth_allows_authenticated000Bb_
FNDA:0,_RNCNCNCNvNtNtCs39mWnhFxKmJ_10autumn_web4auth5testss_36require_auth_rejects_unauthenticated000Bb_
FNDA:1,_RNCNCNCNvNtNtCs39mWnhFxKmJ_10autumn_web4auth5testss_40auth_extractor_returns_user_when_present000Bb_
FNDA:1,_RNCNCNvNtNtCs39mWnhFxKmJ_10autumn_web4auth5testss_33require_auth_allows_authenticated00B9_
FNDA:0,_RNCNCNvNtNtCs39mWnhFxKmJ_10autumn_web4auth5testss_36require_auth_rejects_unauthenticated00B9_
FNDA:1,_RNCNCNvNtNtCs39mWnhFxKmJ_10autumn_web4auth5testss_40auth_extractor_returns_user_when_present00B9_
FNDA:0,_RNCNvNCNvNtNtCs39mWnhFxKmJ_10autumn_web4auth5testss_39auth_extractor_returns_401_when_no_user07handler0Bb_
FNDA:1,_RNCNvNCNvNtNtCs39mWnhFxKmJ_10autumn_web4auth5testss_40auth_extractor_returns_user_when_present07handler0Bb_
FNDA:1,_RNCNvNtNtCs39mWnhFxKmJ_10autumn_web4auth5testss_18test_hash_password0B7_
FNDA:1,_RNCNvNtNtCs39mWnhFxKmJ_10autumn_web4auth5testss_24hash_and_verify_password0B7_
FNDA:1,_RNCNvNtNtCs39mWnhFxKmJ_10autumn_web4auth5testss_28auth_rejection_into_response0B7_
FNDA:1,_RNCNvNtNtCs39mWnhFxKmJ_10autumn_web4auth5testss_32check_secured_rejects_wrong_role0B7_
FNDA:1,_RNCNvNtNtCs39mWnhFxKmJ_10autumn_web4auth5testss_33require_auth_allows_authenticated0B7_
FNDA:1,_RNCNvNtNtCs39mWnhFxKmJ_10autumn_web4auth5testss_33verify_invalid_hash_returns_false0B7_
FNDA:1,_RNCNvNtNtCs39mWnhFxKmJ_10autumn_web4auth5testss_34check_secured_allows_authenticated0B7_
FNDA:1,_RNCNvNtNtCs39mWnhFxKmJ_10autumn_web4auth5testss_34check_secured_allows_matching_role0B7_
FNDA:1,_RNCNvNtNtCs39mWnhFxKmJ_10autumn_web4auth5testss_34require_auth_poll_ready_propagates0B7_
FNDA:1,_RNCNvNtNtCs39mWnhFxKmJ_10autumn_web4auth5testss_34secured_macro_allows_authenticated0B7_
FNDA:1,_RNCNvNtNtCs39mWnhFxKmJ_10autumn_web4auth5testss_36require_auth_rejects_unauthenticated0B7_
FNDA:1,_RNCNvNtNtCs39mWnhFxKmJ_10autumn_web4auth5testss_37check_secured_rejects_unauthenticated0B7_
FNDA:1,_RNCNvNtNtCs39mWnhFxKmJ_10autumn_web4auth5testss_37secured_macro_rejects_unauthenticated0B7_
FNDA:1,_RNCNvNtNtCs39mWnhFxKmJ_10autumn_web4auth5testss_39auth_extractor_returns_401_when_no_user0B7_
FNDA:1,_RNCNvNtNtCs39mWnhFxKmJ_10autumn_web4auth5testss_40auth_extractor_returns_user_when_present0B7_
FNDA:1,_RNCNvNtNtCs39mWnhFxKmJ_10autumn_web4auth5testss_42check_secured_allows_any_of_multiple_roles0B7_
FNDA:1,_RNCNvNtNtCs39mWnhFxKmJ_10autumn_web4auth5testss_42secured_macro_with_role_rejects_wrong_role0B7_
FNDA:1,_RNCNvNtNtCs39mWnhFxKmJ_10autumn_web4auth5testss_46secured_macro_with_multiple_roles_allows_match0B7_
FNDA:1,_RNCNvNtNtCs39mWnhFxKmJ_10autumn_web4auth5testss_50verify_password_rejects_invalid_hash_format_safely0B7_
FNDA:3,_RINvMs1_NtCs39mWnhFxKmJ_10autumn_web4authNtB6_11RequireAuth3newReEB8_
FNDA:0,_RNCNCNCNvNtCs39mWnhFxKmJ_10autumn_web4auth13hash_password000B9_
FNDA:2,_RNCNCNvNtCs39mWnhFxKmJ_10autumn_web4auth13hash_password00B7_
FNDA:0,_RNCNCNvNtCs39mWnhFxKmJ_10autumn_web4auth13hash_password0s_0B7_
FNDA:7,_RNCNCNvNtCs39mWnhFxKmJ_10autumn_web4auth15___check_secured00B7_
FNDA:8,_RNCNCNvNtCs39mWnhFxKmJ_10autumn_web4auth15verify_password00B7_
FNDA:0,_RNCNCNvNtCs39mWnhFxKmJ_10autumn_web4auth15verify_password0s0_0B7_
FNDA:0,_RNCNCNvNtCs39mWnhFxKmJ_10autumn_web4auth15verify_password0s_0B7_
FNDA:1,_RNCNCNvXNtCs39mWnhFxKmJ_10autumn_web4authINtB6_4AuthNtNCNvNtB6_5testss_39auth_extractor_returns_401_when_no_user08TestUserEINtNtCsemqjQd4VUoN_9axum_core7extract16FromRequestPartsNtNtB8_5state8AppStateE18from_request_parts00B8_
FNDA:0,_RNCNCNvXNtCs39mWnhFxKmJ_10autumn_web4authINtB6_4AuthNtNCNvNtB6_5testss_39auth_extractor_returns_401_when_no_user08TestUserEINtNtCsemqjQd4VUoN_9axum_core7extract16FromRequestPartsNtNtB8_5state8AppStateE18from_request_parts0s_0B8_
FNDA:0,_RNCNCNvXNtCs39mWnhFxKmJ_10autumn_web4authINtB6_4AuthNtNCNvNtB6_5testss_40auth_extractor_returns_user_when_present08TestUserEINtNtCsemqjQd4VUoN_9axum_core7extract16FromRequestPartsNtNtB8_5state8AppStateE18from_request_parts00B8_
FNDA:1,_RNCNCNvXNtCs39mWnhFxKmJ_10autumn_web4authINtB6_4AuthNtNCNvNtB6_5testss_40auth_extractor_returns_user_when_present08TestUserEINtNtCsemqjQd4VUoN_9axum_core7extract16FromRequestPartsNtNtB8_5state8AppStateE18from_request_parts0s_0B8_
FNDA:2,_RNCNvNtCs39mWnhFxKmJ_10autumn_web4auth13hash_password0B5_
FNDA:9,_RNCNvNtCs39mWnhFxKmJ_10autumn_web4auth15___check_secured0B5_
FNDA:8,_RNCNvNtCs39mWnhFxKmJ_10autumn_web4auth15verify_password0B5_
FNDA:1,_RNCNvXNtCs39mWnhFxKmJ_10autumn_web4authINtB4_4AuthNtNCNvNtB4_5testss_39auth_extractor_returns_401_when_no_user08TestUserEINtNtCsemqjQd4VUoN_9axum_core7extract16FromRequestPartsNtNtB6_5state8AppStateE18from_request_parts0B6_
FNDA:1,_RNCNvXNtCs39mWnhFxKmJ_10autumn_web4authINtB4_4AuthNtNCNvNtB4_5testss_40auth_extractor_returns_user_when_present08TestUserEINtNtCsemqjQd4VUoN_9axum_core7extract16FromRequestPartsNtNtB6_5state8AppStateE18from_request_parts0B6_
FNDA:2,_RNCNvXs3_NtCs39mWnhFxKmJ_10autumn_web4authINtB7_18RequireAuthServiceNtNtNtCs2SFNBOiMNMK_4axum7routing5route5RouteEINtCs9j4nKNK4ihi_13tower_service7ServiceINtNtCs9nCgvg33Qqo_4http7request7RequestNtNtCsemqjQd4VUoN_9axum_core4body4BodyEE4call0B9_
FNDA:1,_RNvXNtCs39mWnhFxKmJ_10autumn_web4authINtB2_4AuthNtNCNvNtB2_5testss_39auth_extractor_returns_401_when_no_user08TestUserEINtNtCsemqjQd4VUoN_9axum_core7extract16FromRequestPartsNtNtB4_5state8AppStateE18from_request_partsB4_
FNDA:1,_RNvXNtCs39mWnhFxKmJ_10autumn_web4authINtB2_4AuthNtNCNvNtB2_5testss_40auth_extractor_returns_user_when_present08TestUserEINtNtCsemqjQd4VUoN_9axum_core7extract16FromRequestPartsNtNtB4_5state8AppStateE18from_request_partsB4_
FNDA:2,_RNvXs2_NtCs39mWnhFxKmJ_10autumn_web4authNtB5_11RequireAuthINtCscMAT8yzRe8V_11tower_layer5LayerNtNCNvNtB5_5testss_34require_auth_poll_ready_propagates011MockServiceE5layerB7_
FNDA:10,_RNvXs2_NtCs39mWnhFxKmJ_10autumn_web4authNtB5_11RequireAuthINtCscMAT8yzRe8V_11tower_layer5LayerNtNtNtCs2SFNBOiMNMK_4axum7routing5route5RouteE5layerB7_
FNDA:2,_RNvXs3_NtCs39mWnhFxKmJ_10autumn_web4authINtB5_18RequireAuthServiceNtNCNvNtB5_5testss_34require_auth_poll_ready_propagates011MockServiceEINtCs9j4nKNK4ihi_13tower_service7ServiceINtNtCs9nCgvg33Qqo_4http7request7RequestNtNtCsemqjQd4VUoN_9axum_core4body4BodyEE10poll_readyB7_
FNDA:2,_RNvXs3_NtCs39mWnhFxKmJ_10autumn_web4authINtB5_18RequireAuthServiceNtNtNtCs2SFNBOiMNMK_4axum7routing5route5RouteEINtCs9j4nKNK4ihi_13tower_service7ServiceINtNtCs9nCgvg33Qqo_4http7request7RequestNtNtCsemqjQd4VUoN_9axum_core4body4BodyEE10poll_readyB7_
FNDA:2,_RNvXs3_NtCs39mWnhFxKmJ_10autumn_web4authINtB5_18RequireAuthServiceNtNtNtCs2SFNBOiMNMK_4axum7routing5route5RouteEINtCs9j4nKNK4ihi_13tower_service7ServiceINtNtCs9nCgvg33Qqo_4http7request7RequestNtNtCsemqjQd4VUoN_9axum_core4body4BodyEE4callB7_
FNDA:2,_RNvNtCs39mWnhFxKmJ_10autumn_web4auth13hash_password
FNDA:9,_RNvNtCs39mWnhFxKmJ_10autumn_web4auth15___check_secured
FNDA:8,_RNvNtCs39mWnhFxKmJ_10autumn_web4auth15verify_password
FNDA:146,_RNvNtCs39mWnhFxKmJ_10autumn_web4auth19default_bcrypt_cost
FNDA:146,_RNvNtCs39mWnhFxKmJ_10autumn_web4auth19default_session_key
FNDA:1,_RNvXs0_NtCs39mWnhFxKmJ_10autumn_web4authNtB5_13AuthRejectionNtNtCs4kUJL3MZFFz_4core3fmt7Display3fmt
FNDA:146,_RNvXs4_NtCs39mWnhFxKmJ_10autumn_web4authNtB5_10AuthConfigNtNtCs4kUJL3MZFFz_4core7default7Default7default
FNDA:3,_RNvXs_NtCs39mWnhFxKmJ_10autumn_web4authNtB4_13AuthRejectionNtNtNtCsemqjQd4VUoN_9axum_core8response13into_response12IntoResponse13into_response
FNF:81
FNH:72
DA:89,68
DA:90,68
DA:91,68
DA:92,68
DA:93,68
DA:94,68
DA:95,68
DA:96,4
DA:97,4
DA:118,15
DA:119,15
DA:123,15
DA:125,15
DA:126,9
DA:129,6
DA:132,15
DA:133,15
DA:134,15
DA:136,15
DA:137,6
DA:138,9
DA:140,9
DA:141,15
DA:156,9
DA:157,9
DA:158,9
DA:159,9
DA:161,9
DA:162,2
DA:163,2
DA:164,2
DA:165,7
DA:169,7
DA:170,5
DA:171,7
DA:172,2
DA:173,2
DA:174,2
DA:175,3
DA:176,2
DA:178,5
DA:179,9
DA:218,2
DA:219,2
DA:220,2
DA:221,2
DA:222,2
DA:223,2
DA:224,2
DA:232,3
DA:233,3
DA:234,3
DA:235,3
DA:236,3
DA:237,3
DA:238,3
DA:239,3
DA:240,3
DA:241,3
DA:242,3
DA:243,3
DA:247,1
DA:248,1
DA:249,1
DA:279,3
DA:280,3
DA:281,3
DA:282,3
DA:283,3
DA:289,12
DA:290,12
DA:291,12
DA:292,12
DA:293,12
DA:294,12
DA:318,4
DA:319,4
DA:320,4
DA:322,2
DA:323,2
DA:324,2
DA:325,2
DA:327,2
DA:329,2
DA:331,2
DA:332,2
DA:334,0
DA:337,2
DA:338,1
DA:340,1
DA:341,1
DA:342,1
DA:343,1
DA:346,1
DA:347,1
DA:348,1
DA:349,1
DA:350,1
DA:352,1
DA:353,1
DA:355,2
DA:356,2
DA:380,183
DA:381,183
DA:382,183
DA:384,183
DA:385,183
DA:386,183
DA:389,183
DA:390,183
DA:391,183
DA:392,183
DA:393,183
DA:394,183
DA:402,1
DA:403,1
DA:404,1
DA:405,1
DA:406,1
DA:407,1
DA:410,1
DA:411,1
DA:412,1
DA:413,1
DA:414,1
DA:417,1
DA:419,1
DA:420,1
DA:421,1
DA:424,1
DA:425,1
DA:426,1
DA:427,1
DA:430,1
DA:431,1
DA:432,1
DA:433,1
DA:434,1
DA:437,1
DA:438,1
DA:439,1
DA:440,1
DA:441,1
DA:444,1
DA:445,1
DA:446,1
DA:447,1
DA:448,1
DA:451,1
DA:452,1
DA:453,1
DA:456,1
DA:468,0
DA:469,0
DA:470,0
DA:472,1
DA:473,1
DA:474,1
DA:475,1
DA:476,1
DA:477,1
DA:478,1
DA:479,1
DA:480,1
DA:481,1
DA:482,1
DA:483,1
DA:484,1
DA:485,1
DA:486,1
DA:487,1
DA:488,1
DA:489,1
DA:490,1
DA:492,1
DA:494,1
DA:495,1
DA:496,1
DA:497,1
DA:498,1
DA:499,1
DA:500,1
DA:501,1
DA:502,1
DA:504,1
DA:505,1
DA:508,1
DA:520,1
DA:521,1
DA:522,1
DA:524,1
DA:525,1
DA:526,1
DA:527,1
DA:528,1
DA:529,1
DA:530,1
DA:531,1
DA:532,1
DA:533,1
DA:534,1
DA:535,1
DA:536,1
DA:537,1
DA:538,1
DA:539,1
DA:540,1
DA:541,1
DA:542,1
DA:545,1
DA:546,1
DA:547,1
DA:548,1
DA:549,1
DA:550,1
DA:551,1
DA:552,1
DA:553,2
DA:555,1
DA:557,1
DA:558,1
DA:559,1
DA:560,1
DA:561,1
DA:562,1
DA:563,1
DA:564,1
DA:565,1
DA:567,1
DA:568,1
DA:569,1
DA:570,1
DA:571,1
DA:572,1
DA:575,1
DA:584,1
DA:585,1
DA:586,1
DA:587,1
DA:588,1
DA:589,1
DA:590,1
DA:591,1
DA:592,1
DA:593,1
DA:594,1
DA:595,1
DA:596,1
DA:597,1
DA:598,1
DA:599,1
DA:600,1
DA:601,1
DA:602,1
DA:604,1
DA:605,1
DA:606,1
DA:607,1
DA:608,1
DA:609,1
DA:611,1
DA:613,1
DA:614,1
DA:615,1
DA:616,1
DA:617,1
DA:618,1
DA:619,1
DA:620,1
DA:621,1
DA:623,1
DA:624,1
DA:629,1
DA:630,1
DA:631,1
DA:632,1
DA:633,1
DA:634,1
DA:635,1
DA:636,1
DA:637,1
DA:640,1
DA:641,1
DA:642,1
DA:643,1
DA:644,1
DA:645,1
DA:648,1
DA:649,1
DA:650,1
DA:651,1
DA:652,1
DA:653,1
DA:654,1
DA:655,1
DA:656,1
DA:657,1
DA:658,1
DA:659,1
DA:662,1
DA:663,1
DA:664,1
DA:665,1
DA:666,1
DA:667,1
DA:668,1
DA:669,1
DA:670,1
DA:673,1
DA:674,1
DA:675,1
DA:676,1
DA:677,1
DA:678,1
DA:679,1
DA:680,1
DA:681,1
DA:686,1
DA:700,1
DA:701,1
DA:702,1
DA:703,1
DA:704,1
DA:705,1
DA:706,1
DA:707,1
DA:708,1
DA:709,1
DA:710,1
DA:711,1
DA:712,1
DA:713,1
DA:714,1
DA:715,1
DA:716,1
DA:717,1
DA:718,1
DA:720,1
DA:721,1
DA:722,1
DA:723,1
DA:724,1
DA:726,1
DA:728,1
DA:729,1
DA:730,1
DA:731,1
DA:732,1
DA:733,1
DA:734,1
DA:735,1
DA:736,1
DA:738,1
DA:739,1
DA:742,1
DA:757,1
DA:758,1
DA:759,1
DA:760,1
DA:761,1
DA:762,1
DA:763,1
DA:764,1
DA:766,1
DA:767,1
DA:768,1
DA:769,1
DA:770,1
DA:771,1
DA:772,1
DA:773,1
DA:774,1
DA:775,1
DA:776,1
DA:777,1
DA:778,1
DA:779,1
DA:780,1
DA:781,1
DA:782,1
DA:783,1
DA:784,1
DA:786,1
DA:787,1
DA:788,1
DA:789,1
DA:791,1
DA:792,1
DA:793,1
DA:794,1
DA:795,1
DA:796,1
DA:797,1
DA:798,1
DA:799,1
DA:800,1
DA:802,1
DA:803,1
DA:804,1
DA:805,1
DA:806,1
DA:807,1
DA:810,1
DA:825,1
DA:826,1
DA:827,1
DA:828,1
DA:829,1
DA:830,1
DA:831,1
DA:832,1
DA:833,1
DA:834,1
DA:835,1
DA:837,1
DA:838,1
DA:839,1
DA:840,1
DA:841,1
DA:842,1
DA:843,1
DA:844,1
DA:845,1
DA:846,1
DA:847,1
DA:848,1
DA:849,1
DA:850,1
DA:851,1
DA:852,1
DA:853,1
DA:854,1
DA:855,1
DA:857,1
DA:858,1
DA:859,1
DA:860,1
DA:862,1
DA:863,1
DA:864,1
DA:865,1
DA:866,1
DA:867,1
DA:868,1
DA:869,1
DA:870,1
DA:871,1
DA:873,1
DA:874,1
DA:877,1
DA:892,1
DA:893,1
DA:894,1
DA:895,1
DA:896,1
DA:897,1
DA:898,1
DA:899,1
DA:900,1
DA:901,1
DA:902,1
DA:904,1
DA:905,1
DA:906,1
DA:907,1
DA:908,1
DA:909,1
DA:910,1
DA:911,1
DA:912,1
DA:913,1
DA:914,1
DA:915,1
DA:916,1
DA:917,1
DA:918,1
DA:919,1
DA:920,1
DA:921,1
DA:922,1
DA:924,1
DA:925,1
DA:926,1
DA:927,1
DA:929,1
DA:930,1
DA:931,1
DA:932,1
DA:933,1
DA:934,1
DA:935,1
DA:936,1
DA:937,1
DA:938,1
DA:940,1
DA:941,1
DA:942,1
DA:943,1
DA:944,1
DA:945,1
DA:948,1
DA:958,1
DA:960,1
DA:961,1
DA:962,1
DA:964,1
DA:965,1
DA:966,1
DA:967,1
DA:968,1
DA:969,1
DA:970,1
DA:971,1
DA:972,1
DA:973,1
DA:974,1
DA:975,1
DA:976,1
DA:977,1
DA:978,1
DA:979,1
DA:980,1
DA:981,1
DA:982,1
DA:984,1
DA:985,2
DA:986,1
DA:987,1
DA:988,1
DA:990,1
DA:991,1
DA:992,1
DA:993,1
DA:994,1
DA:995,1
DA:996,1
DA:997,1
DA:998,1
DA:999,1
DA:1001,1
DA:1002,1
DA:1003,1
DA:1004,1
DA:1005,1
DA:1006,1
DA:1009,1
DA:1024,2
DA:1025,2
DA:1026,2
DA:1027,2
DA:1028,1
DA:1030,1
DA:1032,2
DA:1034,0
DA:1035,0
DA:1036,0
DA:1039,1
DA:1040,1
DA:1041,1
DA:1042,1
DA:1043,1
DA:1044,1
DA:1045,1
DA:1047,1
DA:1048,1
DA:1051,1
DA:1052,1
DA:1053,1
DA:1056,1
DA:1057,1
DA:1058,1
DA:1059,1
DA:1060,1
DA:1061,1
DA:1062,1
DA:1063,1
DA:1064,1
DA:1067,1
DA:1068,1
DA:1069,1
DA:1070,1
DA:1071,1
DA:1072,1
DA:1073,1
DA:1074,1
DA:1075,1
DA:1076,1
DA:1077,1
DA:1080,1
DA:1081,1
DA:1082,1
DA:1083,1
DA:1084,1
DA:1087,1
DA:1088,1
DA:1091,1
DA:1092,1
DA:1093,1
DA:1094,1
DA:1097,1
DA:1098,1
DA:1099,1
DA:1100,1
DA:1103,1
DA:1104,1
DA:1105,1
DA:1106,1
DA:1107,1
BRF:0
BRH:0
LF:666
LH:652
end_of_record
SF:/app/autumn/src/cache/layer.rs
FN:58,_RINvMNtNtCslNlzF6u6e2e_10autumn_web5cache5layerNtB3_18CacheResponseLayer10from_cachepEB7_
FN:122,_RNCNCNvXININtNtCslNlzF6u6e2e_10autumn_web5cache5layers0_0pEINtB9_20CacheResponseServicepEINtCs9j4nKNK4ihi_13tower_service7ServiceINtNtCs9nCgvg33Qqo_4http7request7RequestNtNtCsemqjQd4VUoN_9axum_core4body4BodyEE4call00Bd_
FN:117,_RNCNvXININtNtCslNlzF6u6e2e_10autumn_web5cache5layers0_0pEINtB7_20CacheResponseServicepEINtCs9j4nKNK4ihi_13tower_service7ServiceINtNtCs9nCgvg33Qqo_4http7request7RequestNtNtCsemqjQd4VUoN_9axum_core4body4BodyEE4call0Bb_
FN:134,_RNCNvXININtNtCslNlzF6u6e2e_10autumn_web5cache5layers0_0pEINtB7_20CacheResponseServicepEINtCs9j4nKNK4ihi_13tower_service7ServiceINtNtCs9nCgvg33Qqo_4http7request7RequestNtNtCsemqjQd4VUoN_9axum_core4body4BodyEE4calls_0Bb_
FN:102,_RNvXININtNtCslNlzF6u6e2e_10autumn_web5cache5layers0_0pEINtB5_20CacheResponseServicepEINtCs9j4nKNK4ihi_13tower_service7ServiceINtNtCs9nCgvg33Qqo_4http7request7RequestNtNtCsemqjQd4VUoN_9axum_core4body4BodyEE10poll_readyB9_
FN:106,_RNvXININtNtCslNlzF6u6e2e_10autumn_web5cache5layers0_0pEINtB5_20CacheResponseServicepEINtCs9j4nKNK4ihi_13tower_service7ServiceINtNtCs9nCgvg33Qqo_4http7request7RequestNtNtCsemqjQd4VUoN_9axum_core4body4BodyEE4callB9_
FN:73,_RNvXININtNtCslNlzF6u6e2e_10autumn_web5cache5layers_0pENtB5_18CacheResponseLayerINtCscMAT8yzRe8V_11tower_layer5LayerpE5layerB9_
FN:65,_RNvMNtNtCslNlzF6u6e2e_10autumn_web5cache5layerNtB2_18CacheResponseLayer11from_shared
FN:268,_RNCNCNCNvNtNtNtCs39mWnhFxKmJ_10autumn_web5cache5layer5testss_32does_not_cache_non_200_responses000Bd_
FN:191,_RNCNCNvNtNtNtCs39mWnhFxKmJ_10autumn_web5cache5layer5tests16counting_service00Bb_
FN:266,_RNCNCNvNtNtNtCs39mWnhFxKmJ_10autumn_web5cache5layer5testss_32does_not_cache_non_200_responses00Bb_
FN:188,_RNCNvNtNtNtCs39mWnhFxKmJ_10autumn_web5cache5layer5tests16counting_service0B9_
FN:202,_RNCNvNtNtNtCs39mWnhFxKmJ_10autumn_web5cache5layer5testss_20caches_get_responses0B9_
FN:238,_RNCNvNtNtNtCs39mWnhFxKmJ_10autumn_web5cache5layer5testss_28does_not_cache_post_requests0B9_
FN:299,_RNCNvNtNtNtCs39mWnhFxKmJ_10autumn_web5cache5layer5testss_32different_uris_cached_separately0B9_
FN:260,_RNCNvNtNtNtCs39mWnhFxKmJ_10autumn_web5cache5layer5testss_32does_not_cache_non_200_responses0B9_
FN:58,_RINvMNtNtCs39mWnhFxKmJ_10autumn_web5cache5layerNtB3_18CacheResponseLayer10from_cacheNtNtB5_9moka_impl9MokaCacheEB7_
FN:122,_RNCNCNvXs0_NtNtCs39mWnhFxKmJ_10autumn_web5cache5layerINtB9_20CacheResponseServiceINtNtNtCs524LpGUut0J_5tower4util10service_fn9ServiceFnNCNCNvNtB9_5testss_32does_not_cache_non_200_responses00EEINtCs9j4nKNK4ihi_13tower_service7ServiceINtNtCs9nCgvg33Qqo_4http7request7RequestNtNtCsemqjQd4VUoN_9axum_core4body4BodyEE4call00Bd_
FN:122,_RNCNCNvXs0_NtNtCs39mWnhFxKmJ_10autumn_web5cache5layerINtB9_20CacheResponseServiceINtNtNtCs524LpGUut0J_5tower4util10service_fn9ServiceFnNCNvNtB9_5tests16counting_service0EEINtCs9j4nKNK4ihi_13tower_service7ServiceINtNtCs9nCgvg33Qqo_4http7request7RequestNtNtCsemqjQd4VUoN_9axum_core4body4BodyEE4call00Bd_
FN:117,_RNCNvXs0_NtNtCs39mWnhFxKmJ_10autumn_web5cache5layerINtB7_20CacheResponseServiceINtNtNtCs524LpGUut0J_5tower4util10service_fn9ServiceFnNCNCNvNtB7_5testss_32does_not_cache_non_200_responses00EEINtCs9j4nKNK4ihi_13tower_service7ServiceINtNtCs9nCgvg33Qqo_4http7request7RequestNtNtCsemqjQd4VUoN_9axum_core4body4BodyEE4call0Bb_
FN:134,_RNCNvXs0_NtNtCs39mWnhFxKmJ_10autumn_web5cache5layerINtB7_20CacheResponseServiceINtNtNtCs524LpGUut0J_5tower4util10service_fn9ServiceFnNCNCNvNtB7_5testss_32does_not_cache_non_200_responses00EEINtCs9j4nKNK4ihi_13tower_service7ServiceINtNtCs9nCgvg33Qqo_4http7request7RequestNtNtCsemqjQd4VUoN_9axum_core4body4BodyEE4calls_0Bb_
FN:117,_RNCNvXs0_NtNtCs39mWnhFxKmJ_10autumn_web5cache5layerINtB7_20CacheResponseServiceINtNtNtCs524LpGUut0J_5tower4util10service_fn9ServiceFnNCNvNtB7_5tests16counting_service0EEINtCs9j4nKNK4ihi_13tower_service7ServiceINtNtCs9nCgvg33Qqo_4http7request7RequestNtNtCsemqjQd4VUoN_9axum_core4body4BodyEE4call0Bb_
FN:134,_RNCNvXs0_NtNtCs39mWnhFxKmJ_10autumn_web5cache5layerINtB7_20CacheResponseServiceINtNtNtCs524LpGUut0J_5tower4util10service_fn9ServiceFnNCNvNtB7_5tests16counting_service0EEINtCs9j4nKNK4ihi_13tower_service7ServiceINtNtCs9nCgvg33Qqo_4http7request7RequestNtNtCsemqjQd4VUoN_9axum_core4body4BodyEE4calls_0Bb_
FN:102,_RNvXs0_NtNtCs39mWnhFxKmJ_10autumn_web5cache5layerINtB5_20CacheResponseServiceINtNtNtCs524LpGUut0J_5tower4util10service_fn9ServiceFnNCNCNvNtB5_5testss_32does_not_cache_non_200_responses00EEINtCs9j4nKNK4ihi_13tower_service7ServiceINtNtCs9nCgvg33Qqo_4http7request7RequestNtNtCsemqjQd4VUoN_9axum_core4body4BodyEE10poll_readyB9_
FN:106,_RNvXs0_NtNtCs39mWnhFxKmJ_10autumn_web5cache5layerINtB5_20CacheResponseServiceINtNtNtCs524LpGUut0J_5tower4util10service_fn9ServiceFnNCNCNvNtB5_5testss_32does_not_cache_non_200_responses00EEINtCs9j4nKNK4ihi_13tower_service7ServiceINtNtCs9nCgvg33Qqo_4http7request7RequestNtNtCsemqjQd4VUoN_9axum_core4body4BodyEE4callB9_
FN:102,_RNvXs0_NtNtCs39mWnhFxKmJ_10autumn_web5cache5layerINtB5_20CacheResponseServiceINtNtNtCs524LpGUut0J_5tower4util10service_fn9ServiceFnNCNvNtB5_5tests16counting_service0EEINtCs9j4nKNK4ihi_13tower_service7ServiceINtNtCs9nCgvg33Qqo_4http7request7RequestNtNtCsemqjQd4VUoN_9axum_core4body4BodyEE10poll_readyB9_
FN:106,_RNvXs0_NtNtCs39mWnhFxKmJ_10autumn_web5cache5layerINtB5_20CacheResponseServiceINtNtNtCs524LpGUut0J_5tower4util10service_fn9ServiceFnNCNvNtB5_5tests16counting_service0EEINtCs9j4nKNK4ihi_13tower_service7ServiceINtNtCs9nCgvg33Qqo_4http7request7RequestNtNtCsemqjQd4VUoN_9axum_core4body4BodyEE4callB9_
FN:73,_RNvXs_NtNtCs39mWnhFxKmJ_10autumn_web5cache5layerNtB4_18CacheResponseLayerINtCscMAT8yzRe8V_11tower_layer5LayerINtNtNtCs524LpGUut0J_5tower4util10service_fn9ServiceFnNCNCNvNtB4_5testss_32does_not_cache_non_200_responses00EE5layerB8_
FN:73,_RNvXs_NtNtCs39mWnhFxKmJ_10autumn_web5cache5layerNtB4_18CacheResponseLayerINtCscMAT8yzRe8V_11tower_layer5LayerINtNtNtCs524LpGUut0J_5tower4util10service_fn9ServiceFnNCNvNtB4_5tests16counting_service0EE5layerB8_
FN:65,_RNvMNtNtCs39mWnhFxKmJ_10autumn_web5cache5layerNtB2_18CacheResponseLayer11from_shared
FN:176,_RNvNtNtNtCs39mWnhFxKmJ_10autumn_web5cache5layer5tests16counting_service
FN:202,_RNvNtNtNtCs39mWnhFxKmJ_10autumn_web5cache5layer5testss_20caches_get_responses
FN:324,_RNvNtNtNtCs39mWnhFxKmJ_10autumn_web5cache5layer5testss_23from_shared_accepts_arc
FN:238,_RNvNtNtNtCs39mWnhFxKmJ_10autumn_web5cache5layer5testss_28does_not_cache_post_requests
FN:299,_RNvNtNtNtCs39mWnhFxKmJ_10autumn_web5cache5layer5testss_32different_uris_cached_separately
FN:260,_RNvNtNtNtCs39mWnhFxKmJ_10autumn_web5cache5layer5testss_32does_not_cache_non_200_responses
FNDA:0,_RINvMNtNtCslNlzF6u6e2e_10autumn_web5cache5layerNtB3_18CacheResponseLayer10from_cachepEB7_
FNDA:0,_RNCNCNvXININtNtCslNlzF6u6e2e_10autumn_web5cache5layers0_0pEINtB9_20CacheResponseServicepEINtCs9j4nKNK4ihi_13tower_service7ServiceINtNtCs9nCgvg33Qqo_4http7request7RequestNtNtCsemqjQd4VUoN_9axum_core4body4BodyEE4call00Bd_
FNDA:0,_RNCNvXININtNtCslNlzF6u6e2e_10autumn_web5cache5layers0_0pEINtB7_20CacheResponseServicepEINtCs9j4nKNK4ihi_13tower_service7ServiceINtNtCs9nCgvg33Qqo_4http7request7RequestNtNtCsemqjQd4VUoN_9axum_core4body4BodyEE4call0Bb_
FNDA:0,_RNCNvXININtNtCslNlzF6u6e2e_10autumn_web5cache5layers0_0pEINtB7_20CacheResponseServicepEINtCs9j4nKNK4ihi_13tower_service7ServiceINtNtCs9nCgvg33Qqo_4http7request7RequestNtNtCsemqjQd4VUoN_9axum_core4body4BodyEE4calls_0Bb_
FNDA:0,_RNvXININtNtCslNlzF6u6e2e_10autumn_web5cache5layers0_0pEINtB5_20CacheResponseServicepEINtCs9j4nKNK4ihi_13tower_service7ServiceINtNtCs9nCgvg33Qqo_4http7request7RequestNtNtCsemqjQd4VUoN_9axum_core4body4BodyEE10poll_readyB9_
FNDA:0,_RNvXININtNtCslNlzF6u6e2e_10autumn_web5cache5layers0_0pEINtB5_20CacheResponseServicepEINtCs9j4nKNK4ihi_13tower_service7ServiceINtNtCs9nCgvg33Qqo_4http7request7RequestNtNtCsemqjQd4VUoN_9axum_core4body4BodyEE4callB9_
FNDA:0,_RNvXININtNtCslNlzF6u6e2e_10autumn_web5cache5layers_0pENtB5_18CacheResponseLayerINtCscMAT8yzRe8V_11tower_layer5LayerpE5layerB9_
FNDA:0,_RNvMNtNtCslNlzF6u6e2e_10autumn_web5cache5layerNtB2_18CacheResponseLayer11from_shared
FNDA:2,_RNCNCNCNvNtNtNtCs39mWnhFxKmJ_10autumn_web5cache5layer5testss_32does_not_cache_non_200_responses000Bd_
FNDA:5,_RNCNCNvNtNtNtCs39mWnhFxKmJ_10autumn_web5cache5layer5tests16counting_service00Bb_
FNDA:2,_RNCNCNvNtNtNtCs39mWnhFxKmJ_10autumn_web5cache5layer5testss_32does_not_cache_non_200_responses00Bb_
FNDA:5,_RNCNvNtNtNtCs39mWnhFxKmJ_10autumn_web5cache5layer5tests16counting_service0B9_
FNDA:1,_RNCNvNtNtNtCs39mWnhFxKmJ_10autumn_web5cache5layer5testss_20caches_get_responses0B9_
FNDA:1,_RNCNvNtNtNtCs39mWnhFxKmJ_10autumn_web5cache5layer5testss_28does_not_cache_post_requests0B9_
FNDA:1,_RNCNvNtNtNtCs39mWnhFxKmJ_10autumn_web5cache5layer5testss_32different_uris_cached_separately0B9_
FNDA:1,_RNCNvNtNtNtCs39mWnhFxKmJ_10autumn_web5cache5layer5testss_32does_not_cache_non_200_responses0B9_
FNDA:4,_RINvMNtNtCs39mWnhFxKmJ_10autumn_web5cache5layerNtB3_18CacheResponseLayer10from_cacheNtNtB5_9moka_impl9MokaCacheEB7_
FNDA:0,_RNCNCNvXs0_NtNtCs39mWnhFxKmJ_10autumn_web5cache5layerINtB9_20CacheResponseServiceINtNtNtCs524LpGUut0J_5tower4util10service_fn9ServiceFnNCNCNvNtB9_5testss_32does_not_cache_non_200_responses00EEINtCs9j4nKNK4ihi_13tower_service7ServiceINtNtCs9nCgvg33Qqo_4http7request7RequestNtNtCsemqjQd4VUoN_9axum_core4body4BodyEE4call00Bd_
FNDA:0,_RNCNCNvXs0_NtNtCs39mWnhFxKmJ_10autumn_web5cache5layerINtB9_20CacheResponseServiceINtNtNtCs524LpGUut0J_5tower4util10service_fn9ServiceFnNCNvNtB9_5tests16counting_service0EEINtCs9j4nKNK4ihi_13tower_service7ServiceINtNtCs9nCgvg33Qqo_4http7request7RequestNtNtCsemqjQd4VUoN_9axum_core4body4BodyEE4call00Bd_
FNDA:0,_RNCNvXs0_NtNtCs39mWnhFxKmJ_10autumn_web5cache5layerINtB7_20CacheResponseServiceINtNtNtCs524LpGUut0J_5tower4util10service_fn9ServiceFnNCNCNvNtB7_5testss_32does_not_cache_non_200_responses00EEINtCs9j4nKNK4ihi_13tower_service7ServiceINtNtCs9nCgvg33Qqo_4http7request7RequestNtNtCsemqjQd4VUoN_9axum_core4body4BodyEE4call0Bb_
FNDA:2,_RNCNvXs0_NtNtCs39mWnhFxKmJ_10autumn_web5cache5layerINtB7_20CacheResponseServiceINtNtNtCs524LpGUut0J_5tower4util10service_fn9ServiceFnNCNCNvNtB7_5testss_32does_not_cache_non_200_responses00EEINtCs9j4nKNK4ihi_13tower_service7ServiceINtNtCs9nCgvg33Qqo_4http7request7RequestNtNtCsemqjQd4VUoN_9axum_core4body4BodyEE4calls_0Bb_
FNDA:2,_RNCNvXs0_NtNtCs39mWnhFxKmJ_10autumn_web5cache5layerINtB7_20CacheResponseServiceINtNtNtCs524LpGUut0J_5tower4util10service_fn9ServiceFnNCNvNtB7_5tests16counting_service0EEINtCs9j4nKNK4ihi_13tower_service7ServiceINtNtCs9nCgvg33Qqo_4http7request7RequestNtNtCsemqjQd4VUoN_9axum_core4body4BodyEE4call0Bb_
FNDA:3,_RNCNvXs0_NtNtCs39mWnhFxKmJ_10autumn_web5cache5layerINtB7_20CacheResponseServiceINtNtNtCs524LpGUut0J_5tower4util10service_fn9ServiceFnNCNvNtB7_5tests16counting_service0EEINtCs9j4nKNK4ihi_13tower_service7ServiceINtNtCs9nCgvg33Qqo_4http7request7RequestNtNtCsemqjQd4VUoN_9axum_core4body4BodyEE4calls_0Bb_
FNDA:2,_RNvXs0_NtNtCs39mWnhFxKmJ_10autumn_web5cache5layerINtB5_20CacheResponseServiceINtNtNtCs524LpGUut0J_5tower4util10service_fn9ServiceFnNCNCNvNtB5_5testss_32does_not_cache_non_200_responses00EEINtCs9j4nKNK4ihi_13tower_service7ServiceINtNtCs9nCgvg33Qqo_4http7request7RequestNtNtCsemqjQd4VUoN_9axum_core4body4BodyEE10poll_readyB9_
FNDA:2,_RNvXs0_NtNtCs39mWnhFxKmJ_10autumn_web5cache5layerINtB5_20CacheResponseServiceINtNtNtCs524LpGUut0J_5tower4util10service_fn9ServiceFnNCNCNvNtB5_5testss_32does_not_cache_non_200_responses00EEINtCs9j4nKNK4ihi_13tower_service7ServiceINtNtCs9nCgvg33Qqo_4http7request7RequestNtNtCsemqjQd4VUoN_9axum_core4body4BodyEE4callB9_
FNDA:7,_RNvXs0_NtNtCs39mWnhFxKmJ_10autumn_web5cache5layerINtB5_20CacheResponseServiceINtNtNtCs524LpGUut0J_5tower4util10service_fn9ServiceFnNCNvNtB5_5tests16counting_service0EEINtCs9j4nKNK4ihi_13tower_service7ServiceINtNtCs9nCgvg33Qqo_4http7request7RequestNtNtCsemqjQd4VUoN_9axum_core4body4BodyEE10poll_readyB9_
FNDA:7,_RNvXs0_NtNtCs39mWnhFxKmJ_10autumn_web5cache5layerINtB5_20CacheResponseServiceINtNtNtCs524LpGUut0J_5tower4util10service_fn9ServiceFnNCNvNtB5_5tests16counting_service0EEINtCs9j4nKNK4ihi_13tower_service7ServiceINtNtCs9nCgvg33Qqo_4http7request7RequestNtNtCsemqjQd4VUoN_9axum_core4body4BodyEE4callB9_
FNDA:1,_RNvXs_NtNtCs39mWnhFxKmJ_10autumn_web5cache5layerNtB4_18CacheResponseLayerINtCscMAT8yzRe8V_11tower_layer5LayerINtNtNtCs524LpGUut0J_5tower4util10service_fn9ServiceFnNCNCNvNtB4_5testss_32does_not_cache_non_200_responses00EE5layerB8_
FNDA:3,_RNvXs_NtNtCs39mWnhFxKmJ_10autumn_web5cache5layerNtB4_18CacheResponseLayerINtCscMAT8yzRe8V_11tower_layer5LayerINtNtNtCs524LpGUut0J_5tower4util10service_fn9ServiceFnNCNvNtB4_5tests16counting_service0EE5layerB8_
FNDA:1,_RNvMNtNtCs39mWnhFxKmJ_10autumn_web5cache5layerNtB2_18CacheResponseLayer11from_shared
FNDA:3,_RNvNtNtNtCs39mWnhFxKmJ_10autumn_web5cache5layer5tests16counting_service
FNDA:1,_RNvNtNtNtCs39mWnhFxKmJ_10autumn_web5cache5layer5testss_20caches_get_responses
FNDA:1,_RNvNtNtNtCs39mWnhFxKmJ_10autumn_web5cache5layer5testss_23from_shared_accepts_arc
FNDA:1,_RNvNtNtNtCs39mWnhFxKmJ_10autumn_web5cache5layer5testss_28does_not_cache_post_requests
FNDA:1,_RNvNtNtNtCs39mWnhFxKmJ_10autumn_web5cache5layer5testss_32different_uris_cached_separately
FNDA:1,_RNvNtNtNtCs39mWnhFxKmJ_10autumn_web5cache5layer5testss_32does_not_cache_non_200_responses
FNF:22
FNH:21
DA:58,4
DA:59,4
DA:60,4
DA:61,4
DA:62,4
DA:65,1
DA:66,1
DA:67,1
DA:73,4
DA:74,4
DA:75,4
DA:76,4
DA:77,4
DA:78,4
DA:102,9
DA:103,9
DA:104,9
DA:106,9
DA:108,9
DA:109,2
DA:110,7
DA:112,7
DA:113,7
DA:116,7
DA:117,2
DA:118,2
DA:119,2
DA:120,2
DA:121,2
DA:122,2
DA:123,0
DA:124,0
DA:125,0
DA:126,0
DA:127,0
DA:128,2
DA:129,2
DA:130,5
DA:133,5
DA:134,5
DA:135,5
DA:138,5
DA:139,2
DA:140,3
DA:142,3
DA:145,3
DA:146,0
DA:147,0
DA:148,0
DA:149,0
DA:150,0
DA:152,3
DA:155,3
DA:156,3
DA:157,3
DA:158,3
DA:159,3
DA:160,3
DA:163,3
DA:164,3
DA:165,5
DA:166,9
DA:176,3
DA:177,3
DA:178,3
DA:179,3
DA:180,3
DA:181,3
DA:182,3
DA:183,3
DA:184,3
DA:185,3
DA:186,3
DA:187,3
DA:188,5
DA:189,5
DA:190,5
DA:191,5
DA:192,5
DA:193,5
DA:194,5
DA:195,5
DA:196,5
DA:197,5
DA:198,5
DA:199,3
DA:202,1
DA:203,1
DA:204,1
DA:206,1
DA:207,1
DA:208,1
DA:211,1
DA:212,1
DA:213,1
DA:214,1
DA:215,1
DA:216,1
DA:217,1
DA:218,1
DA:219,1
DA:222,1
DA:223,1
DA:224,1
DA:225,1
DA:226,1
DA:227,1
DA:228,1
DA:229,1
DA:230,1
DA:231,1
DA:232,1
DA:233,1
DA:234,1
DA:235,1
DA:238,1
DA:239,1
DA:240,1
DA:242,1
DA:243,1
DA:244,1
DA:246,1
DA:247,1
DA:248,1
DA:250,1
DA:251,1
DA:252,1
DA:253,1
DA:254,1
DA:255,1
DA:256,1
DA:257,1
DA:260,1
DA:261,1
DA:262,1
DA:264,1
DA:265,1
DA:266,2
DA:267,2
DA:268,2
DA:269,2
DA:270,2
DA:271,2
DA:272,2
DA:273,2
DA:274,2
DA:275,2
DA:276,2
DA:277,2
DA:280,1
DA:281,1
DA:282,1
DA:284,1
DA:285,1
DA:286,1
DA:288,1
DA:289,1
DA:290,1
DA:291,1
DA:292,1
DA:293,1
DA:294,1
DA:295,1
DA:296,1
DA:299,1
DA:300,1
DA:301,1
DA:303,1
DA:304,1
DA:305,1
DA:307,1
DA:308,1
DA:309,1
DA:310,1
DA:311,1
DA:312,1
DA:318,1
DA:319,1
DA:320,1
DA:321,1
DA:324,1
DA:325,1
DA:327,1
DA:328,1
BRF:0
BRH:0
LF:200
LH:188
end_of_record
SF:/app/autumn/src/cache/mod.rs
FN:136,_RINvNtCslNlzF6u6e2e_10autumn_web5cache14make_cache_keypEB4_
FN:79,_RINvNtCslNlzF6u6e2e_10autumn_web5cache3getpEB4_
FN:88,_RINvNtCslNlzF6u6e2e_10autumn_web5cache6insertpEB4_
FN:82,_RNCINvNtCslNlzF6u6e2e_10autumn_web5cache3getpE0B6_
FN:119,_RNvXININtCslNlzF6u6e2e_10autumn_web5cache0ppEINtNtCs4kUJL3MZFFz_4core6result6ResultppENtB5_15CacheableResult11into_resultB7_
FN:123,_RNvXININtCslNlzF6u6e2e_10autumn_web5cache0ppEINtNtCs4kUJL3MZFFz_4core6result6ResultppENtB5_15CacheableResult7from_okB7_
FN:168,_RNvNtNtCs39mWnhFxKmJ_10autumn_web5cache5testss_17cache_key_no_args
FN:147,_RNvNtNtCs39mWnhFxKmJ_10autumn_web5cache5testss_23cache_key_deterministic
FN:161,_RNvNtNtCs39mWnhFxKmJ_10autumn_web5cache5testss_25cache_key_differs_by_args
FN:154,_RNvNtNtCs39mWnhFxKmJ_10autumn_web5cache5testss_28cache_key_differs_by_fn_name
FN:119,_RNvXININtCs39mWnhFxKmJ_10autumn_web5cache0ppEINtNtCs4kUJL3MZFFz_4core6result6ResultppENtB5_15CacheableResult11into_resultB7_
FN:123,_RNvXININtCs39mWnhFxKmJ_10autumn_web5cache0ppEINtNtCs4kUJL3MZFFz_4core6result6ResultppENtB5_15CacheableResult7from_okB7_
FN:136,_RINvNtCs39mWnhFxKmJ_10autumn_web5cache14make_cache_keyTxEEB4_
FN:136,_RINvNtCs39mWnhFxKmJ_10autumn_web5cache14make_cache_keyuEB4_
FN:79,_RINvNtCs39mWnhFxKmJ_10autumn_web5cache3getINtNtCsauO83Ko6oyK_5alloc3vec3VechEEB4_
FN:79,_RINvNtCs39mWnhFxKmJ_10autumn_web5cache3getNtNtB2_5layer14CachedResponseEB4_
FN:79,_RINvNtCs39mWnhFxKmJ_10autumn_web5cache3getNtNtCsauO83Ko6oyK_5alloc6string6StringEB4_
FN:79,_RINvNtCs39mWnhFxKmJ_10autumn_web5cache3getlEB4_
FN:88,_RINvNtCs39mWnhFxKmJ_10autumn_web5cache6insertINtNtCsauO83Ko6oyK_5alloc3vec3VechEEB4_
FN:88,_RINvNtCs39mWnhFxKmJ_10autumn_web5cache6insertNtNtB2_5layer14CachedResponseEB4_
FN:88,_RINvNtCs39mWnhFxKmJ_10autumn_web5cache6insertNtNtCsauO83Ko6oyK_5alloc6string6StringEB4_
FN:88,_RINvNtCs39mWnhFxKmJ_10autumn_web5cache6insertlEB4_
FN:82,_RNCINvNtCs39mWnhFxKmJ_10autumn_web5cache3getINtNtCsauO83Ko6oyK_5alloc3vec3VechEE0B6_
FN:82,_RNCINvNtCs39mWnhFxKmJ_10autumn_web5cache3getNtNtB4_5layer14CachedResponseE0B6_
FN:82,_RNCINvNtCs39mWnhFxKmJ_10autumn_web5cache3getNtNtCsauO83Ko6oyK_5alloc6string6StringE0B6_
FN:82,_RNCINvNtCs39mWnhFxKmJ_10autumn_web5cache3getlE0B6_
FNDA:0,_RINvNtCslNlzF6u6e2e_10autumn_web5cache14make_cache_keypEB4_
FNDA:0,_RINvNtCslNlzF6u6e2e_10autumn_web5cache3getpEB4_
FNDA:0,_RINvNtCslNlzF6u6e2e_10autumn_web5cache6insertpEB4_
FNDA:0,_RNCINvNtCslNlzF6u6e2e_10autumn_web5cache3getpE0B6_
FNDA:0,_RNvXININtCslNlzF6u6e2e_10autumn_web5cache0ppEINtNtCs4kUJL3MZFFz_4core6result6ResultppENtB5_15CacheableResult11into_resultB7_
FNDA:0,_RNvXININtCslNlzF6u6e2e_10autumn_web5cache0ppEINtNtCs4kUJL3MZFFz_4core6result6ResultppENtB5_15CacheableResult7from_okB7_
FNDA:1,_RNvNtNtCs39mWnhFxKmJ_10autumn_web5cache5testss_17cache_key_no_args
FNDA:1,_RNvNtNtCs39mWnhFxKmJ_10autumn_web5cache5testss_23cache_key_deterministic
FNDA:1,_RNvNtNtCs39mWnhFxKmJ_10autumn_web5cache5testss_25cache_key_differs_by_args
FNDA:1,_RNvNtNtCs39mWnhFxKmJ_10autumn_web5cache5testss_28cache_key_differs_by_fn_name
FNDA:0,_RNvXININtCs39mWnhFxKmJ_10autumn_web5cache0ppEINtNtCs4kUJL3MZFFz_4core6result6ResultppENtB5_15CacheableResult11into_resultB7_
FNDA:0,_RNvXININtCs39mWnhFxKmJ_10autumn_web5cache0ppEINtNtCs4kUJL3MZFFz_4core6result6ResultppENtB5_15CacheableResult7from_okB7_
FNDA:6,_RINvNtCs39mWnhFxKmJ_10autumn_web5cache14make_cache_keyTxEEB4_
FNDA:1,_RINvNtCs39mWnhFxKmJ_10autumn_web5cache14make_cache_keyuEB4_
FNDA:1,_RINvNtCs39mWnhFxKmJ_10autumn_web5cache3getINtNtCsauO83Ko6oyK_5alloc3vec3VechEEB4_
FNDA:7,_RINvNtCs39mWnhFxKmJ_10autumn_web5cache3getNtNtB2_5layer14CachedResponseEB4_
FNDA:2,_RINvNtCs39mWnhFxKmJ_10autumn_web5cache3getNtNtCsauO83Ko6oyK_5alloc6string6StringEB4_
FNDA:119,_RINvNtCs39mWnhFxKmJ_10autumn_web5cache3getlEB4_
FNDA:1,_RINvNtCs39mWnhFxKmJ_10autumn_web5cache6insertINtNtCsauO83Ko6oyK_5alloc3vec3VechEEB4_
FNDA:3,_RINvNtCs39mWnhFxKmJ_10autumn_web5cache6insertNtNtB2_5layer14CachedResponseEB4_
FNDA:1,_RINvNtCs39mWnhFxKmJ_10autumn_web5cache6insertNtNtCsauO83Ko6oyK_5alloc6string6StringEB4_
FNDA:118,_RINvNtCs39mWnhFxKmJ_10autumn_web5cache6insertlEB4_
FNDA:1,_RNCINvNtCs39mWnhFxKmJ_10autumn_web5cache3getINtNtCsauO83Ko6oyK_5alloc3vec3VechEE0B6_
FNDA:2,_RNCINvNtCs39mWnhFxKmJ_10autumn_web5cache3getNtNtB4_5layer14CachedResponseE0B6_
FNDA:2,_RNCINvNtCs39mWnhFxKmJ_10autumn_web5cache3getNtNtCsauO83Ko6oyK_5alloc6string6StringE0B6_
FNDA:24,_RNCINvNtCs39mWnhFxKmJ_10autumn_web5cache3getlE0B6_
FNF:10
FNH:8
DA:79,129
DA:80,129
DA:81,129
DA:82,129
DA:83,129
DA:88,123
DA:89,123
DA:90,123
DA:119,0
DA:120,0
DA:121,0
DA:123,0
DA:124,0
DA:125,0
DA:136,7
DA:137,7
DA:138,7
DA:139,7
DA:140,7
DA:147,1
DA:148,1
DA:149,1
DA:150,1
DA:151,1
DA:154,1
DA:155,1
DA:156,1
DA:157,1
DA:158,1
DA:161,1
DA:162,1
DA:163,1
DA:164,1
DA:165,1
DA:168,1
DA:169,1
DA:170,1
DA:171,1
BRF:0
BRH:0
LF:39
LH:33
end_of_record
SF:/app/autumn/src/cache/moka_impl.rs
FN:44,_RNvMNtNtCslNlzF6u6e2e_10autumn_web5cache9moka_implNtB2_16MokaCacheBuilder12max_capacity
FN:52,_RNvMNtNtCslNlzF6u6e2e_10autumn_web5cache9moka_implNtB2_16MokaCacheBuilder3ttl
FN:59,_RNvMNtNtCslNlzF6u6e2e_10autumn_web5cache9moka_implNtB2_16MokaCacheBuilder5build
FN:84,_RNvMs_NtNtCslNlzF6u6e2e_10autumn_web5cache9moka_implNtB4_9MokaCache3new
FN:73,_RNvMs_NtNtCslNlzF6u6e2e_10autumn_web5cache9moka_implNtB4_9MokaCache7builder
FN:102,_RNvXs0_NtNtCslNlzF6u6e2e_10autumn_web5cache9moka_implNtB5_9MokaCacheNtB7_5Cache10invalidate
FN:98,_RNvXs0_NtNtCslNlzF6u6e2e_10autumn_web5cache9moka_implNtB5_9MokaCacheNtB7_5Cache12insert_value
FN:106,_RNvXs0_NtNtCslNlzF6u6e2e_10autumn_web5cache9moka_implNtB5_9MokaCacheNtB7_5Cache5clear
FN:94,_RNvXs0_NtNtCslNlzF6u6e2e_10autumn_web5cache9moka_implNtB5_9MokaCacheNtB7_5Cache9get_value
FN:133,_RNvNtNtNtCs39mWnhFxKmJ_10autumn_web5cache9moka_impl5testss_10ttl_expiry
FN:223,_RNvNtNtNtCs39mWnhFxKmJ_10autumn_web5cache9moka_impl5testss_15builder_pattern
FN:168,_RNvNtNtNtCs39mWnhFxKmJ_10autumn_web5cache9moka_impl5testss_17clear_removes_all
FN:188,_RNvNtNtNtCs39mWnhFxKmJ_10autumn_web5cache9moka_impl5testss_17concurrent_access
FN:208,_RNvNtNtNtCs39mWnhFxKmJ_10autumn_web5cache9moka_impl5testss_19heterogeneous_types
FN:143,_RNvNtNtNtCs39mWnhFxKmJ_10autumn_web5cache9moka_impl5testss_19max_capacity_evicts
FN:118,_RNvNtNtNtCs39mWnhFxKmJ_10autumn_web5cache9moka_impl5testss_20basic_insert_and_get
FN:179,_RNvNtNtNtCs39mWnhFxKmJ_10autumn_web5cache9moka_impl5testss_22invalidate_removes_key
FN:126,_RNvNtNtNtCs39mWnhFxKmJ_10autumn_web5cache9moka_impl5testss_26type_mismatch_returns_none
FN:193,_RNCNCNvNtNtNtCs39mWnhFxKmJ_10autumn_web5cache9moka_impl5testss_17concurrent_access00Bb_
FN:191,_RNCNvNtNtNtCs39mWnhFxKmJ_10autumn_web5cache9moka_impl5testss_17concurrent_access0B9_
FN:156,_RNCNvNtNtNtCs39mWnhFxKmJ_10autumn_web5cache9moka_impl5testss_19max_capacity_evicts0B9_
FN:44,_RNvMNtNtCs39mWnhFxKmJ_10autumn_web5cache9moka_implNtB2_16MokaCacheBuilder12max_capacity
FN:52,_RNvMNtNtCs39mWnhFxKmJ_10autumn_web5cache9moka_implNtB2_16MokaCacheBuilder3ttl
FN:59,_RNvMNtNtCs39mWnhFxKmJ_10autumn_web5cache9moka_implNtB2_16MokaCacheBuilder5build
FN:84,_RNvMs_NtNtCs39mWnhFxKmJ_10autumn_web5cache9moka_implNtB4_9MokaCache3new
FN:73,_RNvMs_NtNtCs39mWnhFxKmJ_10autumn_web5cache9moka_implNtB4_9MokaCache7builder
FN:102,_RNvXs0_NtNtCs39mWnhFxKmJ_10autumn_web5cache9moka_implNtB5_9MokaCacheNtB7_5Cache10invalidate
FN:98,_RNvXs0_NtNtCs39mWnhFxKmJ_10autumn_web5cache9moka_implNtB5_9MokaCacheNtB7_5Cache12insert_value
FN:106,_RNvXs0_NtNtCs39mWnhFxKmJ_10autumn_web5cache9moka_implNtB5_9MokaCacheNtB7_5Cache5clear
FN:94,_RNvXs0_NtNtCs39mWnhFxKmJ_10autumn_web5cache9moka_implNtB5_9MokaCacheNtB7_5Cache9get_value
FNDA:0,_RNvMNtNtCslNlzF6u6e2e_10autumn_web5cache9moka_implNtB2_16MokaCacheBuilder12max_capacity
FNDA:0,_RNvMNtNtCslNlzF6u6e2e_10autumn_web5cache9moka_implNtB2_16MokaCacheBuilder3ttl
FNDA:0,_RNvMNtNtCslNlzF6u6e2e_10autumn_web5cache9moka_implNtB2_16MokaCacheBuilder5build
FNDA:0,_RNvMs_NtNtCslNlzF6u6e2e_10autumn_web5cache9moka_implNtB4_9MokaCache3new
FNDA:0,_RNvMs_NtNtCslNlzF6u6e2e_10autumn_web5cache9moka_implNtB4_9MokaCache7builder
FNDA:0,_RNvXs0_NtNtCslNlzF6u6e2e_10autumn_web5cache9moka_implNtB5_9MokaCacheNtB7_5Cache10invalidate
FNDA:0,_RNvXs0_NtNtCslNlzF6u6e2e_10autumn_web5cache9moka_implNtB5_9MokaCacheNtB7_5Cache12insert_value
FNDA:0,_RNvXs0_NtNtCslNlzF6u6e2e_10autumn_web5cache9moka_implNtB5_9MokaCacheNtB7_5Cache5clear
FNDA:0,_RNvXs0_NtNtCslNlzF6u6e2e_10autumn_web5cache9moka_implNtB5_9MokaCacheNtB7_5Cache9get_value
FNDA:1,_RNvNtNtNtCs39mWnhFxKmJ_10autumn_web5cache9moka_impl5testss_10ttl_expiry
FNDA:1,_RNvNtNtNtCs39mWnhFxKmJ_10autumn_web5cache9moka_impl5testss_15builder_pattern
FNDA:1,_RNvNtNtNtCs39mWnhFxKmJ_10autumn_web5cache9moka_impl5testss_17clear_removes_all
FNDA:1,_RNvNtNtNtCs39mWnhFxKmJ_10autumn_web5cache9moka_impl5testss_17concurrent_access
FNDA:1,_RNvNtNtNtCs39mWnhFxKmJ_10autumn_web5cache9moka_impl5testss_19heterogeneous_types
FNDA:1,_RNvNtNtNtCs39mWnhFxKmJ_10autumn_web5cache9moka_impl5testss_19max_capacity_evicts
FNDA:1,_RNvNtNtNtCs39mWnhFxKmJ_10autumn_web5cache9moka_impl5testss_20basic_insert_and_get
FNDA:1,_RNvNtNtNtCs39mWnhFxKmJ_10autumn_web5cache9moka_impl5testss_22invalidate_removes_key
FNDA:1,_RNvNtNtNtCs39mWnhFxKmJ_10autumn_web5cache9moka_impl5testss_26type_mismatch_returns_none
FNDA:10,_RNCNCNvNtNtNtCs39mWnhFxKmJ_10autumn_web5cache9moka_impl5testss_17concurrent_access00Bb_
FNDA:10,_RNCNvNtNtNtCs39mWnhFxKmJ_10autumn_web5cache9moka_impl5testss_17concurrent_access0B9_
FNDA:100,_RNCNvNtNtNtCs39mWnhFxKmJ_10autumn_web5cache9moka_impl5testss_19max_capacity_evicts0B9_
FNDA:14,_RNvMNtNtCs39mWnhFxKmJ_10autumn_web5cache9moka_implNtB2_16MokaCacheBuilder12max_capacity
FNDA:2,_RNvMNtNtCs39mWnhFxKmJ_10autumn_web5cache9moka_implNtB2_16MokaCacheBuilder3ttl
FNDA:14,_RNvMNtNtCs39mWnhFxKmJ_10autumn_web5cache9moka_implNtB2_16MokaCacheBuilder5build
FNDA:13,_RNvMs_NtNtCs39mWnhFxKmJ_10autumn_web5cache9moka_implNtB4_9MokaCache3new
FNDA:14,_RNvMs_NtNtCs39mWnhFxKmJ_10autumn_web5cache9moka_implNtB4_9MokaCache7builder
FNDA:1,_RNvXs0_NtNtCs39mWnhFxKmJ_10autumn_web5cache9moka_implNtB5_9MokaCacheNtB7_5Cache10invalidate
FNDA:123,_RNvXs0_NtNtCs39mWnhFxKmJ_10autumn_web5cache9moka_implNtB5_9MokaCacheNtB7_5Cache12insert_value
FNDA:1,_RNvXs0_NtNtCs39mWnhFxKmJ_10autumn_web5cache9moka_implNtB5_9MokaCacheNtB7_5Cache5clear
FNDA:129,_RNvXs0_NtNtCs39mWnhFxKmJ_10autumn_web5cache9moka_implNtB5_9MokaCacheNtB7_5Cache9get_value
FNF:21
FNH:21
DA:44,14
DA:45,14
DA:46,14
DA:47,14
DA:52,2
DA:53,2
DA:54,2
DA:55,2
DA:59,14
DA:60,14
DA:61,14
DA:62,2
DA:63,12
DA:64,14
DA:65,14
DA:66,14
DA:67,14
DA:73,14
DA:74,14
DA:75,14
DA:76,14
DA:77,14
DA:78,14
DA:84,13
DA:85,13
DA:86,13
DA:87,1
DA:88,12
DA:89,13
DA:90,13
DA:94,129
DA:95,129
DA:96,129
DA:98,123
DA:99,123
DA:100,123
DA:102,1
DA:103,1
DA:104,1
DA:106,1
DA:107,1
DA:108,1
DA:118,1
DA:119,1
DA:120,1
DA:121,1
DA:122,1
DA:123,1
DA:126,1
DA:127,1
DA:128,1
DA:129,1
DA:130,1
DA:133,1
DA:134,1
DA:135,1
DA:136,1
DA:137,1
DA:138,1
DA:139,1
DA:140,1
DA:143,1
DA:146,1
DA:147,100
DA:148,100
DA:150,100
DA:151,5
DA:152,95
DA:154,1
DA:155,1
DA:156,100
DA:157,1
DA:160,1
DA:161,1
DA:164,1
DA:165,1
DA:168,1
DA:169,1
DA:170,1
DA:171,1
DA:172,1
DA:173,1
DA:174,1
DA:175,1
DA:176,1
DA:179,1
DA:180,1
DA:181,1
DA:182,1
DA:183,1
DA:184,1
DA:185,1
DA:188,1
DA:189,1
DA:190,1
DA:191,10
DA:192,10
DA:193,10
DA:194,10
DA:195,10
DA:196,10
DA:197,10
DA:198,10
DA:199,1
DA:201,10
DA:202,10
DA:203,10
DA:205,1
DA:208,1
DA:209,1
DA:210,1
DA:211,1
DA:212,1
DA:214,1
DA:215,1
DA:216,1
DA:217,1
DA:219,1
DA:220,1
DA:223,1
DA:224,1
DA:225,1
DA:226,1
DA:227,1
DA:228,1
DA:229,1
DA:230,1
BRF:0
BRH:0
LF:130
LH:130
end_of_record
SF:/app/autumn/src/config.rs
FN:1591,_RNCNvXsd_NtCslNlzF6u6e2e_10autumn_web6configNtB7_19TomlEnvConfigLoaderNtB7_12ConfigLoader4load0Cs9uppY7VoQWl_11app_builder
FN:1591,_RNCNvXsd_NtCslNlzF6u6e2e_10autumn_web6configNtB7_19TomlEnvConfigLoaderNtB7_12ConfigLoader4load0B9_
FN:947,_RNvMs1_NtCslNlzF6u6e2e_10autumn_web6configNtB5_12AutumnConfig12profile_name
FN:547,_RNvMs1_NtCslNlzF6u6e2e_10autumn_web6configNtB5_12AutumnConfig13load_with_env
FN:662,_RNvMs1_NtCslNlzF6u6e2e_10autumn_web6configNtB5_12AutumnConfig19apply_env_overrides
FN:667,_RNvMs1_NtCslNlzF6u6e2e_10autumn_web6configNtB5_12AutumnConfig28apply_env_overrides_with_env
FN:710,_RNvMs1_NtCslNlzF6u6e2e_10autumn_web6configNtB5_12AutumnConfig32apply_log_env_overrides_with_env
FN:862,_RNvMs1_NtCslNlzF6u6e2e_10autumn_web6configNtB5_12AutumnConfig33apply_auth_env_overrides_with_env
FN:785,_RNvMs1_NtCslNlzF6u6e2e_10autumn_web6configNtB5_12AutumnConfig33apply_cors_env_overrides_with_env
FN:769,_RNvMs1_NtCslNlzF6u6e2e_10autumn_web6configNtB5_12AutumnConfig35apply_health_env_overrides_with_env
FN:679,_RNvMs1_NtCslNlzF6u6e2e_10autumn_web6configNtB5_12AutumnConfig35apply_server_env_overrides_with_env
FN:813,_RNvMs1_NtCslNlzF6u6e2e_10autumn_web6configNtB5_12AutumnConfig36apply_session_env_overrides_with_env
FN:689,_RNvMs1_NtCslNlzF6u6e2e_10autumn_web6configNtB5_12AutumnConfig37apply_database_env_overrides_with_env
FN:868,_RNvMs1_NtCslNlzF6u6e2e_10autumn_web6configNtB5_12AutumnConfig37apply_security_env_overrides_with_env
FN:725,_RNvMs1_NtCslNlzF6u6e2e_10autumn_web6configNtB5_12AutumnConfig38apply_telemetry_env_overrides_with_env
FN:533,_RNvMs1_NtCslNlzF6u6e2e_10autumn_web6configNtB5_12AutumnConfig4load
FN:611,_RNvMs1_NtCslNlzF6u6e2e_10autumn_web6configNtB5_12AutumnConfig8validate
FN:594,_RNvMs1_NtCslNlzF6u6e2e_10autumn_web6configNtB5_12AutumnConfig9load_from
FN:1055,_RNvMs2_NtCslNlzF6u6e2e_10autumn_web6configNtB5_14DatabaseConfig8validate
FN:1180,_RNvMs3_NtCslNlzF6u6e2e_10autumn_web6configNtB5_17TelemetryProtocol14from_env_value
FN:1351,_RNvMs6_NtCslNlzF6u6e2e_10autumn_web6configNtB5_10CorsConfig8validate
FN:153,_RNvMs_NtCslNlzF6u6e2e_10autumn_web6configNtB4_7MockEnv3new
FN:161,_RNvMs_NtCslNlzF6u6e2e_10autumn_web6configNtB4_7MockEnv4with
FN:168,_RNvMs_NtCslNlzF6u6e2e_10autumn_web6configNtB4_7MockEnv7without
FN:1585,_RNvMsc_NtCslNlzF6u6e2e_10autumn_web6configNtB5_19TomlEnvConfigLoader3new
FN:329,_RNvNtCslNlzF6u6e2e_10autumn_web6config10deep_merge
FN:391,_RNvNtCslNlzF6u6e2e_10autumn_web6config11levenshtein
FN:1426,_RNvNtCslNlzF6u6e2e_10autumn_web6config12default_host
FN:1422,_RNvNtCslNlzF6u6e2e_10autumn_web6config12default_port
FN:196,_RNvNtCslNlzF6u6e2e_10autumn_web6config13load_raw_toml
FN:1414,_RNvNtCslNlzF6u6e2e_10autumn_web6config13parse_env_csv
FN:1404,_RNvNtCslNlzF6u6e2e_10autumn_web6config14parse_env_bool
FN:212,_RNvNtCslNlzF6u6e2e_10autumn_web6config15resolve_profile
FN:365,_RNvNtCslNlzF6u6e2e_10autumn_web6config15suggest_profile
FN:1398,_RNvNtCslNlzF6u6e2e_10autumn_web6config16parse_env_string
FN:1462,_RNvNtCslNlzF6u6e2e_10autumn_web6config17default_live_path
FN:1442,_RNvNtCslNlzF6u6e2e_10autumn_web6config17default_log_level
FN:1434,_RNvNtCslNlzF6u6e2e_10autumn_web6config17default_pool_size
FN:377,_RNvNtCslNlzF6u6e2e_10autumn_web6config17warn_profile_typo
FN:1466,_RNvNtCslNlzF6u6e2e_10autumn_web6config18default_ready_path
FN:93,_RNvNtCslNlzF6u6e2e_10autumn_web6config19___set_macro_context
FN:1458,_RNvNtCslNlzF6u6e2e_10autumn_web6config19default_health_path
FN:1374,_RNvNtCslNlzF6u6e2e_10autumn_web6config20default_cors_headers
FN:1378,_RNvNtCslNlzF6u6e2e_10autumn_web6config20default_cors_max_age
FN:1363,_RNvNtCslNlzF6u6e2e_10autumn_web6config20default_cors_methods
FN:1470,_RNvNtCslNlzF6u6e2e_10autumn_web6config20default_startup_path
FN:333,_RNvNtCslNlzF6u6e2e_10autumn_web6config21deep_merge_with_depth
FN:184,_RNvNtCslNlzF6u6e2e_10autumn_web6config22find_config_file_named
FN:1260,_RNvNtCslNlzF6u6e2e_10autumn_web6config23default_actuator_prefix
FN:1438,_RNvNtCslNlzF6u6e2e_10autumn_web6config23default_connect_timeout
FN:1392,_RNvNtCslNlzF6u6e2e_10autumn_web6config23parse_env_option_string
FN:1430,_RNvNtCslNlzF6u6e2e_10autumn_web6config24default_shutdown_timeout
FN:246,_RNvNtCslNlzF6u6e2e_10autumn_web6config24profile_defaults_as_toml
FN:1454,_RNvNtCslNlzF6u6e2e_10autumn_web6config29default_telemetry_environment
FN:1446,_RNvNtCslNlzF6u6e2e_10autumn_web6config30default_telemetry_service_name
FN:1450,_RNvNtCslNlzF6u6e2e_10autumn_web6config33default_telemetry_service_version
FN:126,_RNvXNtCslNlzF6u6e2e_10autumn_web6configNtB2_5OsEnvNtB2_3Env3var
FN:175,_RNvXs0_NtCslNlzF6u6e2e_10autumn_web6configNtB5_7MockEnvNtB5_3Env3var
FN:1252,_RNvXs4_NtCslNlzF6u6e2e_10autumn_web6configNtB5_14ActuatorConfigNtNtCs4kUJL3MZFFz_4core7default7Default7default
FN:1331,_RNvXs5_NtCslNlzF6u6e2e_10autumn_web6configNtB5_10CorsConfigNtNtCs4kUJL3MZFFz_4core7default7Default7default
FN:1477,_RNvXs7_NtCslNlzF6u6e2e_10autumn_web6configNtB5_12ServerConfigNtNtCs4kUJL3MZFFz_4core7default7Default7default
FN:1487,_RNvXs8_NtCslNlzF6u6e2e_10autumn_web6configNtB5_14DatabaseConfigNtNtCs4kUJL3MZFFz_4core7default7Default7default
FN:1498,_RNvXs9_NtCslNlzF6u6e2e_10autumn_web6configNtB5_9LogConfigNtNtCs4kUJL3MZFFz_4core7default7Default7default
FN:1507,_RNvXsa_NtCslNlzF6u6e2e_10autumn_web6configNtB5_15TelemetryConfigNtNtCs4kUJL3MZFFz_4core7default7Default7default
FN:1522,_RNvXsb_NtCslNlzF6u6e2e_10autumn_web6configNtB5_12HealthConfigNtNtCs4kUJL3MZFFz_4core7default7Default7default
FN:1591,_RNvXsd_NtCslNlzF6u6e2e_10autumn_web6configNtB5_19TomlEnvConfigLoaderNtB5_12ConfigLoader4load
FN:1383,_RINvNtCslNlzF6u6e2e_10autumn_web6config9parse_envdEB4_
FN:1383,_RINvNtCslNlzF6u6e2e_10autumn_web6config9parse_envjEB4_
FN:1383,_RINvNtCslNlzF6u6e2e_10autumn_web6config9parse_envmEB4_
FN:1383,_RINvNtCslNlzF6u6e2e_10autumn_web6config9parse_envtEB4_
FN:1383,_RINvNtCslNlzF6u6e2e_10autumn_web6config9parse_envyEB4_
FN:552,_RNCNvMs1_NtCslNlzF6u6e2e_10autumn_web6configNtB7_12AutumnConfig13load_with_env0B9_
FN:553,_RNCNvMs1_NtCslNlzF6u6e2e_10autumn_web6configNtB7_12AutumnConfig13load_with_envs_0B9_
FN:1352,_RNCNvMs6_NtCslNlzF6u6e2e_10autumn_web6configNtB7_10CorsConfig8validate0B9_
FN:1416,_RNCNvNtCslNlzF6u6e2e_10autumn_web6config13parse_env_csv0B5_
FN:369,_RNCNvNtCslNlzF6u6e2e_10autumn_web6config15suggest_profile0B5_
FN:370,_RNCNvNtCslNlzF6u6e2e_10autumn_web6config15suggest_profiles_0B5_
FN:662,_RNvMs1_NtCs39mWnhFxKmJ_10autumn_web6configNtB5_12AutumnConfig19apply_env_overrides
FN:533,_RNvMs1_NtCs39mWnhFxKmJ_10autumn_web6configNtB5_12AutumnConfig4load
FN:168,_RNvMs_NtCs39mWnhFxKmJ_10autumn_web6configNtB4_7MockEnv7without
FN:93,_RNvNtCs39mWnhFxKmJ_10autumn_web6config19___set_macro_context
FN:2738,_RNCNvNtNtCs39mWnhFxKmJ_10autumn_web6config5testss_31deep_merge_handles_deep_nesting0B7_
FN:1613,_RNCNvNtNtCs39mWnhFxKmJ_10autumn_web6config5testss_43config_loader_trait_returns_supplied_config0B7_
FN:1647,_RNCNvNtNtCs39mWnhFxKmJ_10autumn_web6config5testss_46default_toml_env_loader_succeeds_without_files0B7_
FN:1607,_RNCNvXNtNtCs39mWnhFxKmJ_10autumn_web6config5testsNtB4_16MockConfigLoaderNtB6_12ConfigLoader4load0B8_
FN:947,_RNvMs1_NtCs39mWnhFxKmJ_10autumn_web6configNtB5_12AutumnConfig12profile_name
FN:547,_RNvMs1_NtCs39mWnhFxKmJ_10autumn_web6configNtB5_12AutumnConfig13load_with_env
FN:667,_RNvMs1_NtCs39mWnhFxKmJ_10autumn_web6configNtB5_12AutumnConfig28apply_env_overrides_with_env
FN:710,_RNvMs1_NtCs39mWnhFxKmJ_10autumn_web6configNtB5_12AutumnConfig32apply_log_env_overrides_with_env
FN:862,_RNvMs1_NtCs39mWnhFxKmJ_10autumn_web6configNtB5_12AutumnConfig33apply_auth_env_overrides_with_env
FN:785,_RNvMs1_NtCs39mWnhFxKmJ_10autumn_web6configNtB5_12AutumnConfig33apply_cors_env_overrides_with_env
FN:769,_RNvMs1_NtCs39mWnhFxKmJ_10autumn_web6configNtB5_12AutumnConfig35apply_health_env_overrides_with_env
FN:679,_RNvMs1_NtCs39mWnhFxKmJ_10autumn_web6configNtB5_12AutumnConfig35apply_server_env_overrides_with_env
FN:813,_RNvMs1_NtCs39mWnhFxKmJ_10autumn_web6configNtB5_12AutumnConfig36apply_session_env_overrides_with_env
FN:689,_RNvMs1_NtCs39mWnhFxKmJ_10autumn_web6configNtB5_12AutumnConfig37apply_database_env_overrides_with_env
FN:868,_RNvMs1_NtCs39mWnhFxKmJ_10autumn_web6configNtB5_12AutumnConfig37apply_security_env_overrides_with_env
FN:725,_RNvMs1_NtCs39mWnhFxKmJ_10autumn_web6configNtB5_12AutumnConfig38apply_telemetry_env_overrides_with_env
FN:611,_RNvMs1_NtCs39mWnhFxKmJ_10autumn_web6configNtB5_12AutumnConfig8validate
FN:594,_RNvMs1_NtCs39mWnhFxKmJ_10autumn_web6configNtB5_12AutumnConfig9load_from
FN:1055,_RNvMs2_NtCs39mWnhFxKmJ_10autumn_web6configNtB5_14DatabaseConfig8validate
FN:1180,_RNvMs3_NtCs39mWnhFxKmJ_10autumn_web6configNtB5_17TelemetryProtocol14from_env_value
FN:1351,_RNvMs6_NtCs39mWnhFxKmJ_10autumn_web6configNtB5_10CorsConfig8validate
FN:153,_RNvMs_NtCs39mWnhFxKmJ_10autumn_web6configNtB4_7MockEnv3new
FN:161,_RNvMs_NtCs39mWnhFxKmJ_10autumn_web6configNtB4_7MockEnv4with
FN:1585,_RNvMsc_NtCs39mWnhFxKmJ_10autumn_web6configNtB5_19TomlEnvConfigLoader3new
FN:329,_RNvNtCs39mWnhFxKmJ_10autumn_web6config10deep_merge
FN:391,_RNvNtCs39mWnhFxKmJ_10autumn_web6config11levenshtein
FN:1426,_RNvNtCs39mWnhFxKmJ_10autumn_web6config12default_host
FN:1422,_RNvNtCs39mWnhFxKmJ_10autumn_web6config12default_port
FN:196,_RNvNtCs39mWnhFxKmJ_10autumn_web6config13load_raw_toml
FN:1414,_RNvNtCs39mWnhFxKmJ_10autumn_web6config13parse_env_csv
FN:1404,_RNvNtCs39mWnhFxKmJ_10autumn_web6config14parse_env_bool
FN:212,_RNvNtCs39mWnhFxKmJ_10autumn_web6config15resolve_profile
FN:365,_RNvNtCs39mWnhFxKmJ_10autumn_web6config15suggest_profile
FN:1398,_RNvNtCs39mWnhFxKmJ_10autumn_web6config16parse_env_string
FN:1462,_RNvNtCs39mWnhFxKmJ_10autumn_web6config17default_live_path
FN:1442,_RNvNtCs39mWnhFxKmJ_10autumn_web6config17default_log_level
FN:1434,_RNvNtCs39mWnhFxKmJ_10autumn_web6config17default_pool_size
FN:377,_RNvNtCs39mWnhFxKmJ_10autumn_web6config17warn_profile_typo
FN:1466,_RNvNtCs39mWnhFxKmJ_10autumn_web6config18default_ready_path
FN:1458,_RNvNtCs39mWnhFxKmJ_10autumn_web6config19default_health_path
FN:1374,_RNvNtCs39mWnhFxKmJ_10autumn_web6config20default_cors_headers
FN:1378,_RNvNtCs39mWnhFxKmJ_10autumn_web6config20default_cors_max_age
FN:1363,_RNvNtCs39mWnhFxKmJ_10autumn_web6config20default_cors_methods
FN:1470,_RNvNtCs39mWnhFxKmJ_10autumn_web6config20default_startup_path
FN:333,_RNvNtCs39mWnhFxKmJ_10autumn_web6config21deep_merge_with_depth
FN:184,_RNvNtCs39mWnhFxKmJ_10autumn_web6config22find_config_file_named
FN:1260,_RNvNtCs39mWnhFxKmJ_10autumn_web6config23default_actuator_prefix
FN:1438,_RNvNtCs39mWnhFxKmJ_10autumn_web6config23default_connect_timeout
FN:1392,_RNvNtCs39mWnhFxKmJ_10autumn_web6config23parse_env_option_string
FN:1430,_RNvNtCs39mWnhFxKmJ_10autumn_web6config24default_shutdown_timeout
FN:246,_RNvNtCs39mWnhFxKmJ_10autumn_web6config24profile_defaults_as_toml
FN:1454,_RNvNtCs39mWnhFxKmJ_10autumn_web6config29default_telemetry_environment
FN:1446,_RNvNtCs39mWnhFxKmJ_10autumn_web6config30default_telemetry_service_name
FN:1450,_RNvNtCs39mWnhFxKmJ_10autumn_web6config33default_telemetry_service_version
FN:126,_RNvXNtCs39mWnhFxKmJ_10autumn_web6configNtB2_5OsEnvNtB2_3Env3var
FN:175,_RNvXs0_NtCs39mWnhFxKmJ_10autumn_web6configNtB5_7MockEnvNtB5_3Env3var
FN:1252,_RNvXs4_NtCs39mWnhFxKmJ_10autumn_web6configNtB5_14ActuatorConfigNtNtCs4kUJL3MZFFz_4core7default7Default7default
FN:1331,_RNvXs5_NtCs39mWnhFxKmJ_10autumn_web6configNtB5_10CorsConfigNtNtCs4kUJL3MZFFz_4core7default7Default7default
FN:1477,_RNvXs7_NtCs39mWnhFxKmJ_10autumn_web6configNtB5_12ServerConfigNtNtCs4kUJL3MZFFz_4core7default7Default7default
FN:1487,_RNvXs8_NtCs39mWnhFxKmJ_10autumn_web6configNtB5_14DatabaseConfigNtNtCs4kUJL3MZFFz_4core7default7Default7default
FN:1498,_RNvXs9_NtCs39mWnhFxKmJ_10autumn_web6configNtB5_9LogConfigNtNtCs4kUJL3MZFFz_4core7default7Default7default
FN:1507,_RNvXsa_NtCs39mWnhFxKmJ_10autumn_web6configNtB5_15TelemetryConfigNtNtCs4kUJL3MZFFz_4core7default7Default7default
FN:1522,_RNvXsb_NtCs39mWnhFxKmJ_10autumn_web6configNtB5_12HealthConfigNtNtCs4kUJL3MZFFz_4core7default7Default7default
FN:1591,_RNvXsd_NtCs39mWnhFxKmJ_10autumn_web6configNtB5_19TomlEnvConfigLoaderNtB5_12ConfigLoader4load
FN:1815,_RNvNtNtCs39mWnhFxKmJ_10autumn_web6config5testss_12log_defaults
FN:2680,_RNvNtNtCs39mWnhFxKmJ_10autumn_web6config5testss_13cors_defaults
FN:1835,_RNvNtNtCs39mWnhFxKmJ_10autumn_web6config5testss_15health_defaults
FN:1700,_RNvNtNtCs39mWnhFxKmJ_10autumn_web6config5testss_15server_defaults
FN:2697,_RNvNtNtCs39mWnhFxKmJ_10autumn_web6config5testss_17actuator_defaults
FN:1708,_RNvNtNtCs39mWnhFxKmJ_10autumn_web6config5testss_17database_defaults
FN:2292,_RNvNtNtCs39mWnhFxKmJ_10autumn_web6config5testss_17deep_merge_tables
FN:2377,_RNvNtNtCs39mWnhFxKmJ_10autumn_web6config5testss_17levenshtein_basic
FN:1822,_RNvNtNtCs39mWnhFxKmJ_10autumn_web6config5testss_18telemetry_defaults
FN:2493,_RNvNtNtCs39mWnhFxKmJ_10autumn_web6config5testss_19suggest_profile_prd
FN:2394,_RNvNtNtCs39mWnhFxKmJ_10autumn_web6config5testss_21profile_name_accessor
FN:2066,_RNvNtNtCs39mWnhFxKmJ_10autumn_web6config5testss_22env_override_log_level
FN:1990,_RNvNtNtCs39mWnhFxKmJ_10autumn_web6config5testss_22env_override_pool_size
FN:1898,_RNvNtNtCs39mWnhFxKmJ_10autumn_web6config5testss_22load_valid_full_config
FN:2207,_RNvNtNtCs39mWnhFxKmJ_10autumn_web6config5testss_23validate_accepts_no_url
FN:2137,_RNvNtNtCs39mWnhFxKmJ_10autumn_web6config5testss_24env_override_health_path
FN:2145,_RNvNtNtCs39mWnhFxKmJ_10autumn_web6config5testss_24env_override_probe_paths
FN:2032,_RNvNtNtCs39mWnhFxKmJ_10autumn_web6config5testss_24env_override_server_host
FN:2024,_RNvNtNtCs39mWnhFxKmJ_10autumn_web6config5testss_24env_override_server_port
FN:2215,_RNvNtNtCs39mWnhFxKmJ_10autumn_web6config5testss_24resolve_profile_from_env
FN:1782,_RNvNtNtCs39mWnhFxKmJ_10autumn_web6config5testss_25autumn_config_validate_ok
FN:2534,_RNvNtNtCs39mWnhFxKmJ_10autumn_web6config5testss_25env_override_cors_max_age
FN:1979,_RNvNtNtCs39mWnhFxKmJ_10autumn_web6config5testss_25env_override_database_url
FN:2160,_RNvNtNtCs39mWnhFxKmJ_10autumn_web6config5testss_25env_overrides_toml_values
FN:2236,_RNvNtNtCs39mWnhFxKmJ_10autumn_web6config5testss_26dev_profile_smart_defaults
FN:2574,_RNvNtNtCs39mWnhFxKmJ_10autumn_web6config5testss_26load_uses_profile_layering
FN:2251,_RNvNtNtCs39mWnhFxKmJ_10autumn_web6config5testss_27prod_profile_smart_defaults
FN:2474,_RNvNtNtCs39mWnhFxKmJ_10autumn_web6config5testss_27suggest_profile_close_match
FN:2691,_RNvNtNtCs39mWnhFxKmJ_10autumn_web6config5testss_28cors_in_full_config_defaults
FN:1998,_RNvNtNtCs39mWnhFxKmJ_10autumn_web6config5testss_28env_override_connect_timeout
FN:2386,_RNvNtNtCs39mWnhFxKmJ_10autumn_web6config5testss_28env_override_health_detailed
FN:2650,_RNvNtNtCs39mWnhFxKmJ_10autumn_web6config5testss_28env_override_log_format_auto
FN:2074,_RNvNtNtCs39mWnhFxKmJ_10autumn_web6config5testss_28env_override_log_format_json
FN:1657,_RNvNtNtCs39mWnhFxKmJ_10autumn_web6config5testss_29database_config_validate_none
FN:2749,_RNvNtNtCs39mWnhFxKmJ_10autumn_web6config5testss_29deep_merge_stops_at_max_depth
FN:2100,_RNvNtNtCs39mWnhFxKmJ_10autumn_web6config5testss_29env_override_telemetry_fields
FN:2189,_RNvNtNtCs39mWnhFxKmJ_10autumn_web6config5testss_29validate_accepts_postgres_url
FN:2704,_RNvNtNtCs39mWnhFxKmJ_10autumn_web6config5testss_30actuator_prefix_in_full_config
FN:2463,_RNvNtNtCs39mWnhFxKmJ_10autumn_web6config5testss_30deep_merge_when_base_not_table
FN:2082,_RNvNtNtCs39mWnhFxKmJ_10autumn_web6config5testss_30env_override_log_format_pretty
FN:2710,_RNvNtNtCs39mWnhFxKmJ_10autumn_web6config5testss_31deep_merge_handles_deep_nesting
FN:1955,_RNvNtNtCs39mWnhFxKmJ_10autumn_web6config5testss_31load_invalid_toml_returns_error
FN:1879,_RNvNtNtCs39mWnhFxKmJ_10autumn_web6config5testss_31log_format_variants_deserialize
FN:2198,_RNvNtNtCs39mWnhFxKmJ_10autumn_web6config5testss_31validate_accepts_postgresql_url
FN:2286,_RNvNtNtCs39mWnhFxKmJ_10autumn_web6config5testss_32custom_profile_no_smart_defaults
FN:1716,_RNvNtNtCs39mWnhFxKmJ_10autumn_web6config5testss_32database_validate_none_url_is_ok
FN:1759,_RNvNtNtCs39mWnhFxKmJ_10autumn_web6config5testss_32database_validate_url_edge_cases
FN:1967,_RNvNtNtCs39mWnhFxKmJ_10autumn_web6config5testss_32load_empty_file_returns_defaults
FN:2333,_RNvNtNtCs39mWnhFxKmJ_10autumn_web6config5testss_32profile_toml_overrides_base_toml
FN:2512,_RNvNtNtCs39mWnhFxKmJ_10autumn_web6config5testss_33env_override_cors_allowed_origins
FN:2671,_RNvNtNtCs39mWnhFxKmJ_10autumn_web6config5testss_33env_override_health_detailed_zero
FN:2222,_RNvNtNtCs39mWnhFxKmJ_10autumn_web6config5testss_33resolve_profile_auto_detect_debug
FN:2661,_RNvNtNtCs39mWnhFxKmJ_10autumn_web6config5testss_34env_override_health_detailed_false
FN:2405,_RNvNtNtCs39mWnhFxKmJ_10autumn_web6config5testss_34find_config_file_falls_back_to_cwd
FN:1891,_RNvNtNtCs39mWnhFxKmJ_10autumn_web6config5testss_34load_missing_file_returns_defaults
FN:1808,_RNvNtNtCs39mWnhFxKmJ_10autumn_web6config5testss_35autumn_config_validate_database_err
FN:2526,_RNvNtNtCs39mWnhFxKmJ_10autumn_web6config5testss_35env_override_cors_allow_credentials
FN:2612,_RNvNtNtCs39mWnhFxKmJ_10autumn_web6config5testss_35load_from_io_error_is_not_swallowed
FN:2229,_RNvNtNtCs39mWnhFxKmJ_10autumn_web6config5testss_35resolve_profile_auto_detect_release
FN:2486,_RNvNtNtCs39mWnhFxKmJ_10autumn_web6config5testss_35suggest_profile_exact_known_profile
FN:2173,_RNvNtNtCs39mWnhFxKmJ_10autumn_web6config5testss_35validate_rejects_invalid_url_scheme
FN:1743,_RNvNtNtCs39mWnhFxKmJ_10autumn_web6config5testss_36database_validate_invalid_url_is_err
FN:1725,_RNvNtNtCs39mWnhFxKmJ_10autumn_web6config5testss_36database_validate_postgres_url_is_ok
FN:2040,_RNvNtNtCs39mWnhFxKmJ_10autumn_web6config5testss_36env_override_server_shutdown_timeout
FN:2433,_RNvNtNtCs39mWnhFxKmJ_10autumn_web6config5testss_36resolve_profile_cli_flag_exact_match
FN:2499,_RNvNtNtCs39mWnhFxKmJ_10autumn_web6config5testss_36warn_profile_typo_runs_without_panic
FN:2274,_RNvNtNtCs39mWnhFxKmJ_10autumn_web6config5testss_37dev_profile_does_not_auto_enable_hsts
FN:2637,_RNvNtNtCs39mWnhFxKmJ_10autumn_web6config5testss_37load_raw_toml_valid_file_returns_some
FN:2480,_RNvNtNtCs39mWnhFxKmJ_10autumn_web6config5testss_37suggest_profile_no_match_when_distant
FN:1734,_RNvNtNtCs39mWnhFxKmJ_10autumn_web6config5testss_38database_validate_postgresql_url_is_ok
FN:2006,_RNvNtNtCs39mWnhFxKmJ_10autumn_web6config5testss_38env_override_invalid_pool_size_ignored
FN:2588,_RNvNtNtCs39mWnhFxKmJ_10autumn_web6config5testss_38load_custom_profile_without_toml_warns
FN:1684,_RNvNtNtCs39mWnhFxKmJ_10autumn_web6config5testss_39database_config_validate_invalid_scheme
FN:1666,_RNvNtNtCs39mWnhFxKmJ_10autumn_web6config5testss_39database_config_validate_valid_postgres
FN:2090,_RNvNtNtCs39mWnhFxKmJ_10autumn_web6config5testss_39env_override_invalid_log_format_ignored
FN:2621,_RNvNtNtCs39mWnhFxKmJ_10autumn_web6config5testss_39load_raw_toml_missing_file_returns_none
FN:2048,_RNvNtNtCs39mWnhFxKmJ_10autumn_web6config5testss_40env_override_invalid_server_port_ignored
FN:2602,_RNvNtNtCs39mWnhFxKmJ_10autumn_web6config5testss_40load_dev_profile_no_profile_toml_no_warn
FN:1942,_RNvNtNtCs39mWnhFxKmJ_10autumn_web6config5testss_40load_partial_config_merges_with_defaults
FN:2627,_RNvNtNtCs39mWnhFxKmJ_10autumn_web6config5testss_40load_raw_toml_directory_returns_io_error
FN:1845,_RNvNtNtCs39mWnhFxKmJ_10autumn_web6config5testss_40top_level_default_populates_all_sections
FN:1675,_RNvNtNtCs39mWnhFxKmJ_10autumn_web6config5testss_41database_config_validate_valid_postgresql
FN:2448,_RNvNtNtCs39mWnhFxKmJ_10autumn_web6config5testss_42deep_merge_non_table_overlay_replaces_base
FN:1854,_RNvNtNtCs39mWnhFxKmJ_10autumn_web6config5testss_42deserialize_empty_object_uses_all_defaults
FN:2505,_RNvNtNtCs39mWnhFxKmJ_10autumn_web6config5testss_42levenshtein_threshold_in_warn_profile_typo
FN:1613,_RNvNtNtCs39mWnhFxKmJ_10autumn_web6config5testss_43config_loader_trait_returns_supplied_config
FN:2056,_RNvNtNtCs39mWnhFxKmJ_10autumn_web6config5testss_45env_override_invalid_shutdown_timeout_ignored
FN:1647,_RNvNtNtCs39mWnhFxKmJ_10autumn_web6config5testss_46default_toml_env_loader_succeeds_without_files
FN:2542,_RNvNtNtCs39mWnhFxKmJ_10autumn_web6config5testss_47cors_validate_rejects_wildcard_with_credentials
FN:1869,_RNvNtNtCs39mWnhFxKmJ_10autumn_web6config5testss_47deserialize_partial_config_merges_with_defaults
FN:2129,_RNvNtNtCs39mWnhFxKmJ_10autumn_web6config5testss_47env_override_invalid_telemetry_protocol_ignored
FN:2014,_RNvNtNtCs39mWnhFxKmJ_10autumn_web6config5testss_48env_override_database_auto_migrate_in_production
FN:2558,_RNvNtNtCs39mWnhFxKmJ_10autumn_web6config5testss_50cors_validate_accepts_wildcard_without_credentials
FN:2413,_RNvNtNtCs39mWnhFxKmJ_10autumn_web6config5testss_51find_config_file_uses_manifest_dir_when_file_exists
FN:1628,_RNvNtNtCs39mWnhFxKmJ_10autumn_web6config5testss_52validate_does_not_error_on_redis_backend_without_url
FN:2566,_RNvNtNtCs39mWnhFxKmJ_10autumn_web6config5testss_55cors_validate_accepts_explicit_origins_with_credentials
FN:2424,_RNvNtNtCs39mWnhFxKmJ_10autumn_web6config5testss_58find_config_file_falls_back_when_manifest_dir_missing_file
FN:1788,_RNvNtNtCs39mWnhFxKmJ_10autumn_web6config5testss_66autumn_config_validate_no_longer_errors_on_invalid_session_backend
FN:1607,_RNvXNtNtCs39mWnhFxKmJ_10autumn_web6config5testsNtB2_16MockConfigLoaderNtB4_12ConfigLoader4load
FN:1383,_RINvNtCs39mWnhFxKmJ_10autumn_web6config9parse_envdEB4_
FN:1383,_RINvNtCs39mWnhFxKmJ_10autumn_web6config9parse_envjEB4_
FN:1383,_RINvNtCs39mWnhFxKmJ_10autumn_web6config9parse_envmEB4_
FN:1383,_RINvNtCs39mWnhFxKmJ_10autumn_web6config9parse_envtEB4_
FN:1383,_RINvNtCs39mWnhFxKmJ_10autumn_web6config9parse_envyEB4_
FN:552,_RNCNvMs1_NtCs39mWnhFxKmJ_10autumn_web6configNtB7_12AutumnConfig13load_with_env0B9_
FN:553,_RNCNvMs1_NtCs39mWnhFxKmJ_10autumn_web6configNtB7_12AutumnConfig13load_with_envs_0B9_
FN:1352,_RNCNvMs6_NtCs39mWnhFxKmJ_10autumn_web6configNtB7_10CorsConfig8validate0B9_
FN:1416,_RNCNvNtCs39mWnhFxKmJ_10autumn_web6config13parse_env_csv0B5_
FN:369,_RNCNvNtCs39mWnhFxKmJ_10autumn_web6config15suggest_profile0B5_
FN:370,_RNCNvNtCs39mWnhFxKmJ_10autumn_web6config15suggest_profiles_0B5_
FN:1591,_RNCNvXsd_NtCs39mWnhFxKmJ_10autumn_web6configNtB7_19TomlEnvConfigLoaderNtB7_12ConfigLoader4load0B9_
FNDA:1,_RNCNvXsd_NtCslNlzF6u6e2e_10autumn_web6configNtB7_19TomlEnvConfigLoaderNtB7_12ConfigLoader4load0Cs9uppY7VoQWl_11app_builder
FNDA:0,_RNCNvXsd_NtCslNlzF6u6e2e_10autumn_web6configNtB7_19TomlEnvConfigLoaderNtB7_12ConfigLoader4load0B9_
FNDA:0,_RNvMs1_NtCslNlzF6u6e2e_10autumn_web6configNtB5_12AutumnConfig12profile_name
FNDA:1,_RNvMs1_NtCslNlzF6u6e2e_10autumn_web6configNtB5_12AutumnConfig13load_with_env
FNDA:0,_RNvMs1_NtCslNlzF6u6e2e_10autumn_web6configNtB5_12AutumnConfig19apply_env_overrides
FNDA:1,_RNvMs1_NtCslNlzF6u6e2e_10autumn_web6configNtB5_12AutumnConfig28apply_env_overrides_with_env
FNDA:1,_RNvMs1_NtCslNlzF6u6e2e_10autumn_web6configNtB5_12AutumnConfig32apply_log_env_overrides_with_env
FNDA:1,_RNvMs1_NtCslNlzF6u6e2e_10autumn_web6configNtB5_12AutumnConfig33apply_auth_env_overrides_with_env
FNDA:1,_RNvMs1_NtCslNlzF6u6e2e_10autumn_web6configNtB5_12AutumnConfig33apply_cors_env_overrides_with_env
FNDA:1,_RNvMs1_NtCslNlzF6u6e2e_10autumn_web6configNtB5_12AutumnConfig35apply_health_env_overrides_with_env
FNDA:1,_RNvMs1_NtCslNlzF6u6e2e_10autumn_web6configNtB5_12AutumnConfig35apply_server_env_overrides_with_env
FNDA:1,_RNvMs1_NtCslNlzF6u6e2e_10autumn_web6configNtB5_12AutumnConfig36apply_session_env_overrides_with_env
FNDA:1,_RNvMs1_NtCslNlzF6u6e2e_10autumn_web6configNtB5_12AutumnConfig37apply_database_env_overrides_with_env
FNDA:1,_RNvMs1_NtCslNlzF6u6e2e_10autumn_web6configNtB5_12AutumnConfig37apply_security_env_overrides_with_env
FNDA:1,_RNvMs1_NtCslNlzF6u6e2e_10autumn_web6configNtB5_12AutumnConfig38apply_telemetry_env_overrides_with_env
FNDA:0,_RNvMs1_NtCslNlzF6u6e2e_10autumn_web6configNtB5_12AutumnConfig4load
FNDA:1,_RNvMs1_NtCslNlzF6u6e2e_10autumn_web6configNtB5_12AutumnConfig8validate
FNDA:0,_RNvMs1_NtCslNlzF6u6e2e_10autumn_web6configNtB5_12AutumnConfig9load_from
FNDA:1,_RNvMs2_NtCslNlzF6u6e2e_10autumn_web6configNtB5_14DatabaseConfig8validate
FNDA:0,_RNvMs3_NtCslNlzF6u6e2e_10autumn_web6configNtB5_17TelemetryProtocol14from_env_value
FNDA:1,_RNvMs6_NtCslNlzF6u6e2e_10autumn_web6configNtB5_10CorsConfig8validate
FNDA:0,_RNvMs_NtCslNlzF6u6e2e_10autumn_web6configNtB4_7MockEnv3new
FNDA:0,_RNvMs_NtCslNlzF6u6e2e_10autumn_web6configNtB4_7MockEnv4with
FNDA:0,_RNvMs_NtCslNlzF6u6e2e_10autumn_web6configNtB4_7MockEnv7without
FNDA:1,_RNvMsc_NtCslNlzF6u6e2e_10autumn_web6configNtB5_19TomlEnvConfigLoader3new
FNDA:0,_RNvNtCslNlzF6u6e2e_10autumn_web6config10deep_merge
FNDA:0,_RNvNtCslNlzF6u6e2e_10autumn_web6config11levenshtein
FNDA:37,_RNvNtCslNlzF6u6e2e_10autumn_web6config12default_host
FNDA:37,_RNvNtCslNlzF6u6e2e_10autumn_web6config12default_port
FNDA:1,_RNvNtCslNlzF6u6e2e_10autumn_web6config13load_raw_toml
FNDA:3,_RNvNtCslNlzF6u6e2e_10autumn_web6config13parse_env_csv
FNDA:13,_RNvNtCslNlzF6u6e2e_10autumn_web6config14parse_env_bool
FNDA:1,_RNvNtCslNlzF6u6e2e_10autumn_web6config15resolve_profile
FNDA:0,_RNvNtCslNlzF6u6e2e_10autumn_web6config15suggest_profile
FNDA:20,_RNvNtCslNlzF6u6e2e_10autumn_web6config16parse_env_string
FNDA:37,_RNvNtCslNlzF6u6e2e_10autumn_web6config17default_live_path
FNDA:37,_RNvNtCslNlzF6u6e2e_10autumn_web6config17default_log_level
FNDA:37,_RNvNtCslNlzF6u6e2e_10autumn_web6config17default_pool_size
FNDA:0,_RNvNtCslNlzF6u6e2e_10autumn_web6config17warn_profile_typo
FNDA:37,_RNvNtCslNlzF6u6e2e_10autumn_web6config18default_ready_path
FNDA:0,_RNvNtCslNlzF6u6e2e_10autumn_web6config19___set_macro_context
FNDA:37,_RNvNtCslNlzF6u6e2e_10autumn_web6config19default_health_path
FNDA:37,_RNvNtCslNlzF6u6e2e_10autumn_web6config20default_cors_headers
FNDA:37,_RNvNtCslNlzF6u6e2e_10autumn_web6config20default_cors_max_age
FNDA:37,_RNvNtCslNlzF6u6e2e_10autumn_web6config20default_cors_methods
FNDA:37,_RNvNtCslNlzF6u6e2e_10autumn_web6config20default_startup_path
FNDA:0,_RNvNtCslNlzF6u6e2e_10autumn_web6config21deep_merge_with_depth
FNDA:1,_RNvNtCslNlzF6u6e2e_10autumn_web6config22find_config_file_named
FNDA:37,_RNvNtCslNlzF6u6e2e_10autumn_web6config23default_actuator_prefix
FNDA:37,_RNvNtCslNlzF6u6e2e_10autumn_web6config23default_connect_timeout
FNDA:3,_RNvNtCslNlzF6u6e2e_10autumn_web6config23parse_env_option_string
FNDA:37,_RNvNtCslNlzF6u6e2e_10autumn_web6config24default_shutdown_timeout
FNDA:0,_RNvNtCslNlzF6u6e2e_10autumn_web6config24profile_defaults_as_toml
FNDA:37,_RNvNtCslNlzF6u6e2e_10autumn_web6config29default_telemetry_environment
FNDA:37,_RNvNtCslNlzF6u6e2e_10autumn_web6config30default_telemetry_service_name
FNDA:37,_RNvNtCslNlzF6u6e2e_10autumn_web6config33default_telemetry_service_version
FNDA:122,_RNvXNtCslNlzF6u6e2e_10autumn_web6configNtB2_5OsEnvNtB2_3Env3var
FNDA:0,_RNvXs0_NtCslNlzF6u6e2e_10autumn_web6configNtB5_7MockEnvNtB5_3Env3var
FNDA:37,_RNvXs4_NtCslNlzF6u6e2e_10autumn_web6configNtB5_14ActuatorConfigNtNtCs4kUJL3MZFFz_4core7default7Default7default
FNDA:37,_RNvXs5_NtCslNlzF6u6e2e_10autumn_web6configNtB5_10CorsConfigNtNtCs4kUJL3MZFFz_4core7default7Default7default
FNDA:37,_RNvXs7_NtCslNlzF6u6e2e_10autumn_web6configNtB5_12ServerConfigNtNtCs4kUJL3MZFFz_4core7default7Default7default
FNDA:37,_RNvXs8_NtCslNlzF6u6e2e_10autumn_web6configNtB5_14DatabaseConfigNtNtCs4kUJL3MZFFz_4core7default7Default7default
FNDA:37,_RNvXs9_NtCslNlzF6u6e2e_10autumn_web6configNtB5_9LogConfigNtNtCs4kUJL3MZFFz_4core7default7Default7default
FNDA:37,_RNvXsa_NtCslNlzF6u6e2e_10autumn_web6configNtB5_15TelemetryConfigNtNtCs4kUJL3MZFFz_4core7default7Default7default
FNDA:37,_RNvXsb_NtCslNlzF6u6e2e_10autumn_web6configNtB5_12HealthConfigNtNtCs4kUJL3MZFFz_4core7default7Default7default
FNDA:1,_RNvXsd_NtCslNlzF6u6e2e_10autumn_web6configNtB5_19TomlEnvConfigLoaderNtB5_12ConfigLoader4load
FNDA:1,_RINvNtCslNlzF6u6e2e_10autumn_web6config9parse_envdEB4_
FNDA:1,_RINvNtCslNlzF6u6e2e_10autumn_web6config9parse_envjEB4_
FNDA:2,_RINvNtCslNlzF6u6e2e_10autumn_web6config9parse_envmEB4_
FNDA:1,_RINvNtCslNlzF6u6e2e_10autumn_web6config9parse_envtEB4_
FNDA:5,_RINvNtCslNlzF6u6e2e_10autumn_web6config9parse_envyEB4_
FNDA:1,_RNCNvMs1_NtCslNlzF6u6e2e_10autumn_web6configNtB7_12AutumnConfig13load_with_env0B9_
FNDA:0,_RNCNvMs1_NtCslNlzF6u6e2e_10autumn_web6configNtB7_12AutumnConfig13load_with_envs_0B9_
FNDA:0,_RNCNvMs6_NtCslNlzF6u6e2e_10autumn_web6configNtB7_10CorsConfig8validate0B9_
FNDA:0,_RNCNvNtCslNlzF6u6e2e_10autumn_web6config13parse_env_csv0B5_
FNDA:0,_RNCNvNtCslNlzF6u6e2e_10autumn_web6config15suggest_profile0B5_
FNDA:0,_RNCNvNtCslNlzF6u6e2e_10autumn_web6config15suggest_profiles_0B5_
FNDA:0,_RNvMs1_NtCs39mWnhFxKmJ_10autumn_web6configNtB5_12AutumnConfig19apply_env_overrides
FNDA:0,_RNvMs1_NtCs39mWnhFxKmJ_10autumn_web6configNtB5_12AutumnConfig4load
FNDA:0,_RNvMs_NtCs39mWnhFxKmJ_10autumn_web6configNtB4_7MockEnv7without
FNDA:0,_RNvNtCs39mWnhFxKmJ_10autumn_web6config19___set_macro_context
FNDA:1,_RNCNvNtNtCs39mWnhFxKmJ_10autumn_web6config5testss_31deep_merge_handles_deep_nesting0B7_
FNDA:1,_RNCNvNtNtCs39mWnhFxKmJ_10autumn_web6config5testss_43config_loader_trait_returns_supplied_config0B7_
FNDA:1,_RNCNvNtNtCs39mWnhFxKmJ_10autumn_web6config5testss_46default_toml_env_loader_succeeds_without_files0B7_
FNDA:1,_RNCNvXNtNtCs39mWnhFxKmJ_10autumn_web6config5testsNtB4_16MockConfigLoaderNtB6_12ConfigLoader4load0B8_
FNDA:2,_RNvMs1_NtCs39mWnhFxKmJ_10autumn_web6configNtB5_12AutumnConfig12profile_name
FNDA:4,_RNvMs1_NtCs39mWnhFxKmJ_10autumn_web6configNtB5_12AutumnConfig13load_with_env
FNDA:30,_RNvMs1_NtCs39mWnhFxKmJ_10autumn_web6configNtB5_12AutumnConfig28apply_env_overrides_with_env
FNDA:30,_RNvMs1_NtCs39mWnhFxKmJ_10autumn_web6configNtB5_12AutumnConfig32apply_log_env_overrides_with_env
FNDA:30,_RNvMs1_NtCs39mWnhFxKmJ_10autumn_web6configNtB5_12AutumnConfig33apply_auth_env_overrides_with_env
FNDA:30,_RNvMs1_NtCs39mWnhFxKmJ_10autumn_web6configNtB5_12AutumnConfig33apply_cors_env_overrides_with_env
FNDA:30,_RNvMs1_NtCs39mWnhFxKmJ_10autumn_web6configNtB5_12AutumnConfig35apply_health_env_overrides_with_env
FNDA:30,_RNvMs1_NtCs39mWnhFxKmJ_10autumn_web6configNtB5_12AutumnConfig35apply_server_env_overrides_with_env
FNDA:30,_RNvMs1_NtCs39mWnhFxKmJ_10autumn_web6configNtB5_12AutumnConfig36apply_session_env_overrides_with_env
FNDA:30,_RNvMs1_NtCs39mWnhFxKmJ_10autumn_web6configNtB5_12AutumnConfig37apply_database_env_overrides_with_env
FNDA:30,_RNvMs1_NtCs39mWnhFxKmJ_10autumn_web6configNtB5_12AutumnConfig37apply_security_env_overrides_with_env
FNDA:30,_RNvMs1_NtCs39mWnhFxKmJ_10autumn_web6configNtB5_12AutumnConfig38apply_telemetry_env_overrides_with_env
FNDA:15,_RNvMs1_NtCs39mWnhFxKmJ_10autumn_web6configNtB5_12AutumnConfig8validate
FNDA:7,_RNvMs1_NtCs39mWnhFxKmJ_10autumn_web6configNtB5_12AutumnConfig9load_from
FNDA:33,_RNvMs2_NtCs39mWnhFxKmJ_10autumn_web6configNtB5_14DatabaseConfig8validate
FNDA:2,_RNvMs3_NtCs39mWnhFxKmJ_10autumn_web6configNtB5_17TelemetryProtocol14from_env_value
FNDA:14,_RNvMs6_NtCs39mWnhFxKmJ_10autumn_web6configNtB5_10CorsConfig8validate
FNDA:42,_RNvMs_NtCs39mWnhFxKmJ_10autumn_web6configNtB4_7MockEnv3new
FNDA:49,_RNvMs_NtCs39mWnhFxKmJ_10autumn_web6configNtB4_7MockEnv4with
FNDA:1,_RNvMsc_NtCs39mWnhFxKmJ_10autumn_web6configNtB5_19TomlEnvConfigLoader3new
FNDA:7,_RNvNtCs39mWnhFxKmJ_10autumn_web6config10deep_merge
FNDA:24,_RNvNtCs39mWnhFxKmJ_10autumn_web6config11levenshtein
FNDA:140,_RNvNtCs39mWnhFxKmJ_10autumn_web6config12default_host
FNDA:141,_RNvNtCs39mWnhFxKmJ_10autumn_web6config12default_port
FNDA:12,_RNvNtCs39mWnhFxKmJ_10autumn_web6config13load_raw_toml
FNDA:90,_RNvNtCs39mWnhFxKmJ_10autumn_web6config13parse_env_csv
FNDA:390,_RNvNtCs39mWnhFxKmJ_10autumn_web6config14parse_env_bool
FNDA:11,_RNvNtCs39mWnhFxKmJ_10autumn_web6config15resolve_profile
FNDA:8,_RNvNtCs39mWnhFxKmJ_10autumn_web6config15suggest_profile
FNDA:600,_RNvNtCs39mWnhFxKmJ_10autumn_web6config16parse_env_string
FNDA:146,_RNvNtCs39mWnhFxKmJ_10autumn_web6config17default_live_path
FNDA:141,_RNvNtCs39mWnhFxKmJ_10autumn_web6config17default_log_level
FNDA:172,_RNvNtCs39mWnhFxKmJ_10autumn_web6config17default_pool_size
FNDA:3,_RNvNtCs39mWnhFxKmJ_10autumn_web6config17warn_profile_typo
FNDA:146,_RNvNtCs39mWnhFxKmJ_10autumn_web6config18default_ready_path
FNDA:145,_RNvNtCs39mWnhFxKmJ_10autumn_web6config19default_health_path
FNDA:146,_RNvNtCs39mWnhFxKmJ_10autumn_web6config20default_cors_headers
FNDA:146,_RNvNtCs39mWnhFxKmJ_10autumn_web6config20default_cors_max_age
FNDA:146,_RNvNtCs39mWnhFxKmJ_10autumn_web6config20default_cors_methods
FNDA:146,_RNvNtCs39mWnhFxKmJ_10autumn_web6config20default_startup_path
FNDA:44,_RNvNtCs39mWnhFxKmJ_10autumn_web6config21deep_merge_with_depth
FNDA:10,_RNvNtCs39mWnhFxKmJ_10autumn_web6config22find_config_file_named
FNDA:145,_RNvNtCs39mWnhFxKmJ_10autumn_web6config23default_actuator_prefix
FNDA:173,_RNvNtCs39mWnhFxKmJ_10autumn_web6config23default_connect_timeout
FNDA:90,_RNvNtCs39mWnhFxKmJ_10autumn_web6config23parse_env_option_string
FNDA:140,_RNvNtCs39mWnhFxKmJ_10autumn_web6config24default_shutdown_timeout
FNDA:7,_RNvNtCs39mWnhFxKmJ_10autumn_web6config24profile_defaults_as_toml
FNDA:146,_RNvNtCs39mWnhFxKmJ_10autumn_web6config29default_telemetry_environment
FNDA:151,_RNvNtCs39mWnhFxKmJ_10autumn_web6config30default_telemetry_service_name
FNDA:151,_RNvNtCs39mWnhFxKmJ_10autumn_web6config33default_telemetry_service_version
FNDA:134,_RNvXNtCs39mWnhFxKmJ_10autumn_web6configNtB2_5OsEnvNtB2_3Env3var
FNDA:1564,_RNvXs0_NtCs39mWnhFxKmJ_10autumn_web6configNtB5_7MockEnvNtB5_3Env3var
FNDA:141,_RNvXs4_NtCs39mWnhFxKmJ_10autumn_web6configNtB5_14ActuatorConfigNtNtCs4kUJL3MZFFz_4core7default7Default7default
FNDA:142,_RNvXs5_NtCs39mWnhFxKmJ_10autumn_web6configNtB5_10CorsConfigNtNtCs4kUJL3MZFFz_4core7default7Default7default
FNDA:136,_RNvXs7_NtCs39mWnhFxKmJ_10autumn_web6configNtB5_12ServerConfigNtNtCs4kUJL3MZFFz_4core7default7Default7default
FNDA:172,_RNvXs8_NtCs39mWnhFxKmJ_10autumn_web6configNtB5_14DatabaseConfigNtNtCs4kUJL3MZFFz_4core7default7Default7default
FNDA:141,_RNvXs9_NtCs39mWnhFxKmJ_10autumn_web6configNtB5_9LogConfigNtNtCs4kUJL3MZFFz_4core7default7Default7default
FNDA:146,_RNvXsa_NtCs39mWnhFxKmJ_10autumn_web6configNtB5_15TelemetryConfigNtNtCs4kUJL3MZFFz_4core7default7Default7default
FNDA:140,_RNvXsb_NtCs39mWnhFxKmJ_10autumn_web6configNtB5_12HealthConfigNtNtCs4kUJL3MZFFz_4core7default7Default7default
FNDA:1,_RNvXsd_NtCs39mWnhFxKmJ_10autumn_web6configNtB5_19TomlEnvConfigLoaderNtB5_12ConfigLoader4load
FNDA:1,_RNvNtNtCs39mWnhFxKmJ_10autumn_web6config5testss_12log_defaults
FNDA:1,_RNvNtNtCs39mWnhFxKmJ_10autumn_web6config5testss_13cors_defaults
FNDA:1,_RNvNtNtCs39mWnhFxKmJ_10autumn_web6config5testss_15health_defaults
FNDA:1,_RNvNtNtCs39mWnhFxKmJ_10autumn_web6config5testss_15server_defaults
FNDA:1,_RNvNtNtCs39mWnhFxKmJ_10autumn_web6config5testss_17actuator_defaults
FNDA:1,_RNvNtNtCs39mWnhFxKmJ_10autumn_web6config5testss_17database_defaults
FNDA:1,_RNvNtNtCs39mWnhFxKmJ_10autumn_web6config5testss_17deep_merge_tables
FNDA:1,_RNvNtNtCs39mWnhFxKmJ_10autumn_web6config5testss_17levenshtein_basic
FNDA:1,_RNvNtNtCs39mWnhFxKmJ_10autumn_web6config5testss_18telemetry_defaults
FNDA:1,_RNvNtNtCs39mWnhFxKmJ_10autumn_web6config5testss_19suggest_profile_prd
FNDA:1,_RNvNtNtCs39mWnhFxKmJ_10autumn_web6config5testss_21profile_name_accessor
FNDA:1,_RNvNtNtCs39mWnhFxKmJ_10autumn_web6config5testss_22env_override_log_level
FNDA:1,_RNvNtNtCs39mWnhFxKmJ_10autumn_web6config5testss_22env_override_pool_size
FNDA:1,_RNvNtNtCs39mWnhFxKmJ_10autumn_web6config5testss_22load_valid_full_config
FNDA:1,_RNvNtNtCs39mWnhFxKmJ_10autumn_web6config5testss_23validate_accepts_no_url
FNDA:1,_RNvNtNtCs39mWnhFxKmJ_10autumn_web6config5testss_24env_override_health_path
FNDA:1,_RNvNtNtCs39mWnhFxKmJ_10autumn_web6config5testss_24env_override_probe_paths
FNDA:1,_RNvNtNtCs39mWnhFxKmJ_10autumn_web6config5testss_24env_override_server_host
FNDA:1,_RNvNtNtCs39mWnhFxKmJ_10autumn_web6config5testss_24env_override_server_port
FNDA:1,_RNvNtNtCs39mWnhFxKmJ_10autumn_web6config5testss_24resolve_profile_from_env
FNDA:1,_RNvNtNtCs39mWnhFxKmJ_10autumn_web6config5testss_25autumn_config_validate_ok
FNDA:1,_RNvNtNtCs39mWnhFxKmJ_10autumn_web6config5testss_25env_override_cors_max_age
FNDA:1,_RNvNtNtCs39mWnhFxKmJ_10autumn_web6config5testss_25env_override_database_url
FNDA:1,_RNvNtNtCs39mWnhFxKmJ_10autumn_web6config5testss_25env_overrides_toml_values
FNDA:1,_RNvNtNtCs39mWnhFxKmJ_10autumn_web6config5testss_26dev_profile_smart_defaults
FNDA:1,_RNvNtNtCs39mWnhFxKmJ_10autumn_web6config5testss_26load_uses_profile_layering
FNDA:1,_RNvNtNtCs39mWnhFxKmJ_10autumn_web6config5testss_27prod_profile_smart_defaults
FNDA:1,_RNvNtNtCs39mWnhFxKmJ_10autumn_web6config5testss_27suggest_profile_close_match
FNDA:1,_RNvNtNtCs39mWnhFxKmJ_10autumn_web6config5testss_28cors_in_full_config_defaults
FNDA:1,_RNvNtNtCs39mWnhFxKmJ_10autumn_web6config5testss_28env_override_connect_timeout
FNDA:1,_RNvNtNtCs39mWnhFxKmJ_10autumn_web6config5testss_28env_override_health_detailed
FNDA:1,_RNvNtNtCs39mWnhFxKmJ_10autumn_web6config5testss_28env_override_log_format_auto
FNDA:1,_RNvNtNtCs39mWnhFxKmJ_10autumn_web6config5testss_28env_override_log_format_json
FNDA:1,_RNvNtNtCs39mWnhFxKmJ_10autumn_web6config5testss_29database_config_validate_none
FNDA:1,_RNvNtNtCs39mWnhFxKmJ_10autumn_web6config5testss_29deep_merge_stops_at_max_depth
FNDA:1,_RNvNtNtCs39mWnhFxKmJ_10autumn_web6config5testss_29env_override_telemetry_fields
FNDA:1,_RNvNtNtCs39mWnhFxKmJ_10autumn_web6config5testss_29validate_accepts_postgres_url
FNDA:1,_RNvNtNtCs39mWnhFxKmJ_10autumn_web6config5testss_30actuator_prefix_in_full_config
FNDA:1,_RNvNtNtCs39mWnhFxKmJ_10autumn_web6config5testss_30deep_merge_when_base_not_table
FNDA:1,_RNvNtNtCs39mWnhFxKmJ_10autumn_web6config5testss_30env_override_log_format_pretty
FNDA:1,_RNvNtNtCs39mWnhFxKmJ_10autumn_web6config5testss_31deep_merge_handles_deep_nesting
FNDA:1,_RNvNtNtCs39mWnhFxKmJ_10autumn_web6config5testss_31load_invalid_toml_returns_error
FNDA:1,_RNvNtNtCs39mWnhFxKmJ_10autumn_web6config5testss_31log_format_variants_deserialize
FNDA:1,_RNvNtNtCs39mWnhFxKmJ_10autumn_web6config5testss_31validate_accepts_postgresql_url
FNDA:1,_RNvNtNtCs39mWnhFxKmJ_10autumn_web6config5testss_32custom_profile_no_smart_defaults
FNDA:1,_RNvNtNtCs39mWnhFxKmJ_10autumn_web6config5testss_32database_validate_none_url_is_ok
FNDA:1,_RNvNtNtCs39mWnhFxKmJ_10autumn_web6config5testss_32database_validate_url_edge_cases
FNDA:1,_RNvNtNtCs39mWnhFxKmJ_10autumn_web6config5testss_32load_empty_file_returns_defaults
FNDA:1,_RNvNtNtCs39mWnhFxKmJ_10autumn_web6config5testss_32profile_toml_overrides_base_toml
FNDA:1,_RNvNtNtCs39mWnhFxKmJ_10autumn_web6config5testss_33env_override_cors_allowed_origins
FNDA:1,_RNvNtNtCs39mWnhFxKmJ_10autumn_web6config5testss_33env_override_health_detailed_zero
FNDA:1,_RNvNtNtCs39mWnhFxKmJ_10autumn_web6config5testss_33resolve_profile_auto_detect_debug
FNDA:1,_RNvNtNtCs39mWnhFxKmJ_10autumn_web6config5testss_34env_override_health_detailed_false
FNDA:1,_RNvNtNtCs39mWnhFxKmJ_10autumn_web6config5testss_34find_config_file_falls_back_to_cwd
FNDA:1,_RNvNtNtCs39mWnhFxKmJ_10autumn_web6config5testss_34load_missing_file_returns_defaults
FNDA:1,_RNvNtNtCs39mWnhFxKmJ_10autumn_web6config5testss_35autumn_config_validate_database_err
FNDA:1,_RNvNtNtCs39mWnhFxKmJ_10autumn_web6config5testss_35env_override_cors_allow_credentials
FNDA:1,_RNvNtNtCs39mWnhFxKmJ_10autumn_web6config5testss_35load_from_io_error_is_not_swallowed
FNDA:1,_RNvNtNtCs39mWnhFxKmJ_10autumn_web6config5testss_35resolve_profile_auto_detect_release
FNDA:1,_RNvNtNtCs39mWnhFxKmJ_10autumn_web6config5testss_35suggest_profile_exact_known_profile
FNDA:1,_RNvNtNtCs39mWnhFxKmJ_10autumn_web6config5testss_35validate_rejects_invalid_url_scheme
FNDA:1,_RNvNtNtCs39mWnhFxKmJ_10autumn_web6config5testss_36database_validate_invalid_url_is_err
FNDA:1,_RNvNtNtCs39mWnhFxKmJ_10autumn_web6config5testss_36database_validate_postgres_url_is_ok
FNDA:1,_RNvNtNtCs39mWnhFxKmJ_10autumn_web6config5testss_36env_override_server_shutdown_timeout
FNDA:1,_RNvNtNtCs39mWnhFxKmJ_10autumn_web6config5testss_36resolve_profile_cli_flag_exact_match
FNDA:1,_RNvNtNtCs39mWnhFxKmJ_10autumn_web6config5testss_36warn_profile_typo_runs_without_panic
FNDA:1,_RNvNtNtCs39mWnhFxKmJ_10autumn_web6config5testss_37dev_profile_does_not_auto_enable_hsts
FNDA:1,_RNvNtNtCs39mWnhFxKmJ_10autumn_web6config5testss_37load_raw_toml_valid_file_returns_some
FNDA:1,_RNvNtNtCs39mWnhFxKmJ_10autumn_web6config5testss_37suggest_profile_no_match_when_distant
FNDA:1,_RNvNtNtCs39mWnhFxKmJ_10autumn_web6config5testss_38database_validate_postgresql_url_is_ok
FNDA:1,_RNvNtNtCs39mWnhFxKmJ_10autumn_web6config5testss_38env_override_invalid_pool_size_ignored
FNDA:1,_RNvNtNtCs39mWnhFxKmJ_10autumn_web6config5testss_38load_custom_profile_without_toml_warns
FNDA:1,_RNvNtNtCs39mWnhFxKmJ_10autumn_web6config5testss_39database_config_validate_invalid_scheme
FNDA:1,_RNvNtNtCs39mWnhFxKmJ_10autumn_web6config5testss_39database_config_validate_valid_postgres
FNDA:1,_RNvNtNtCs39mWnhFxKmJ_10autumn_web6config5testss_39env_override_invalid_log_format_ignored
FNDA:1,_RNvNtNtCs39mWnhFxKmJ_10autumn_web6config5testss_39load_raw_toml_missing_file_returns_none
FNDA:1,_RNvNtNtCs39mWnhFxKmJ_10autumn_web6config5testss_40env_override_invalid_server_port_ignored
FNDA:1,_RNvNtNtCs39mWnhFxKmJ_10autumn_web6config5testss_40load_dev_profile_no_profile_toml_no_warn
FNDA:1,_RNvNtNtCs39mWnhFxKmJ_10autumn_web6config5testss_40load_partial_config_merges_with_defaults
FNDA:1,_RNvNtNtCs39mWnhFxKmJ_10autumn_web6config5testss_40load_raw_toml_directory_returns_io_error
FNDA:1,_RNvNtNtCs39mWnhFxKmJ_10autumn_web6config5testss_40top_level_default_populates_all_sections
FNDA:1,_RNvNtNtCs39mWnhFxKmJ_10autumn_web6config5testss_41database_config_validate_valid_postgresql
FNDA:1,_RNvNtNtCs39mWnhFxKmJ_10autumn_web6config5testss_42deep_merge_non_table_overlay_replaces_base
FNDA:1,_RNvNtNtCs39mWnhFxKmJ_10autumn_web6config5testss_42deserialize_empty_object_uses_all_defaults
FNDA:1,_RNvNtNtCs39mWnhFxKmJ_10autumn_web6config5testss_42levenshtein_threshold_in_warn_profile_typo
FNDA:1,_RNvNtNtCs39mWnhFxKmJ_10autumn_web6config5testss_43config_loader_trait_returns_supplied_config
FNDA:1,_RNvNtNtCs39mWnhFxKmJ_10autumn_web6config5testss_45env_override_invalid_shutdown_timeout_ignored
FNDA:1,_RNvNtNtCs39mWnhFxKmJ_10autumn_web6config5testss_46default_toml_env_loader_succeeds_without_files
FNDA:1,_RNvNtNtCs39mWnhFxKmJ_10autumn_web6config5testss_47cors_validate_rejects_wildcard_with_credentials
FNDA:1,_RNvNtNtCs39mWnhFxKmJ_10autumn_web6config5testss_47deserialize_partial_config_merges_with_defaults
FNDA:1,_RNvNtNtCs39mWnhFxKmJ_10autumn_web6config5testss_47env_override_invalid_telemetry_protocol_ignored
FNDA:1,_RNvNtNtCs39mWnhFxKmJ_10autumn_web6config5testss_48env_override_database_auto_migrate_in_production
FNDA:1,_RNvNtNtCs39mWnhFxKmJ_10autumn_web6config5testss_50cors_validate_accepts_wildcard_without_credentials
FNDA:1,_RNvNtNtCs39mWnhFxKmJ_10autumn_web6config5testss_51find_config_file_uses_manifest_dir_when_file_exists
FNDA:1,_RNvNtNtCs39mWnhFxKmJ_10autumn_web6config5testss_52validate_does_not_error_on_redis_backend_without_url
FNDA:1,_RNvNtNtCs39mWnhFxKmJ_10autumn_web6config5testss_55cors_validate_accepts_explicit_origins_with_credentials
FNDA:1,_RNvNtNtCs39mWnhFxKmJ_10autumn_web6config5testss_58find_config_file_falls_back_when_manifest_dir_missing_file
FNDA:1,_RNvNtNtCs39mWnhFxKmJ_10autumn_web6config5testss_66autumn_config_validate_no_longer_errors_on_invalid_session_backend
FNDA:1,_RNvXNtNtCs39mWnhFxKmJ_10autumn_web6config5testsNtB2_16MockConfigLoaderNtB4_12ConfigLoader4load
FNDA:30,_RINvNtCs39mWnhFxKmJ_10autumn_web6config9parse_envdEB4_
FNDA:30,_RINvNtCs39mWnhFxKmJ_10autumn_web6config9parse_envjEB4_
FNDA:60,_RINvNtCs39mWnhFxKmJ_10autumn_web6config9parse_envmEB4_
FNDA:30,_RINvNtCs39mWnhFxKmJ_10autumn_web6config9parse_envtEB4_
FNDA:150,_RINvNtCs39mWnhFxKmJ_10autumn_web6config9parse_envyEB4_
FNDA:1,_RNCNvMs1_NtCs39mWnhFxKmJ_10autumn_web6configNtB7_12AutumnConfig13load_with_env0B9_
FNDA:3,_RNCNvMs1_NtCs39mWnhFxKmJ_10autumn_web6configNtB7_12AutumnConfig13load_with_envs_0B9_
FNDA:2,_RNCNvMs6_NtCs39mWnhFxKmJ_10autumn_web6configNtB7_10CorsConfig8validate0B9_
FNDA:2,_RNCNvNtCs39mWnhFxKmJ_10autumn_web6config13parse_env_csv0B5_
FNDA:16,_RNCNvNtCs39mWnhFxKmJ_10autumn_web6config15suggest_profile0B5_
FNDA:16,_RNCNvNtCs39mWnhFxKmJ_10autumn_web6config15suggest_profiles_0B5_
FNDA:1,_RNCNvXsd_NtCs39mWnhFxKmJ_10autumn_web6configNtB7_19TomlEnvConfigLoaderNtB7_12ConfigLoader4load0B9_
FNF:175
FNH:171
DA:93,0
DA:94,0
DA:95,0
DA:96,0
DA:126,256
DA:127,256
DA:128,66
DA:129,0
DA:130,66
DA:131,190
DA:132,5
DA:133,0
DA:134,0
DA:136,0
DA:138,5
DA:139,185
DA:140,256
DA:141,256
DA:153,42
DA:154,42
DA:155,42
DA:156,42
DA:157,42
DA:161,49
DA:162,49
DA:163,49
DA:164,49
DA:168,0
DA:169,0
DA:170,0
DA:171,0
DA:175,1564
DA:176,1564
DA:177,1564
DA:178,1564
DA:179,1564
DA:180,1564
DA:184,11
DA:185,11
DA:186,2
DA:187,2
DA:188,1
DA:189,1
DA:190,9
DA:191,10
DA:192,11
DA:196,13
DA:197,13
DA:198,3
DA:199,3
DA:200,3
DA:202,10
DA:203,1
DA:205,13
DA:212,12
DA:214,12
DA:215,4
DA:216,4
DA:217,0
DA:218,8
DA:221,8
DA:222,29
DA:223,29
DA:224,0
DA:225,0
DA:226,0
DA:227,29
DA:228,29
DA:229,0
DA:230,29
DA:234,8
DA:235,2
DA:236,1
DA:237,6
DA:239,12
DA:246,7
DA:247,7
DA:249,7
DA:250,7
DA:251,4
DA:252,4
DA:253,4
DA:254,4
DA:255,4
DA:256,4
DA:257,4
DA:258,4
DA:259,4
DA:260,4
DA:261,4
DA:262,4
DA:263,4
DA:264,4
DA:265,4
DA:266,4
DA:267,4
DA:268,4
DA:269,4
DA:270,4
DA:271,4
DA:272,4
DA:273,4
DA:274,4
DA:275,4
DA:276,4
DA:277,4
DA:278,4
DA:279,4
DA:280,4
DA:281,4
DA:282,3
DA:283,1
DA:284,1
DA:285,1
DA:286,1
DA:287,1
DA:288,1
DA:289,1
DA:290,1
DA:291,1
DA:292,1
DA:293,1
DA:294,1
DA:295,1
DA:296,1
DA:297,1
DA:298,1
DA:299,1
DA:300,1
DA:301,1
DA:302,1
DA:303,1
DA:304,1
DA:305,1
DA:306,1
DA:307,1
DA:308,1
DA:309,1
DA:310,1
DA:311,1
DA:312,1
DA:313,1
DA:314,1
DA:315,1
DA:316,1
DA:317,1
DA:318,2
DA:321,7
DA:322,7
DA:329,7
DA:330,7
DA:331,7
DA:333,44
DA:334,44
DA:335,2
DA:338,2
DA:339,42
DA:341,42
DA:342,1
DA:344,41
DA:345,1
DA:348,42
DA:349,42
DA:350,42
DA:352,42
DA:353,37
DA:354,37
DA:355,37
DA:356,5
DA:357,5
DA:358,5
DA:360,44
DA:365,8
DA:366,8
DA:367,8
DA:368,8
DA:369,16
DA:370,16
DA:371,8
DA:372,8
DA:373,8
DA:374,8
DA:377,3
DA:378,3
DA:379,1
DA:380,1
DA:381,1
DA:382,1
DA:383,2
DA:384,3
DA:391,24
DA:392,24
DA:393,24
DA:394,88
DA:395,88
DA:396,88
DA:397,304
DA:398,304
DA:399,304
DA:400,304
DA:401,304
DA:402,304
DA:404,24
DA:405,24
DA:533,0
DA:534,0
DA:535,0
DA:547,5
DA:548,5
DA:551,5
DA:552,2
DA:553,3
DA:557,5
DA:558,0
DA:559,5
DA:562,5
DA:563,3
DA:564,3
DA:565,0
DA:566,3
DA:567,2
DA:569,2
DA:572,5
DA:573,5
DA:574,5
DA:575,5
DA:578,5
DA:580,5
DA:581,5
DA:582,5
DA:594,7
DA:595,7
DA:596,5
DA:597,5
DA:598,4
DA:599,4
DA:601,2
DA:602,1
DA:604,7
DA:611,16
DA:612,16
DA:613,15
DA:623,14
DA:624,16
DA:662,0
DA:663,0
DA:664,0
DA:667,31
DA:668,31
DA:669,31
DA:670,31
DA:671,31
DA:672,31
DA:673,31
DA:674,31
DA:675,31
DA:676,31
DA:677,31
DA:679,31
DA:680,31
DA:681,31
DA:682,31
DA:683,31
DA:684,31
DA:685,31
DA:687,31
DA:689,31
DA:690,31
DA:691,1
DA:692,30
DA:693,31
DA:694,31
DA:695,31
DA:696,31
DA:698,31
DA:699,31
DA:700,31
DA:701,31
DA:703,31
DA:704,31
DA:705,31
DA:706,31
DA:708,31
DA:710,31
DA:711,31
DA:712,31
DA:713,4
DA:714,4
DA:715,3
DA:716,2
DA:717,1
DA:722,27
DA:723,31
DA:725,31
DA:727,31
DA:728,31
DA:729,31
DA:730,31
DA:732,31
DA:733,31
DA:734,31
DA:735,31
DA:737,31
DA:738,31
DA:739,31
DA:740,31
DA:742,31
DA:743,31
DA:744,31
DA:745,31
DA:747,31
DA:748,31
DA:749,31
DA:750,31
DA:752,31
DA:753,31
DA:754,31
DA:755,31
DA:757,31
DA:758,2
DA:759,1
DA:760,1
DA:765,29
DA:766,31
DA:767,31
DA:769,31
DA:770,31
DA:771,31
DA:772,31
DA:773,31
DA:774,31
DA:775,31
DA:777,31
DA:778,31
DA:779,31
DA:780,31
DA:782,31
DA:783,31
DA:785,31
DA:786,31
DA:787,31
DA:788,31
DA:789,31
DA:791,31
DA:792,31
DA:793,31
DA:794,31
DA:796,31
DA:797,31
DA:798,31
DA:799,31
DA:801,31
DA:802,31
DA:803,31
DA:804,31
DA:806,31
DA:807,31
DA:808,31
DA:809,31
DA:811,31
DA:813,31
DA:814,31
DA:815,31
DA:816,31
DA:817,31
DA:819,31
DA:820,0
DA:821,0
DA:822,0
DA:827,31
DA:828,31
DA:829,31
DA:830,31
DA:831,31
DA:833,31
DA:834,31
DA:835,31
DA:836,31
DA:837,31
DA:839,31
DA:840,31
DA:841,31
DA:842,31
DA:844,31
DA:845,31
DA:846,31
DA:847,31
DA:848,31
DA:850,31
DA:851,31
DA:852,31
DA:853,31
DA:855,31
DA:856,31
DA:857,31
DA:858,31
DA:860,31
DA:862,31
DA:863,31
DA:864,31
DA:865,31
DA:868,31
DA:869,31
DA:870,31
DA:871,31
DA:872,31
DA:874,31
DA:875,31
DA:876,31
DA:877,31
DA:879,31
DA:880,31
DA:881,31
DA:882,31
DA:884,31
DA:885,31
DA:886,31
DA:887,31
DA:889,31
DA:890,31
DA:891,31
DA:892,31
DA:894,31
DA:895,31
DA:896,31
DA:897,31
DA:899,31
DA:900,31
DA:901,31
DA:902,31
DA:906,31
DA:907,31
DA:908,31
DA:909,31
DA:911,31
DA:912,31
DA:913,31
DA:914,31
DA:916,31
DA:917,31
DA:918,31
DA:919,31
DA:923,31
DA:924,31
DA:925,31
DA:926,31
DA:928,31
DA:929,31
DA:930,31
DA:931,31
DA:933,31
DA:934,31
DA:935,31
DA:936,31
DA:938,31
DA:939,31
DA:940,31
DA:941,31
DA:943,31
DA:947,2
DA:948,2
DA:949,2
DA:1055,34
DA:1056,34
DA:1057,17
DA:1058,10
DA:1059,10
DA:1060,10
DA:1061,7
DA:1062,17
DA:1063,24
DA:1064,34
DA:1180,2
DA:1181,2
DA:1182,2
DA:1183,2
DA:1184,1
DA:1185,1
DA:1187,2
DA:1252,178
DA:1253,178
DA:1254,178
DA:1255,178
DA:1256,178
DA:1257,178
DA:1260,182
DA:1261,182
DA:1262,182
DA:1331,179
DA:1332,179
DA:1333,179
DA:1334,179
DA:1335,179
DA:1336,179
DA:1337,179
DA:1338,179
DA:1339,179
DA:1351,15
DA:1352,15
DA:1353,1
DA:1354,1
DA:1355,1
DA:1356,1
DA:1357,1
DA:1358,14
DA:1359,14
DA:1360,15
DA:1363,183
DA:1364,183
DA:1365,183
DA:1366,183
DA:1367,183
DA:1368,183
DA:1369,183
DA:1370,183
DA:1372,183
DA:1374,183
DA:1375,183
DA:1376,183
DA:1378,183
DA:1379,183
DA:1380,183
DA:1383,310
DA:1384,310
DA:1385,9
DA:1386,6
DA:1387,3
DA:1389,301
DA:1390,310
DA:1392,93
DA:1393,93
DA:1394,2
DA:1395,91
DA:1396,93
DA:1398,620
DA:1399,620
DA:1400,9
DA:1401,611
DA:1402,620
DA:1404,403
DA:1405,403
DA:1406,7
DA:1407,7
DA:1408,2
DA:1409,0
DA:1411,396
DA:1412,403
DA:1414,93
DA:1415,93
DA:1416,2
DA:1417,92
DA:1418,93
DA:1422,178
DA:1423,178
DA:1424,178
DA:1426,177
DA:1427,177
DA:1428,177
DA:1430,177
DA:1431,177
DA:1432,177
DA:1434,209
DA:1435,209
DA:1436,209
DA:1438,210
DA:1439,210
DA:1440,210
DA:1442,178
DA:1443,178
DA:1444,178
DA:1446,188
DA:1447,188
DA:1448,188
DA:1450,188
DA:1451,188
DA:1452,188
DA:1454,183
DA:1455,183
DA:1456,183
DA:1458,182
DA:1459,182
DA:1460,182
DA:1462,183
DA:1463,183
DA:1464,183
DA:1466,183
DA:1467,183
DA:1468,183
DA:1470,183
DA:1471,183
DA:1472,183
DA:1477,173
DA:1478,173
DA:1479,173
DA:1480,173
DA:1481,173
DA:1482,173
DA:1483,173
DA:1487,209
DA:1488,209
DA:1489,209
DA:1490,209
DA:1491,209
DA:1492,209
DA:1493,209
DA:1494,209
DA:1498,178
DA:1499,178
DA:1500,178
DA:1501,178
DA:1502,178
DA:1503,178
DA:1507,183
DA:1508,183
DA:1509,183
DA:1510,183
DA:1511,183
DA:1512,183
DA:1513,183
DA:1514,183
DA:1515,183
DA:1516,183
DA:1517,183
DA:1518,183
DA:1522,177
DA:1523,177
DA:1524,177
DA:1525,177
DA:1526,177
DA:1527,177
DA:1528,177
DA:1529,177
DA:1530,177
DA:1585,2
DA:1586,2
DA:1587,2
DA:1591,2
DA:1592,2
DA:1593,2
DA:1607,1
DA:1608,1
DA:1609,1
DA:1613,1
DA:1614,1
DA:1615,1
DA:1616,1
DA:1618,1
DA:1619,1
DA:1620,1
DA:1621,1
DA:1623,1
DA:1624,1
DA:1625,1
DA:1628,1
DA:1636,1
DA:1637,1
DA:1638,1
DA:1640,1
DA:1641,1
DA:1642,1
DA:1644,1
DA:1647,1
DA:1650,1
DA:1651,1
DA:1653,1
DA:1654,1
DA:1657,1
DA:1658,1
DA:1659,1
DA:1660,1
DA:1661,1
DA:1662,1
DA:1663,1
DA:1666,1
DA:1667,1
DA:1668,1
DA:1669,1
DA:1670,1
DA:1671,1
DA:1672,1
DA:1675,1
DA:1676,1
DA:1677,1
DA:1678,1
DA:1679,1
DA:1680,1
DA:1681,1
DA:1684,1
DA:1685,1
DA:1686,1
DA:1687,1
DA:1688,1
DA:1689,1
DA:1690,1
DA:1691,1
DA:1692,0
DA:1696,1
DA:1697,1
DA:1700,1
DA:1701,1
DA:1702,1
DA:1703,1
DA:1704,1
DA:1705,1
DA:1708,1
DA:1709,1
DA:1710,1
DA:1711,1
DA:1712,1
DA:1713,1
DA:1716,1
DA:1717,1
DA:1718,1
DA:1719,1
DA:1720,1
DA:1721,1
DA:1722,1
DA:1725,1
DA:1726,1
DA:1727,1
DA:1728,1
DA:1729,1
DA:1730,1
DA:1731,1
DA:1734,1
DA:1735,1
DA:1736,1
DA:1737,1
DA:1738,1
DA:1739,1
DA:1740,1
DA:1743,1
DA:1744,1
DA:1745,1
DA:1746,1
DA:1747,1
DA:1748,1
DA:1749,1
DA:1750,1
DA:1751,1
DA:1752,1
DA:1754,0
DA:1756,1
DA:1759,1
DA:1760,1
DA:1762,1
DA:1763,1
DA:1764,1
DA:1765,1
DA:1766,1
DA:1769,6
DA:1770,6
DA:1771,6
DA:1772,6
DA:1773,6
DA:1774,6
DA:1775,6
DA:1779,1
DA:1782,1
DA:1783,1
DA:1784,1
DA:1785,1
DA:1788,1
DA:1798,1
DA:1799,1
DA:1800,1
DA:1802,1
DA:1803,1
DA:1804,1
DA:1805,1
DA:1808,1
DA:1809,1
DA:1810,1
DA:1811,1
DA:1812,1
DA:1815,1
DA:1816,1
DA:1817,1
DA:1818,1
DA:1819,1
DA:1822,1
DA:1823,1
DA:1824,1
DA:1825,1
DA:1826,1
DA:1827,1
DA:1828,1
DA:1829,1
DA:1830,1
DA:1831,1
DA:1832,1
DA:1835,1
DA:1836,1
DA:1837,1
DA:1838,1
DA:1839,1
DA:1840,1
DA:1841,1
DA:1842,1
DA:1845,1
DA:1846,1
DA:1847,1
DA:1848,1
DA:1849,1
DA:1850,1
DA:1851,1
DA:1854,1
DA:1855,1
DA:1856,1
DA:1857,1
DA:1858,1
DA:1859,1
DA:1860,1
DA:1861,1
DA:1862,1
DA:1863,1
DA:1864,1
DA:1865,1
DA:1866,1
DA:1869,1
DA:1870,1
DA:1871,1
DA:1872,1
DA:1873,1
DA:1874,1
DA:1875,1
DA:1876,1
DA:1879,1
DA:1880,1
DA:1881,1
DA:1882,1
DA:1883,1
DA:1884,1
DA:1885,1
DA:1886,1
DA:1891,1
DA:1892,1
DA:1893,1
DA:1894,1
DA:1895,1
DA:1898,1
DA:1899,1
DA:1900,1
DA:1901,1
DA:1902,1
DA:1923,1
DA:1925,1
DA:1926,1
DA:1927,1
DA:1928,1
DA:1929,1
DA:1930,1
DA:1933,1
DA:1934,1
DA:1935,1
DA:1936,1
DA:1937,1
DA:1938,1
DA:1939,1
DA:1942,1
DA:1943,1
DA:1944,1
DA:1945,1
DA:1947,1
DA:1948,1
DA:1949,1
DA:1950,1
DA:1951,1
DA:1952,1
DA:1955,1
DA:1956,1
DA:1957,1
DA:1958,1
DA:1960,1
DA:1961,1
DA:1962,1
DA:1963,1
DA:1964,1
DA:1967,1
DA:1968,1
DA:1969,1
DA:1970,1
DA:1972,1
DA:1973,1
DA:1974,1
DA:1979,1
DA:1980,1
DA:1981,1
DA:1982,1
DA:1983,1
DA:1984,1
DA:1987,1
DA:1990,1
DA:1991,1
DA:1992,1
DA:1993,1
DA:1994,1
DA:1995,1
DA:1998,1
DA:1999,1
DA:2000,1
DA:2001,1
DA:2002,1
DA:2003,1
DA:2006,1
DA:2007,1
DA:2008,1
DA:2009,1
DA:2010,1
DA:2011,1
DA:2014,1
DA:2015,1
DA:2016,1
DA:2017,1
DA:2018,1
DA:2019,1
DA:2024,1
DA:2025,1
DA:2026,1
DA:2027,1
DA:2028,1
DA:2029,1
DA:2032,1
DA:2033,1
DA:2034,1
DA:2035,1
DA:2036,1
DA:2037,1
DA:2040,1
DA:2041,1
DA:2042,1
DA:2043,1
DA:2044,1
DA:2045,1
DA:2048,1
DA:2049,1
DA:2050,1
DA:2051,1
DA:2052,1
DA:2053,1
DA:2056,1
DA:2057,1
DA:2058,1
DA:2059,1
DA:2060,1
DA:2061,1
DA:2066,1
DA:2067,1
DA:2068,1
DA:2069,1
DA:2070,1
DA:2071,1
DA:2074,1
DA:2075,1
DA:2076,1
DA:2077,1
DA:2078,1
DA:2079,1
DA:2082,1
DA:2083,1
DA:2084,1
DA:2085,1
DA:2086,1
DA:2087,1
DA:2090,1
DA:2091,1
DA:2092,1
DA:2093,1
DA:2094,1
DA:2095,1
DA:2100,1
DA:2101,1
DA:2102,1
DA:2103,1
DA:2104,1
DA:2105,1
DA:2106,1
DA:2107,1
DA:2108,1
DA:2109,1
DA:2111,1
DA:2112,1
DA:2113,1
DA:2114,1
DA:2115,1
DA:2116,1
DA:2117,1
DA:2118,1
DA:2119,1
DA:2120,1
DA:2121,1
DA:2124,1
DA:2125,1
DA:2126,1
DA:2129,1
DA:2130,1
DA:2131,1
DA:2132,1
DA:2133,1
DA:2134,1
DA:2137,1
DA:2138,1
DA:2139,1
DA:2140,1
DA:2141,1
DA:2142,1
DA:2145,1
DA:2146,1
DA:2147,1
DA:2148,1
DA:2149,1
DA:2150,1
DA:2151,1
DA:2152,1
DA:2153,1
DA:2154,1
DA:2155,1
DA:2160,1
DA:2161,1
DA:2162,1
DA:2163,1
DA:2164,1
DA:2165,1
DA:2166,1
DA:2167,1
DA:2168,1
DA:2173,1
DA:2174,1
DA:2175,1
DA:2176,1
DA:2177,1
DA:2178,1
DA:2179,1
DA:2180,1
DA:2181,1
DA:2182,1
DA:2183,1
DA:2184,1
DA:2186,1
DA:2189,1
DA:2190,1
DA:2191,1
DA:2192,1
DA:2193,1
DA:2194,1
DA:2195,1
DA:2198,1
DA:2199,1
DA:2200,1
DA:2201,1
DA:2202,1
DA:2203,1
DA:2204,1
DA:2207,1
DA:2208,1
DA:2209,1
DA:2210,1
DA:2215,1
DA:2216,1
DA:2217,1
DA:2218,1
DA:2219,1
DA:2222,1
DA:2223,1
DA:2224,1
DA:2225,1
DA:2226,1
DA:2229,1
DA:2230,1
DA:2231,1
DA:2232,1
DA:2233,1
DA:2236,1
DA:2237,1
DA:2238,1
DA:2239,1
DA:2241,1
DA:2242,1
DA:2243,1
DA:2244,1
DA:2245,1
DA:2246,1
DA:2247,1
DA:2248,1
DA:2251,1
DA:2252,1
DA:2253,1
DA:2254,1
DA:2256,1
DA:2257,1
DA:2258,1
DA:2259,1
DA:2260,1
DA:2261,1
DA:2263,1
DA:2264,1
DA:2268,1
DA:2269,1
DA:2270,1
DA:2271,1
DA:2274,1
DA:2275,1
DA:2276,1
DA:2277,1
DA:2279,1
DA:2280,1
DA:2283,1
DA:2286,1
DA:2287,1
DA:2288,1
DA:2289,1
DA:2292,1
DA:2293,1
DA:2294,1
DA:2295,1
DA:2296,1
DA:2297,1
DA:2298,1
DA:2299,1
DA:2300,1
DA:2302,1
DA:2304,1
DA:2305,1
DA:2306,1
DA:2307,1
DA:2308,1
DA:2309,1
DA:2310,1
DA:2312,1
DA:2314,1
DA:2317,1
DA:2319,1
DA:2320,1
DA:2321,1
DA:2324,1
DA:2325,1
DA:2326,1
DA:2329,1
DA:2330,1
DA:2333,1
DA:2334,1
DA:2335,1
DA:2336,1
DA:2338,1
DA:2339,1
DA:2347,1
DA:2349,1
DA:2350,1
DA:2356,1
DA:2359,1
DA:2360,1
DA:2361,1
DA:2362,1
DA:2363,1
DA:2365,1
DA:2366,1
DA:2368,1
DA:2369,1
DA:2370,1
DA:2371,1
DA:2374,1
DA:2377,1
DA:2378,1
DA:2379,1
DA:2380,1
DA:2381,1
DA:2382,1
DA:2383,1
DA:2386,1
DA:2387,1
DA:2388,1
DA:2389,1
DA:2390,1
DA:2391,1
DA:2394,1
DA:2395,1
DA:2396,1
DA:2398,1
DA:2399,1
DA:2400,1
DA:2405,1
DA:2407,1
DA:2408,1
DA:2409,1
DA:2410,1
DA:2413,1
DA:2414,1
DA:2415,1
DA:2416,1
DA:2418,1
DA:2419,1
DA:2420,1
DA:2421,1
DA:2424,1
DA:2425,1
DA:2427,1
DA:2428,1
DA:2429,1
DA:2430,1
DA:2433,1
DA:2438,1
DA:2440,1
DA:2444,1
DA:2445,1
DA:2448,1
DA:2451,1
DA:2452,1
DA:2456,1
DA:2458,1
DA:2459,1
DA:2460,1
DA:2463,1
DA:2465,1
DA:2466,1
DA:2468,1
DA:2470,1
DA:2471,1
DA:2474,1
DA:2476,1
DA:2477,1
DA:2480,1
DA:2482,1
DA:2483,1
DA:2486,1
DA:2488,1
DA:2489,1
DA:2490,1
DA:2493,1
DA:2495,1
DA:2496,1
DA:2499,1
DA:2500,1
DA:2501,1
DA:2502,1
DA:2505,1
DA:2506,1
DA:2507,1
DA:2508,1
DA:2509,1
DA:2512,1
DA:2513,1
DA:2514,1
DA:2515,1
DA:2517,1
DA:2518,1
DA:2519,1
DA:2521,1
DA:2523,1
DA:2526,1
DA:2527,1
DA:2528,1
DA:2529,1
DA:2530,1
DA:2531,1
DA:2534,1
DA:2535,1
DA:2536,1
DA:2537,1
DA:2538,1
DA:2539,1
DA:2542,1
DA:2543,1
DA:2544,1
DA:2545,1
DA:2547,1
DA:2548,1
DA:2549,0
DA:2551,1
DA:2552,1
DA:2555,1
DA:2558,1
DA:2559,1
DA:2560,1
DA:2561,1
DA:2562,1
DA:2563,1
DA:2566,1
DA:2567,1
DA:2568,1
DA:2569,1
DA:2570,1
DA:2571,1
DA:2574,1
DA:2577,1
DA:2579,1
DA:2581,1
DA:2582,1
DA:2583,1
DA:2584,1
DA:2585,1
DA:2588,1
DA:2592,1
DA:2594,1
DA:2595,1
DA:2597,1
DA:2598,1
DA:2599,1
DA:2602,1
DA:2605,1
DA:2607,1
DA:2608,1
DA:2609,1
DA:2612,1
DA:2615,1
DA:2616,1
DA:2617,1
DA:2618,1
DA:2621,1
DA:2622,1
DA:2623,1
DA:2624,1
DA:2627,1
DA:2631,1
DA:2632,1
DA:2633,1
DA:2634,1
DA:2637,1
DA:2638,1
DA:2639,1
DA:2640,1
DA:2641,1
DA:2642,1
DA:2643,1
DA:2644,1
DA:2647,1
DA:2650,1
DA:2652,1
DA:2653,1
DA:2655,1
DA:2656,1
DA:2657,1
DA:2658,1
DA:2661,1
DA:2663,1
DA:2664,1
DA:2665,1
DA:2666,1
DA:2667,1
DA:2668,1
DA:2671,1
DA:2672,1
DA:2673,1
DA:2674,1
DA:2675,1
DA:2676,1
DA:2677,1
DA:2680,1
DA:2681,1
DA:2682,1
DA:2683,1
DA:2684,1
DA:2685,1
DA:2686,1
DA:2687,1
DA:2688,1
DA:2691,1
DA:2692,1
DA:2693,1
DA:2694,1
DA:2697,1
DA:2698,1
DA:2699,1
DA:2700,1
DA:2701,1
DA:2704,1
DA:2705,1
DA:2706,1
DA:2707,1
DA:2710,1
DA:2711,1
DA:2712,1
DA:2715,1
DA:2716,1
DA:2718,1
DA:2719,10000
DA:2720,10000
DA:2721,10000
DA:2722,10000
DA:2723,10000
DA:2724,10000
DA:2725,10000
DA:2726,10000
DA:2730,1
DA:2731,1
DA:2732,1
DA:2736,1
DA:2737,1
DA:2738,1
DA:2739,1
DA:2741,1
DA:2742,1
DA:2743,1
DA:2744,1
DA:2745,1
DA:2746,1
DA:2749,1
DA:2750,1
DA:2751,1
DA:2754,1
DA:2755,1
DA:2757,1
DA:2758,17
DA:2759,17
DA:2760,17
DA:2761,17
DA:2762,17
DA:2763,17
DA:2764,17
DA:2765,17
DA:2769,1
DA:2770,1
DA:2771,1
DA:2773,1
DA:2776,1
DA:2777,1
DA:2778,17
DA:2779,17
DA:2780,17
DA:2783,1
DA:2784,1
DA:2785,1
DA:2789,0
DA:2791,1
BRF:0
BRH:0
LF:1434
LH:1401
end_of_record
SF:/app/autumn/src/db.rs
FN:265,_RNCNvXs3_NtCslNlzF6u6e2e_10autumn_web2dbNtB7_26DieselDeadpoolPoolProviderNtB7_20DatabasePoolProvider11create_pool0Cs9uppY7VoQWl_11app_builder
FN:184,_RNCNCNCNvXININtCslNlzF6u6e2e_10autumn_web2dbs1_0pENtBb_2DbINtNtCsemqjQd4VUoN_9axum_core7extract16FromRequestPartspE18from_request_parts0s_00Bd_
FN:170,_RNCNCNvXININtCslNlzF6u6e2e_10autumn_web2dbs1_0pENtB9_2DbINtNtCsemqjQd4VUoN_9axum_core7extract16FromRequestPartspE18from_request_parts00Bb_
FN:183,_RNCNCNvXININtCslNlzF6u6e2e_10autumn_web2dbs1_0pENtB9_2DbINtNtCsemqjQd4VUoN_9axum_core7extract16FromRequestPartspE18from_request_parts0s_0Bb_
FN:167,_RNCNvXININtCslNlzF6u6e2e_10autumn_web2dbs1_0pENtB7_2DbINtNtCsemqjQd4VUoN_9axum_core7extract16FromRequestPartspE18from_request_parts0B9_
FN:265,_RNCNvXs3_NtCslNlzF6u6e2e_10autumn_web2dbNtB7_26DieselDeadpoolPoolProviderNtB7_20DatabasePoolProvider11create_pool0B9_
FN:164,_RNvXININtCslNlzF6u6e2e_10autumn_web2dbs1_0pENtB5_2DbINtNtCsemqjQd4VUoN_9axum_core7extract16FromRequestPartspE18from_request_partsB7_
FN:140,_RNvMNtCslNlzF6u6e2e_10autumn_web2dbNtB2_2Db4span
FN:256,_RNvMs2_NtCslNlzF6u6e2e_10autumn_web2dbNtB5_26DieselDeadpoolPoolProvider3new
FN:61,_RNvNtCslNlzF6u6e2e_10autumn_web2db11create_pool
FN:153,_RNvXs0_NtCslNlzF6u6e2e_10autumn_web2dbNtB5_2DbNtNtNtCs4kUJL3MZFFz_4core3ops5deref8DerefMut9deref_mut
FN:262,_RNvXs3_NtCslNlzF6u6e2e_10autumn_web2dbNtB5_26DieselDeadpoolPoolProviderNtB5_20DatabasePoolProvider11create_pool
FN:147,_RNvXs_NtCslNlzF6u6e2e_10autumn_web2dbNtB4_2DbNtNtNtCs4kUJL3MZFFz_4core3ops5deref5Deref5deref
FN:184,_RNCNCNCNvXs1_NtCs39mWnhFxKmJ_10autumn_web2dbNtBb_2DbINtNtCsemqjQd4VUoN_9axum_core7extract16FromRequestPartsNtNtBd_5state8AppStateE18from_request_parts0s_00Bd_
FN:170,_RNCNCNvXs1_NtCs39mWnhFxKmJ_10autumn_web2dbNtB9_2DbINtNtCsemqjQd4VUoN_9axum_core7extract16FromRequestPartsNtNtBb_5state8AppStateE18from_request_parts00Bb_
FN:183,_RNCNCNvXs1_NtCs39mWnhFxKmJ_10autumn_web2dbNtB9_2DbINtNtCsemqjQd4VUoN_9axum_core7extract16FromRequestPartsNtNtBb_5state8AppStateE18from_request_parts0s_0Bb_
FN:167,_RNCNvXs1_NtCs39mWnhFxKmJ_10autumn_web2dbNtB7_2DbINtNtCsemqjQd4VUoN_9axum_core7extract16FromRequestPartsNtNtB9_5state8AppStateE18from_request_parts0B9_
FN:265,_RNCNvXs3_NtCs39mWnhFxKmJ_10autumn_web2dbNtB7_26DieselDeadpoolPoolProviderNtB7_20DatabasePoolProvider11create_pool0B9_
FN:164,_RNvXs1_NtCs39mWnhFxKmJ_10autumn_web2dbNtB5_2DbINtNtCsemqjQd4VUoN_9axum_core7extract16FromRequestPartsNtNtB7_5state8AppStateE18from_request_partsB7_
FN:140,_RNvMNtCs39mWnhFxKmJ_10autumn_web2dbNtB2_2Db4span
FN:153,_RNvXs0_NtCs39mWnhFxKmJ_10autumn_web2dbNtB5_2DbNtNtNtCs4kUJL3MZFFz_4core3ops5deref8DerefMut9deref_mut
FN:147,_RNvXs_NtCs39mWnhFxKmJ_10autumn_web2dbNtB4_2DbNtNtNtCs4kUJL3MZFFz_4core3ops5deref5Deref5deref
FN:256,_RNvMs2_NtCs39mWnhFxKmJ_10autumn_web2dbNtB5_26DieselDeadpoolPoolProvider3new
FN:61,_RNvNtCs39mWnhFxKmJ_10autumn_web2db11create_pool
FN:262,_RNvXs3_NtCs39mWnhFxKmJ_10autumn_web2dbNtB5_26DieselDeadpoolPoolProviderNtB5_20DatabasePoolProvider11create_pool
FN:415,_RNvNCNvNtNtCs39mWnhFxKmJ_10autumn_web2db5testss_33db_extractor_rejects_when_no_pool07handler
FN:359,_RNvNtNtCs39mWnhFxKmJ_10autumn_web2db5testss_22pool_respects_max_size
FN:372,_RNvNtNtCs39mWnhFxKmJ_10autumn_web2db5testss_31pool_clamps_size_to_one_if_zero
FN:349,_RNvNtNtCs39mWnhFxKmJ_10autumn_web2db5testss_33create_pool_with_url_returns_some
FN:407,_RNvNtNtCs39mWnhFxKmJ_10autumn_web2db5testss_33db_extractor_rejects_when_no_pool
FN:342,_RNvNtNtCs39mWnhFxKmJ_10autumn_web2db5testss_36create_pool_with_no_url_returns_none
FN:325,_RNvNtNtCs39mWnhFxKmJ_10autumn_web2db5testss_41default_pool_provider_respects_url_config
FN:293,_RNvNtNtCs39mWnhFxKmJ_10autumn_web2db5testss_41pool_provider_trait_returns_supplied_pool
FN:312,_RNvNtNtCs39mWnhFxKmJ_10autumn_web2db5testss_43default_pool_provider_matches_free_function
FN:391,_RNvNtNtCs39mWnhFxKmJ_10autumn_web2db5testss_68config_runtime_drift_pool_applies_connect_timeout_to_wait_and_create
FN:284,_RNvXNtNtCs39mWnhFxKmJ_10autumn_web2db5testsNtB2_16NoOpPoolProviderNtB4_20DatabasePoolProvider11create_pool
FN:415,_RNCNvNCNvNtNtCs39mWnhFxKmJ_10autumn_web2db5testss_33db_extractor_rejects_when_no_pool07handler0Bb_
FN:407,_RNCNvNtNtCs39mWnhFxKmJ_10autumn_web2db5testss_33db_extractor_rejects_when_no_pool0B7_
FN:325,_RNCNvNtNtCs39mWnhFxKmJ_10autumn_web2db5testss_41default_pool_provider_respects_url_config0B7_
FN:293,_RNCNvNtNtCs39mWnhFxKmJ_10autumn_web2db5testss_41pool_provider_trait_returns_supplied_pool0B7_
FN:312,_RNCNvNtNtCs39mWnhFxKmJ_10autumn_web2db5testss_43default_pool_provider_matches_free_function0B7_
FN:287,_RNCNvXNtNtCs39mWnhFxKmJ_10autumn_web2db5testsNtB4_16NoOpPoolProviderNtB6_20DatabasePoolProvider11create_pool0B8_
FN:184,_RNCNCNCNvXs1_NtCslNlzF6u6e2e_10autumn_web2dbNtBb_2DbINtNtCsemqjQd4VUoN_9axum_core7extract16FromRequestPartsNtNtBd_5state8AppStateE18from_request_parts0s_00CseI6M5hsFu0M_19test_db_integration
FN:170,_RNCNCNvXs1_NtCslNlzF6u6e2e_10autumn_web2dbNtB9_2DbINtNtCsemqjQd4VUoN_9axum_core7extract16FromRequestPartsNtNtBb_5state8AppStateE18from_request_parts00CseI6M5hsFu0M_19test_db_integration
FN:183,_RNCNCNvXs1_NtCslNlzF6u6e2e_10autumn_web2dbNtB9_2DbINtNtCsemqjQd4VUoN_9axum_core7extract16FromRequestPartsNtNtBb_5state8AppStateE18from_request_parts0s_0CseI6M5hsFu0M_19test_db_integration
FN:167,_RNCNvXs1_NtCslNlzF6u6e2e_10autumn_web2dbNtB7_2DbINtNtCsemqjQd4VUoN_9axum_core7extract16FromRequestPartsNtNtB9_5state8AppStateE18from_request_parts0CseI6M5hsFu0M_19test_db_integration
FN:164,_RNvXs1_NtCslNlzF6u6e2e_10autumn_web2dbNtB5_2DbINtNtCsemqjQd4VUoN_9axum_core7extract16FromRequestPartsNtNtB7_5state8AppStateE18from_request_partsCseI6M5hsFu0M_19test_db_integration
FNDA:0,_RNCNvXs3_NtCslNlzF6u6e2e_10autumn_web2dbNtB7_26DieselDeadpoolPoolProviderNtB7_20DatabasePoolProvider11create_pool0Cs9uppY7VoQWl_11app_builder
FNDA:0,_RNCNCNCNvXININtCslNlzF6u6e2e_10autumn_web2dbs1_0pENtBb_2DbINtNtCsemqjQd4VUoN_9axum_core7extract16FromRequestPartspE18from_request_parts0s_00Bd_
FNDA:0,_RNCNCNvXININtCslNlzF6u6e2e_10autumn_web2dbs1_0pENtB9_2DbINtNtCsemqjQd4VUoN_9axum_core7extract16FromRequestPartspE18from_request_parts00Bb_
FNDA:0,_RNCNCNvXININtCslNlzF6u6e2e_10autumn_web2dbs1_0pENtB9_2DbINtNtCsemqjQd4VUoN_9axum_core7extract16FromRequestPartspE18from_request_parts0s_0Bb_
FNDA:0,_RNCNvXININtCslNlzF6u6e2e_10autumn_web2dbs1_0pENtB7_2DbINtNtCsemqjQd4VUoN_9axum_core7extract16FromRequestPartspE18from_request_parts0B9_
FNDA:0,_RNCNvXs3_NtCslNlzF6u6e2e_10autumn_web2dbNtB7_26DieselDeadpoolPoolProviderNtB7_20DatabasePoolProvider11create_pool0B9_
FNDA:0,_RNvXININtCslNlzF6u6e2e_10autumn_web2dbs1_0pENtB5_2DbINtNtCsemqjQd4VUoN_9axum_core7extract16FromRequestPartspE18from_request_partsB7_
FNDA:0,_RNvMNtCslNlzF6u6e2e_10autumn_web2dbNtB2_2Db4span
FNDA:0,_RNvMs2_NtCslNlzF6u6e2e_10autumn_web2dbNtB5_26DieselDeadpoolPoolProvider3new
FNDA:0,_RNvNtCslNlzF6u6e2e_10autumn_web2db11create_pool
FNDA:0,_RNvXs0_NtCslNlzF6u6e2e_10autumn_web2dbNtB5_2DbNtNtNtCs4kUJL3MZFFz_4core3ops5deref8DerefMut9deref_mut
FNDA:0,_RNvXs3_NtCslNlzF6u6e2e_10autumn_web2dbNtB5_26DieselDeadpoolPoolProviderNtB5_20DatabasePoolProvider11create_pool
FNDA:0,_RNvXs_NtCslNlzF6u6e2e_10autumn_web2dbNtB4_2DbNtNtNtCs4kUJL3MZFFz_4core3ops5deref5Deref5deref
FNDA:0,_RNCNCNCNvXs1_NtCs39mWnhFxKmJ_10autumn_web2dbNtBb_2DbINtNtCsemqjQd4VUoN_9axum_core7extract16FromRequestPartsNtNtBd_5state8AppStateE18from_request_parts0s_00Bd_
FNDA:1,_RNCNCNvXs1_NtCs39mWnhFxKmJ_10autumn_web2dbNtB9_2DbINtNtCsemqjQd4VUoN_9axum_core7extract16FromRequestPartsNtNtBb_5state8AppStateE18from_request_parts00Bb_
FNDA:0,_RNCNCNvXs1_NtCs39mWnhFxKmJ_10autumn_web2dbNtB9_2DbINtNtCsemqjQd4VUoN_9axum_core7extract16FromRequestPartsNtNtBb_5state8AppStateE18from_request_parts0s_0Bb_
FNDA:1,_RNCNvXs1_NtCs39mWnhFxKmJ_10autumn_web2dbNtB7_2DbINtNtCsemqjQd4VUoN_9axum_core7extract16FromRequestPartsNtNtB9_5state8AppStateE18from_request_parts0B9_
FNDA:2,_RNCNvXs3_NtCs39mWnhFxKmJ_10autumn_web2dbNtB7_26DieselDeadpoolPoolProviderNtB7_20DatabasePoolProvider11create_pool0B9_
FNDA:1,_RNvXs1_NtCs39mWnhFxKmJ_10autumn_web2dbNtB5_2DbINtNtCsemqjQd4VUoN_9axum_core7extract16FromRequestPartsNtNtB7_5state8AppStateE18from_request_partsB7_
FNDA:0,_RNvMNtCs39mWnhFxKmJ_10autumn_web2dbNtB2_2Db4span
FNDA:0,_RNvXs0_NtCs39mWnhFxKmJ_10autumn_web2dbNtB5_2DbNtNtNtCs4kUJL3MZFFz_4core3ops5deref8DerefMut9deref_mut
FNDA:0,_RNvXs_NtCs39mWnhFxKmJ_10autumn_web2dbNtB4_2DbNtNtNtCs4kUJL3MZFFz_4core3ops5deref5Deref5deref
FNDA:2,_RNvMs2_NtCs39mWnhFxKmJ_10autumn_web2dbNtB5_26DieselDeadpoolPoolProvider3new
FNDA:10,_RNvNtCs39mWnhFxKmJ_10autumn_web2db11create_pool
FNDA:2,_RNvXs3_NtCs39mWnhFxKmJ_10autumn_web2dbNtB5_26DieselDeadpoolPoolProviderNtB5_20DatabasePoolProvider11create_pool
FNDA:0,_RNvNCNvNtNtCs39mWnhFxKmJ_10autumn_web2db5testss_33db_extractor_rejects_when_no_pool07handler
FNDA:1,_RNvNtNtCs39mWnhFxKmJ_10autumn_web2db5testss_22pool_respects_max_size
FNDA:1,_RNvNtNtCs39mWnhFxKmJ_10autumn_web2db5testss_31pool_clamps_size_to_one_if_zero
FNDA:1,_RNvNtNtCs39mWnhFxKmJ_10autumn_web2db5testss_33create_pool_with_url_returns_some
FNDA:1,_RNvNtNtCs39mWnhFxKmJ_10autumn_web2db5testss_33db_extractor_rejects_when_no_pool
FNDA:1,_RNvNtNtCs39mWnhFxKmJ_10autumn_web2db5testss_36create_pool_with_no_url_returns_none
FNDA:1,_RNvNtNtCs39mWnhFxKmJ_10autumn_web2db5testss_41default_pool_provider_respects_url_config
FNDA:1,_RNvNtNtCs39mWnhFxKmJ_10autumn_web2db5testss_41pool_provider_trait_returns_supplied_pool
FNDA:1,_RNvNtNtCs39mWnhFxKmJ_10autumn_web2db5testss_43default_pool_provider_matches_free_function
FNDA:1,_RNvNtNtCs39mWnhFxKmJ_10autumn_web2db5testss_68config_runtime_drift_pool_applies_connect_timeout_to_wait_and_create
FNDA:1,_RNvXNtNtCs39mWnhFxKmJ_10autumn_web2db5testsNtB2_16NoOpPoolProviderNtB4_20DatabasePoolProvider11create_pool
FNDA:0,_RNCNvNCNvNtNtCs39mWnhFxKmJ_10autumn_web2db5testss_33db_extractor_rejects_when_no_pool07handler0Bb_
FNDA:1,_RNCNvNtNtCs39mWnhFxKmJ_10autumn_web2db5testss_33db_extractor_rejects_when_no_pool0B7_
FNDA:1,_RNCNvNtNtCs39mWnhFxKmJ_10autumn_web2db5testss_41default_pool_provider_respects_url_config0B7_
FNDA:1,_RNCNvNtNtCs39mWnhFxKmJ_10autumn_web2db5testss_41pool_provider_trait_returns_supplied_pool0B7_
FNDA:1,_RNCNvNtNtCs39mWnhFxKmJ_10autumn_web2db5testss_43default_pool_provider_matches_free_function0B7_
FNDA:1,_RNCNvXNtNtCs39mWnhFxKmJ_10autumn_web2db5testsNtB4_16NoOpPoolProviderNtB6_20DatabasePoolProvider11create_pool0B8_
FNDA:0,_RNCNCNCNvXs1_NtCslNlzF6u6e2e_10autumn_web2dbNtBb_2DbINtNtCsemqjQd4VUoN_9axum_core7extract16FromRequestPartsNtNtBd_5state8AppStateE18from_request_parts0s_00CseI6M5hsFu0M_19test_db_integration
FNDA:0,_RNCNCNvXs1_NtCslNlzF6u6e2e_10autumn_web2dbNtB9_2DbINtNtCsemqjQd4VUoN_9axum_core7extract16FromRequestPartsNtNtBb_5state8AppStateE18from_request_parts00CseI6M5hsFu0M_19test_db_integration
FNDA:0,_RNCNCNvXs1_NtCslNlzF6u6e2e_10autumn_web2dbNtB9_2DbINtNtCsemqjQd4VUoN_9axum_core7extract16FromRequestPartsNtNtBb_5state8AppStateE18from_request_parts0s_0CseI6M5hsFu0M_19test_db_integration
FNDA:0,_RNCNvXs1_NtCslNlzF6u6e2e_10autumn_web2dbNtB7_2DbINtNtCsemqjQd4VUoN_9axum_core7extract16FromRequestPartsNtNtB9_5state8AppStateE18from_request_parts0CseI6M5hsFu0M_19test_db_integration
FNDA:0,_RNvXs1_NtCslNlzF6u6e2e_10autumn_web2dbNtB5_2DbINtNtCsemqjQd4VUoN_9axum_core7extract16FromRequestPartsNtNtB7_5state8AppStateE18from_request_partsCseI6M5hsFu0M_19test_db_integration
FNF:29
FNH:22
DA:61,10
DA:62,10
DA:63,3
DA:66,7
DA:67,7
DA:68,7
DA:69,7
DA:70,7
DA:71,7
DA:72,7
DA:73,7
DA:75,7
DA:76,10
DA:140,0
DA:141,0
DA:142,0
DA:147,0
DA:148,0
DA:149,0
DA:153,0
DA:154,0
DA:155,0
DA:164,1
DA:165,1
DA:166,1
DA:167,1
DA:168,1
DA:169,1
DA:170,1
DA:178,0
DA:183,0
DA:184,0
DA:185,0
DA:186,0
DA:187,0
DA:188,0
DA:189,0
DA:190,0
DA:192,0
DA:193,1
DA:256,2
DA:257,2
DA:258,2
DA:262,2
DA:263,2
DA:264,2
DA:265,2
DA:266,2
DA:267,2
DA:284,1
DA:285,1
DA:286,1
DA:287,1
DA:288,1
DA:289,1
DA:293,1
DA:296,1
DA:297,1
DA:298,1
DA:299,1
DA:300,1
DA:301,1
DA:302,1
DA:303,1
DA:304,1
DA:305,1
DA:306,1
DA:307,1
DA:308,1
DA:309,1
DA:312,1
DA:313,1
DA:314,1
DA:315,1
DA:316,1
DA:317,1
DA:318,1
DA:319,1
DA:320,1
DA:325,1
DA:326,1
DA:327,1
DA:328,1
DA:329,1
DA:330,1
DA:331,1
DA:332,1
DA:333,1
DA:334,1
DA:335,1
DA:336,1
DA:337,1
DA:338,1
DA:339,1
DA:342,1
DA:343,1
DA:344,1
DA:345,1
DA:346,1
DA:349,1
DA:350,1
DA:351,1
DA:352,1
DA:353,1
DA:354,1
DA:355,1
DA:356,1
DA:359,1
DA:360,1
DA:361,1
DA:362,1
DA:363,1
DA:364,1
DA:365,1
DA:366,1
DA:367,1
DA:368,1
DA:369,1
DA:372,1
DA:373,1
DA:374,1
DA:375,1
DA:376,1
DA:377,1
DA:378,1
DA:379,1
DA:380,1
DA:381,1
DA:382,1
DA:386,1
DA:391,1
DA:392,1
DA:393,1
DA:394,1
DA:395,1
DA:396,1
DA:397,1
DA:398,1
DA:399,1
DA:401,1
DA:402,1
DA:403,1
DA:404,1
DA:407,1
DA:415,0
DA:416,0
DA:417,0
DA:419,1
DA:420,1
DA:421,1
DA:422,1
DA:423,1
DA:424,1
DA:425,1
DA:426,1
DA:427,1
DA:428,1
DA:429,1
DA:430,1
DA:431,1
DA:432,1
DA:433,1
DA:434,1
DA:435,1
DA:436,1
DA:438,1
DA:439,1
DA:440,1
DA:441,1
DA:443,1
DA:444,1
BRF:0
BRH:0
LF:188
LH:163
end_of_record
SF:/app/autumn/src/error.rs
FN:221,_RINvMs1_NtCslNlzF6u6e2e_10autumn_web5errorNtB6_11AutumnError11bad_requestpEB8_
FN:243,_RINvMs1_NtCslNlzF6u6e2e_10autumn_web5errorNtB6_11AutumnError13unprocessablepEB8_
FN:382,_RINvMs1_NtCslNlzF6u6e2e_10autumn_web5errorNtB6_11AutumnError15bad_request_msgpEB8_
FN:397,_RINvMs1_NtCslNlzF6u6e2e_10autumn_web5errorNtB6_11AutumnError17unprocessable_msgpEB8_
FN:262,_RINvMs1_NtCslNlzF6u6e2e_10autumn_web5errorNtB6_11AutumnError19service_unavailablepEB8_
FN:183,_RINvMs1_NtCslNlzF6u6e2e_10autumn_web5errorNtB6_11AutumnError21internal_server_errorpEB8_
FN:442,_RINvMs1_NtCslNlzF6u6e2e_10autumn_web5errorNtB6_11AutumnError23service_unavailable_msgpEB8_
FN:351,_RINvMs1_NtCslNlzF6u6e2e_10autumn_web5errorNtB6_11AutumnError25internal_server_error_msgpEB8_
FN:330,_RNvMs1_NtCslNlzF6u6e2e_10autumn_web5errorNtB5_11AutumnError10validation
FN:167,_RNvMs1_NtCslNlzF6u6e2e_10autumn_web5errorNtB5_11AutumnError11with_status
FN:458,_RNvMs1_NtCslNlzF6u6e2e_10autumn_web5errorNtB5_11AutumnError6status
FN:57,_RNvXNtCslNlzF6u6e2e_10autumn_web5errorNtB2_11StringErrorNtNtCs4kUJL3MZFFz_4core3fmt7Display3fmt
FN:464,_RNvXs2_NtCslNlzF6u6e2e_10autumn_web5errorNtB5_11AutumnErrorNtNtCs4kUJL3MZFFz_4core3fmt7Display3fmt
FN:470,_RNvXs3_NtCslNlzF6u6e2e_10autumn_web5errorNtB5_11AutumnErrorNtNtCs4kUJL3MZFFz_4core3fmt5Debug3fmt
FN:480,_RNvXs4_NtCslNlzF6u6e2e_10autumn_web5errorNtB5_11AutumnErrorNtNtNtCsemqjQd4VUoN_9axum_core8response13into_response12IntoResponse13into_response
FN:281,_RINvMs1_NtCslNlzF6u6e2e_10autumn_web5errorNtB6_11AutumnError12unauthorizedNtB6_11StringErrorEB8_
FN:427,_RINvMs1_NtCslNlzF6u6e2e_10autumn_web5errorNtB6_11AutumnError13forbidden_msgReEB8_
FN:367,_RINvMs1_NtCslNlzF6u6e2e_10autumn_web5errorNtB6_11AutumnError13not_found_msgNtNtCsauO83Ko6oyK_5alloc6string6StringEB8_
FN:412,_RINvMs1_NtCslNlzF6u6e2e_10autumn_web5errorNtB6_11AutumnError16unauthorized_msgReEB8_
FN:300,_RINvMs1_NtCslNlzF6u6e2e_10autumn_web5errorNtB6_11AutumnError9forbiddenNtB6_11StringErrorEB8_
FN:202,_RINvMs1_NtCslNlzF6u6e2e_10autumn_web5errorNtB6_11AutumnError9not_foundNtB6_11StringErrorEB8_
FN:144,_RNvXs0_NtCslNlzF6u6e2e_10autumn_web5errorNtB5_11AutumnErrorINtNtCs4kUJL3MZFFz_4core7convert4FromNtNtNtCsaa59N1qzrfe_3std2io5error5ErrorE4fromB7_
FN:565,_RNvNtNtCs39mWnhFxKmJ_10autumn_web5error5testss_16forbidden_is_403
FN:541,_RNvNtNtCs39mWnhFxKmJ_10autumn_web5error5testss_16not_found_is_404
FN:571,_RNvNtNtCs39mWnhFxKmJ_10autumn_web5error5testss_17validation_is_422
FN:547,_RNvNtNtCs39mWnhFxKmJ_10autumn_web5error5testss_18bad_request_is_400
FN:559,_RNvNtNtCs39mWnhFxKmJ_10autumn_web5error5testss_19unauthorized_is_401
FN:617,_RNvNtNtCs39mWnhFxKmJ_10autumn_web5error5testss_20forbidden_msg_is_403
FN:592,_RNvNtNtCs39mWnhFxKmJ_10autumn_web5error5testss_20not_found_msg_is_404
FN:535,_RNvNtNtCs39mWnhFxKmJ_10autumn_web5error5testss_20test_not_found_error
FN:553,_RNvNtNtCs39mWnhFxKmJ_10autumn_web5error5testss_20unprocessable_is_422
FN:630,_RNvNtNtCs39mWnhFxKmJ_10autumn_web5error5testss_21with_status_overrides
FN:599,_RNvNtNtCs39mWnhFxKmJ_10autumn_web5error5testss_22bad_request_msg_is_400
FN:611,_RNvNtNtCs39mWnhFxKmJ_10autumn_web5error5testss_23unauthorized_msg_is_401
FN:605,_RNvNtNtCs39mWnhFxKmJ_10autumn_web5error5testss_24unprocessable_msg_is_422
FN:637,_RNvNtNtCs39mWnhFxKmJ_10autumn_web5error5testss_26display_uses_inner_message
FN:579,_RNvNtNtCs39mWnhFxKmJ_10autumn_web5error5testss_26service_unavailable_is_503
FN:650,_RNvNtNtCs39mWnhFxKmJ_10autumn_web5error5testss_27into_response_has_json_body
FN:523,_RNvNtNtCs39mWnhFxKmJ_10autumn_web5error5testss_28blanket_from_defaults_to_500
FN:663,_RNvNtNtCs39mWnhFxKmJ_10autumn_web5error5testss_28debug_shows_status_and_inner
FN:529,_RNvNtNtCs39mWnhFxKmJ_10autumn_web5error5testss_28internal_server_error_is_500
FN:623,_RNvNtNtCs39mWnhFxKmJ_10autumn_web5error5testss_30service_unavailable_msg_is_503
FN:585,_RNvNtNtCs39mWnhFxKmJ_10autumn_web5error5testss_32internal_server_error_msg_is_500
FN:643,_RNvNtNtCs39mWnhFxKmJ_10autumn_web5error5testss_32into_response_has_correct_status
FN:684,_RNvNtNtCs39mWnhFxKmJ_10autumn_web5error5testss_35service_unavailable_response_is_503
FN:671,_RNvNtNtCs39mWnhFxKmJ_10autumn_web5error5testss_44msg_constructor_produces_valid_json_response
FN:515,_RNvXNtNtCs39mWnhFxKmJ_10autumn_web5error5testsNtB2_9TestErrorNtNtCs4kUJL3MZFFz_4core3fmt7Display3fmt
FN:221,_RINvMs1_NtCs39mWnhFxKmJ_10autumn_web5errorNtB6_11AutumnError11bad_requestNtB6_11StringErrorEB8_
FN:221,_RINvMs1_NtCs39mWnhFxKmJ_10autumn_web5errorNtB6_11AutumnError11bad_requestNtNtB6_5tests9TestErrorEB8_
FN:281,_RINvMs1_NtCs39mWnhFxKmJ_10autumn_web5errorNtB6_11AutumnError12unauthorizedNtB6_11StringErrorEB8_
FN:281,_RINvMs1_NtCs39mWnhFxKmJ_10autumn_web5errorNtB6_11AutumnError12unauthorizedNtNtB6_5tests9TestErrorEB8_
FN:427,_RINvMs1_NtCs39mWnhFxKmJ_10autumn_web5errorNtB6_11AutumnError13forbidden_msgReEB8_
FN:367,_RINvMs1_NtCs39mWnhFxKmJ_10autumn_web5errorNtB6_11AutumnError13not_found_msgNtNtCsauO83Ko6oyK_5alloc6string6StringEB8_
FN:367,_RINvMs1_NtCs39mWnhFxKmJ_10autumn_web5errorNtB6_11AutumnError13not_found_msgReEB8_
FN:243,_RINvMs1_NtCs39mWnhFxKmJ_10autumn_web5errorNtB6_11AutumnError13unprocessableNtB6_11StringErrorEB8_
FN:243,_RINvMs1_NtCs39mWnhFxKmJ_10autumn_web5errorNtB6_11AutumnError13unprocessableNtNtB6_5tests9TestErrorEB8_
FN:382,_RINvMs1_NtCs39mWnhFxKmJ_10autumn_web5errorNtB6_11AutumnError15bad_request_msgReEB8_
FN:412,_RINvMs1_NtCs39mWnhFxKmJ_10autumn_web5errorNtB6_11AutumnError16unauthorized_msgReEB8_
FN:397,_RINvMs1_NtCs39mWnhFxKmJ_10autumn_web5errorNtB6_11AutumnError17unprocessable_msgReEB8_
FN:262,_RINvMs1_NtCs39mWnhFxKmJ_10autumn_web5errorNtB6_11AutumnError19service_unavailableNtB6_11StringErrorEB8_
FN:262,_RINvMs1_NtCs39mWnhFxKmJ_10autumn_web5errorNtB6_11AutumnError19service_unavailableNtNtB6_5tests9TestErrorEB8_
FN:183,_RINvMs1_NtCs39mWnhFxKmJ_10autumn_web5errorNtB6_11AutumnError21internal_server_errorNtB6_11StringErrorEB8_
FN:183,_RINvMs1_NtCs39mWnhFxKmJ_10autumn_web5errorNtB6_11AutumnError21internal_server_errorNtNtB6_5tests9TestErrorEB8_
FN:442,_RINvMs1_NtCs39mWnhFxKmJ_10autumn_web5errorNtB6_11AutumnError23service_unavailable_msgNtNtCsauO83Ko6oyK_5alloc6string6StringEB8_
FN:442,_RINvMs1_NtCs39mWnhFxKmJ_10autumn_web5errorNtB6_11AutumnError23service_unavailable_msgReEB8_
FN:351,_RINvMs1_NtCs39mWnhFxKmJ_10autumn_web5errorNtB6_11AutumnError25internal_server_error_msgReEB8_
FN:300,_RINvMs1_NtCs39mWnhFxKmJ_10autumn_web5errorNtB6_11AutumnError9forbiddenNtB6_11StringErrorEB8_
FN:300,_RINvMs1_NtCs39mWnhFxKmJ_10autumn_web5errorNtB6_11AutumnError9forbiddenNtNtB6_5tests9TestErrorEB8_
FN:202,_RINvMs1_NtCs39mWnhFxKmJ_10autumn_web5errorNtB6_11AutumnError9not_foundNtB6_11StringErrorEB8_
FN:202,_RINvMs1_NtCs39mWnhFxKmJ_10autumn_web5errorNtB6_11AutumnError9not_foundNtNtB6_5tests9TestErrorEB8_
FN:202,_RINvMs1_NtCs39mWnhFxKmJ_10autumn_web5errorNtB6_11AutumnError9not_foundNtNtNtCsaa59N1qzrfe_3std2io5error5ErrorEB8_
FN:330,_RNvMs1_NtCs39mWnhFxKmJ_10autumn_web5errorNtB5_11AutumnError10validation
FN:167,_RNvMs1_NtCs39mWnhFxKmJ_10autumn_web5errorNtB5_11AutumnError11with_status
FN:458,_RNvMs1_NtCs39mWnhFxKmJ_10autumn_web5errorNtB5_11AutumnError6status
FN:57,_RNvXNtCs39mWnhFxKmJ_10autumn_web5errorNtB2_11StringErrorNtNtCs4kUJL3MZFFz_4core3fmt7Display3fmt
FN:144,_RNvXs0_NtCs39mWnhFxKmJ_10autumn_web5errorNtB5_11AutumnErrorINtNtCs4kUJL3MZFFz_4core7convert4FromNtNtB5_5tests9TestErrorE4fromB7_
FN:144,_RNvXs0_NtCs39mWnhFxKmJ_10autumn_web5errorNtB5_11AutumnErrorINtNtCs4kUJL3MZFFz_4core7convert4FromNtNtNtCsaa59N1qzrfe_3std2io5error5ErrorE4fromB7_
FN:464,_RNvXs2_NtCs39mWnhFxKmJ_10autumn_web5errorNtB5_11AutumnErrorNtNtCs4kUJL3MZFFz_4core3fmt7Display3fmt
FN:470,_RNvXs3_NtCs39mWnhFxKmJ_10autumn_web5errorNtB5_11AutumnErrorNtNtCs4kUJL3MZFFz_4core3fmt5Debug3fmt
FN:480,_RNvXs4_NtCs39mWnhFxKmJ_10autumn_web5errorNtB5_11AutumnErrorNtNtNtCsemqjQd4VUoN_9axum_core8response13into_response12IntoResponse13into_response
FN:650,_RNCNvNtNtCs39mWnhFxKmJ_10autumn_web5error5testss_27into_response_has_json_body0B7_
FN:684,_RNCNvNtNtCs39mWnhFxKmJ_10autumn_web5error5testss_35service_unavailable_response_is_5030B7_
FN:671,_RNCNvNtNtCs39mWnhFxKmJ_10autumn_web5error5testss_44msg_constructor_produces_valid_json_response0B7_
FN:221,_RINvMs1_NtCslNlzF6u6e2e_10autumn_web5errorNtB6_11AutumnError11bad_requestNtB6_11StringErrorECsgegzDust4lS_18db_hooks_lifecycle
FN:382,_RINvMs1_NtCslNlzF6u6e2e_10autumn_web5errorNtB6_11AutumnError15bad_request_msgReECsgegzDust4lS_18db_hooks_lifecycle
FN:367,_RINvMs1_NtCslNlzF6u6e2e_10autumn_web5errorNtB6_11AutumnError13not_found_msgReECsioC65L6WwC5_19middleware_pipeline
FN:221,_RINvMs1_NtCslNlzF6u6e2e_10autumn_web5errorNtB6_11AutumnError11bad_requestNtB6_11StringErrorECs59JbeOYRTbv_20test_app_integration
FN:382,_RINvMs1_NtCslNlzF6u6e2e_10autumn_web5errorNtB6_11AutumnError15bad_request_msgReECs59JbeOYRTbv_20test_app_integration
FN:367,_RINvMs1_NtCslNlzF6u6e2e_10autumn_web5errorNtB6_11AutumnError13not_found_msgReECseI6M5hsFu0M_19test_db_integration
FN:262,_RINvMs1_NtCslNlzF6u6e2e_10autumn_web5errorNtB6_11AutumnError19service_unavailableNtB6_11StringErrorECseI6M5hsFu0M_19test_db_integration
FN:442,_RINvMs1_NtCslNlzF6u6e2e_10autumn_web5errorNtB6_11AutumnError23service_unavailable_msgNtNtCsauO83Ko6oyK_5alloc6string6StringECseI6M5hsFu0M_19test_db_integration
FN:442,_RINvMs1_NtCslNlzF6u6e2e_10autumn_web5errorNtB6_11AutumnError23service_unavailable_msgReECseI6M5hsFu0M_19test_db_integration
FN:144,_RNvXs0_NtCslNlzF6u6e2e_10autumn_web5errorNtB5_11AutumnErrorINtNtCs4kUJL3MZFFz_4core7convert4FromNtNtCseuQybqdYbHA_6diesel6result5ErrorE4fromCseI6M5hsFu0M_19test_db_integration
FNDA:0,_RINvMs1_NtCslNlzF6u6e2e_10autumn_web5errorNtB6_11AutumnError11bad_requestpEB8_
FNDA:0,_RINvMs1_NtCslNlzF6u6e2e_10autumn_web5errorNtB6_11AutumnError13unprocessablepEB8_
FNDA:0,_RINvMs1_NtCslNlzF6u6e2e_10autumn_web5errorNtB6_11AutumnError15bad_request_msgpEB8_
FNDA:0,_RINvMs1_NtCslNlzF6u6e2e_10autumn_web5errorNtB6_11AutumnError17unprocessable_msgpEB8_
FNDA:0,_RINvMs1_NtCslNlzF6u6e2e_10autumn_web5errorNtB6_11AutumnError19service_unavailablepEB8_
FNDA:0,_RINvMs1_NtCslNlzF6u6e2e_10autumn_web5errorNtB6_11AutumnError21internal_server_errorpEB8_
FNDA:0,_RINvMs1_NtCslNlzF6u6e2e_10autumn_web5errorNtB6_11AutumnError23service_unavailable_msgpEB8_
FNDA:0,_RINvMs1_NtCslNlzF6u6e2e_10autumn_web5errorNtB6_11AutumnError25internal_server_error_msgpEB8_
FNDA:1,_RNvMs1_NtCslNlzF6u6e2e_10autumn_web5errorNtB5_11AutumnError10validation
FNDA:0,_RNvMs1_NtCslNlzF6u6e2e_10autumn_web5errorNtB5_11AutumnError11with_status
FNDA:0,_RNvMs1_NtCslNlzF6u6e2e_10autumn_web5errorNtB5_11AutumnError6status
FNDA:5,_RNvXNtCslNlzF6u6e2e_10autumn_web5errorNtB2_11StringErrorNtNtCs4kUJL3MZFFz_4core3fmt7Display3fmt
FNDA:0,_RNvXs2_NtCslNlzF6u6e2e_10autumn_web5errorNtB5_11AutumnErrorNtNtCs4kUJL3MZFFz_4core3fmt7Display3fmt
FNDA:0,_RNvXs3_NtCslNlzF6u6e2e_10autumn_web5errorNtB5_11AutumnErrorNtNtCs4kUJL3MZFFz_4core3fmt5Debug3fmt
FNDA:5,_RNvXs4_NtCslNlzF6u6e2e_10autumn_web5errorNtB5_11AutumnErrorNtNtNtCsemqjQd4VUoN_9axum_core8response13into_response12IntoResponse13into_response
FNDA:0,_RINvMs1_NtCslNlzF6u6e2e_10autumn_web5errorNtB6_11AutumnError12unauthorizedNtB6_11StringErrorEB8_
FNDA:0,_RINvMs1_NtCslNlzF6u6e2e_10autumn_web5errorNtB6_11AutumnError13forbidden_msgReEB8_
FNDA:2,_RINvMs1_NtCslNlzF6u6e2e_10autumn_web5errorNtB6_11AutumnError13not_found_msgNtNtCsauO83Ko6oyK_5alloc6string6StringEB8_
FNDA:0,_RINvMs1_NtCslNlzF6u6e2e_10autumn_web5errorNtB6_11AutumnError16unauthorized_msgReEB8_
FNDA:0,_RINvMs1_NtCslNlzF6u6e2e_10autumn_web5errorNtB6_11AutumnError9forbiddenNtB6_11StringErrorEB8_
FNDA:3,_RINvMs1_NtCslNlzF6u6e2e_10autumn_web5errorNtB6_11AutumnError9not_foundNtB6_11StringErrorEB8_
FNDA:0,_RNvXs0_NtCslNlzF6u6e2e_10autumn_web5errorNtB5_11AutumnErrorINtNtCs4kUJL3MZFFz_4core7convert4FromNtNtNtCsaa59N1qzrfe_3std2io5error5ErrorE4fromB7_
FNDA:1,_RNvNtNtCs39mWnhFxKmJ_10autumn_web5error5testss_16forbidden_is_403
FNDA:1,_RNvNtNtCs39mWnhFxKmJ_10autumn_web5error5testss_16not_found_is_404
FNDA:1,_RNvNtNtCs39mWnhFxKmJ_10autumn_web5error5testss_17validation_is_422
FNDA:1,_RNvNtNtCs39mWnhFxKmJ_10autumn_web5error5testss_18bad_request_is_400
FNDA:1,_RNvNtNtCs39mWnhFxKmJ_10autumn_web5error5testss_19unauthorized_is_401
FNDA:1,_RNvNtNtCs39mWnhFxKmJ_10autumn_web5error5testss_20forbidden_msg_is_403
FNDA:1,_RNvNtNtCs39mWnhFxKmJ_10autumn_web5error5testss_20not_found_msg_is_404
FNDA:1,_RNvNtNtCs39mWnhFxKmJ_10autumn_web5error5testss_20test_not_found_error
FNDA:1,_RNvNtNtCs39mWnhFxKmJ_10autumn_web5error5testss_20unprocessable_is_422
FNDA:1,_RNvNtNtCs39mWnhFxKmJ_10autumn_web5error5testss_21with_status_overrides
FNDA:1,_RNvNtNtCs39mWnhFxKmJ_10autumn_web5error5testss_22bad_request_msg_is_400
FNDA:1,_RNvNtNtCs39mWnhFxKmJ_10autumn_web5error5testss_23unauthorized_msg_is_401
FNDA:1,_RNvNtNtCs39mWnhFxKmJ_10autumn_web5error5testss_24unprocessable_msg_is_422
FNDA:1,_RNvNtNtCs39mWnhFxKmJ_10autumn_web5error5testss_26display_uses_inner_message
FNDA:1,_RNvNtNtCs39mWnhFxKmJ_10autumn_web5error5testss_26service_unavailable_is_503
FNDA:1,_RNvNtNtCs39mWnhFxKmJ_10autumn_web5error5testss_27into_response_has_json_body
FNDA:1,_RNvNtNtCs39mWnhFxKmJ_10autumn_web5error5testss_28blanket_from_defaults_to_500
FNDA:1,_RNvNtNtCs39mWnhFxKmJ_10autumn_web5error5testss_28debug_shows_status_and_inner
FNDA:1,_RNvNtNtCs39mWnhFxKmJ_10autumn_web5error5testss_28internal_server_error_is_500
FNDA:1,_RNvNtNtCs39mWnhFxKmJ_10autumn_web5error5testss_30service_unavailable_msg_is_503
FNDA:1,_RNvNtNtCs39mWnhFxKmJ_10autumn_web5error5testss_32internal_server_error_msg_is_500
FNDA:1,_RNvNtNtCs39mWnhFxKmJ_10autumn_web5error5testss_32into_response_has_correct_status
FNDA:1,_RNvNtNtCs39mWnhFxKmJ_10autumn_web5error5testss_35service_unavailable_response_is_503
FNDA:1,_RNvNtNtCs39mWnhFxKmJ_10autumn_web5error5testss_44msg_constructor_produces_valid_json_response
FNDA:3,_RNvXNtNtCs39mWnhFxKmJ_10autumn_web5error5testsNtB2_9TestErrorNtNtCs4kUJL3MZFFz_4core3fmt7Display3fmt
FNDA:4,_RINvMs1_NtCs39mWnhFxKmJ_10autumn_web5errorNtB6_11AutumnError11bad_requestNtB6_11StringErrorEB8_
FNDA:2,_RINvMs1_NtCs39mWnhFxKmJ_10autumn_web5errorNtB6_11AutumnError11bad_requestNtNtB6_5tests9TestErrorEB8_
FNDA:3,_RINvMs1_NtCs39mWnhFxKmJ_10autumn_web5errorNtB6_11AutumnError12unauthorizedNtB6_11StringErrorEB8_
FNDA:1,_RINvMs1_NtCs39mWnhFxKmJ_10autumn_web5errorNtB6_11AutumnError12unauthorizedNtNtB6_5tests9TestErrorEB8_
FNDA:3,_RINvMs1_NtCs39mWnhFxKmJ_10autumn_web5errorNtB6_11AutumnError13forbidden_msgReEB8_
FNDA:9,_RINvMs1_NtCs39mWnhFxKmJ_10autumn_web5errorNtB6_11AutumnError13not_found_msgNtNtCsauO83Ko6oyK_5alloc6string6StringEB8_
FNDA:6,_RINvMs1_NtCs39mWnhFxKmJ_10autumn_web5errorNtB6_11AutumnError13not_found_msgReEB8_
FNDA:2,_RINvMs1_NtCs39mWnhFxKmJ_10autumn_web5errorNtB6_11AutumnError13unprocessableNtB6_11StringErrorEB8_
FNDA:1,_RINvMs1_NtCs39mWnhFxKmJ_10autumn_web5errorNtB6_11AutumnError13unprocessableNtNtB6_5tests9TestErrorEB8_
FNDA:4,_RINvMs1_NtCs39mWnhFxKmJ_10autumn_web5errorNtB6_11AutumnError15bad_request_msgReEB8_
FNDA:3,_RINvMs1_NtCs39mWnhFxKmJ_10autumn_web5errorNtB6_11AutumnError16unauthorized_msgReEB8_
FNDA:2,_RINvMs1_NtCs39mWnhFxKmJ_10autumn_web5errorNtB6_11AutumnError17unprocessable_msgReEB8_
FNDA:4,_RINvMs1_NtCs39mWnhFxKmJ_10autumn_web5errorNtB6_11AutumnError19service_unavailableNtB6_11StringErrorEB8_
FNDA:1,_RINvMs1_NtCs39mWnhFxKmJ_10autumn_web5errorNtB6_11AutumnError19service_unavailableNtNtB6_5tests9TestErrorEB8_
FNDA:1,_RINvMs1_NtCs39mWnhFxKmJ_10autumn_web5errorNtB6_11AutumnError21internal_server_errorNtB6_11StringErrorEB8_
FNDA:1,_RINvMs1_NtCs39mWnhFxKmJ_10autumn_web5errorNtB6_11AutumnError21internal_server_errorNtNtB6_5tests9TestErrorEB8_
FNDA:0,_RINvMs1_NtCs39mWnhFxKmJ_10autumn_web5errorNtB6_11AutumnError23service_unavailable_msgNtNtCsauO83Ko6oyK_5alloc6string6StringEB8_
FNDA:4,_RINvMs1_NtCs39mWnhFxKmJ_10autumn_web5errorNtB6_11AutumnError23service_unavailable_msgReEB8_
FNDA:1,_RINvMs1_NtCs39mWnhFxKmJ_10autumn_web5errorNtB6_11AutumnError25internal_server_error_msgReEB8_
FNDA:3,_RINvMs1_NtCs39mWnhFxKmJ_10autumn_web5errorNtB6_11AutumnError9forbiddenNtB6_11StringErrorEB8_
FNDA:1,_RINvMs1_NtCs39mWnhFxKmJ_10autumn_web5errorNtB6_11AutumnError9forbiddenNtNtB6_5tests9TestErrorEB8_
FNDA:15,_RINvMs1_NtCs39mWnhFxKmJ_10autumn_web5errorNtB6_11AutumnError9not_foundNtB6_11StringErrorEB8_
FNDA:3,_RINvMs1_NtCs39mWnhFxKmJ_10autumn_web5errorNtB6_11AutumnError9not_foundNtNtB6_5tests9TestErrorEB8_
FNDA:1,_RINvMs1_NtCs39mWnhFxKmJ_10autumn_web5errorNtB6_11AutumnError9not_foundNtNtNtCsaa59N1qzrfe_3std2io5error5ErrorEB8_
FNDA:3,_RNvMs1_NtCs39mWnhFxKmJ_10autumn_web5errorNtB5_11AutumnError10validation
FNDA:1,_RNvMs1_NtCs39mWnhFxKmJ_10autumn_web5errorNtB5_11AutumnError11with_status
FNDA:24,_RNvMs1_NtCs39mWnhFxKmJ_10autumn_web5errorNtB5_11AutumnError6status
FNDA:27,_RNvXNtCs39mWnhFxKmJ_10autumn_web5errorNtB2_11StringErrorNtNtCs4kUJL3MZFFz_4core3fmt7Display3fmt
FNDA:3,_RNvXs0_NtCs39mWnhFxKmJ_10autumn_web5errorNtB5_11AutumnErrorINtNtCs4kUJL3MZFFz_4core7convert4FromNtNtB5_5tests9TestErrorE4fromB7_
FNDA:1,_RNvXs0_NtCs39mWnhFxKmJ_10autumn_web5errorNtB5_11AutumnErrorINtNtCs4kUJL3MZFFz_4core7convert4FromNtNtNtCsaa59N1qzrfe_3std2io5error5ErrorE4fromB7_
FNDA:11,_RNvXs2_NtCs39mWnhFxKmJ_10autumn_web5errorNtB5_11AutumnErrorNtNtCs4kUJL3MZFFz_4core3fmt7Display3fmt
FNDA:1,_RNvXs3_NtCs39mWnhFxKmJ_10autumn_web5errorNtB5_11AutumnErrorNtNtCs4kUJL3MZFFz_4core3fmt5Debug3fmt
FNDA:20,_RNvXs4_NtCs39mWnhFxKmJ_10autumn_web5errorNtB5_11AutumnErrorNtNtNtCsemqjQd4VUoN_9axum_core8response13into_response12IntoResponse13into_response
FNDA:1,_RNCNvNtNtCs39mWnhFxKmJ_10autumn_web5error5testss_27into_response_has_json_body0B7_
FNDA:1,_RNCNvNtNtCs39mWnhFxKmJ_10autumn_web5error5testss_35service_unavailable_response_is_5030B7_
FNDA:1,_RNCNvNtNtCs39mWnhFxKmJ_10autumn_web5error5testss_44msg_constructor_produces_valid_json_response0B7_
FNDA:0,_RINvMs1_NtCslNlzF6u6e2e_10autumn_web5errorNtB6_11AutumnError11bad_requestNtB6_11StringErrorECsgegzDust4lS_18db_hooks_lifecycle
FNDA:0,_RINvMs1_NtCslNlzF6u6e2e_10autumn_web5errorNtB6_11AutumnError15bad_request_msgReECsgegzDust4lS_18db_hooks_lifecycle
FNDA:1,_RINvMs1_NtCslNlzF6u6e2e_10autumn_web5errorNtB6_11AutumnError13not_found_msgReECsioC65L6WwC5_19middleware_pipeline
FNDA:1,_RINvMs1_NtCslNlzF6u6e2e_10autumn_web5errorNtB6_11AutumnError11bad_requestNtB6_11StringErrorECs59JbeOYRTbv_20test_app_integration
FNDA:1,_RINvMs1_NtCslNlzF6u6e2e_10autumn_web5errorNtB6_11AutumnError15bad_request_msgReECs59JbeOYRTbv_20test_app_integration
FNDA:0,_RINvMs1_NtCslNlzF6u6e2e_10autumn_web5errorNtB6_11AutumnError13not_found_msgReECseI6M5hsFu0M_19test_db_integration
FNDA:0,_RINvMs1_NtCslNlzF6u6e2e_10autumn_web5errorNtB6_11AutumnError19service_unavailableNtB6_11StringErrorECseI6M5hsFu0M_19test_db_integration
FNDA:0,_RINvMs1_NtCslNlzF6u6e2e_10autumn_web5errorNtB6_11AutumnError23service_unavailable_msgNtNtCsauO83Ko6oyK_5alloc6string6StringECseI6M5hsFu0M_19test_db_integration
FNDA:0,_RINvMs1_NtCslNlzF6u6e2e_10autumn_web5errorNtB6_11AutumnError23service_unavailable_msgReECseI6M5hsFu0M_19test_db_integration
FNDA:0,_RNvXs0_NtCslNlzF6u6e2e_10autumn_web5errorNtB5_11AutumnErrorINtNtCs4kUJL3MZFFz_4core7convert4FromNtNtCseuQybqdYbHA_6diesel6result5ErrorE4fromCseI6M5hsFu0M_19test_db_integration
FNF:50
FNH:50
DA:57,32
DA:58,32
DA:59,32
DA:144,4
DA:145,4
DA:146,4
DA:147,4
DA:148,4
DA:149,4
DA:150,4
DA:167,1
DA:168,1
DA:169,1
DA:170,1
DA:183,2
DA:184,2
DA:185,2
DA:186,2
DA:187,2
DA:188,2
DA:189,2
DA:202,22
DA:203,22
DA:204,22
DA:205,22
DA:206,22
DA:207,22
DA:208,22
DA:221,7
DA:222,7
DA:223,7
DA:224,7
DA:225,7
DA:226,7
DA:227,7
DA:243,3
DA:244,3
DA:245,3
DA:246,3
DA:247,3
DA:248,3
DA:249,3
DA:262,5
DA:263,5
DA:264,5
DA:265,5
DA:266,5
DA:267,5
DA:268,5
DA:281,4
DA:282,4
DA:283,4
DA:284,4
DA:285,4
DA:286,4
DA:287,4
DA:300,4
DA:301,4
DA:302,4
DA:303,4
DA:304,4
DA:305,4
DA:306,4
DA:330,4
DA:331,4
DA:332,4
DA:333,4
DA:334,4
DA:335,4
DA:336,4
DA:351,1
DA:352,1
DA:353,1
DA:367,18
DA:368,18
DA:369,18
DA:382,5
DA:383,5
DA:384,5
DA:397,2
DA:398,2
DA:399,2
DA:412,3
DA:413,3
DA:414,3
DA:427,3
DA:428,3
DA:429,3
DA:442,4
DA:443,4
DA:444,4
DA:458,24
DA:459,24
DA:460,24
DA:464,11
DA:465,11
DA:466,11
DA:470,1
DA:471,1
DA:472,1
DA:473,1
DA:474,1
DA:475,1
DA:476,1
DA:480,25
DA:481,25
DA:482,25
DA:486,25
DA:487,25
DA:488,25
DA:489,25
DA:490,25
DA:492,25
DA:493,25
DA:494,25
DA:495,25
DA:496,25
DA:497,25
DA:498,25
DA:500,25
DA:501,25
DA:502,25
DA:503,25
DA:515,3
DA:516,3
DA:517,3
DA:523,1
DA:524,1
DA:525,1
DA:526,1
DA:529,1
DA:530,1
DA:531,1
DA:532,1
DA:535,1
DA:536,1
DA:537,1
DA:538,1
DA:541,1
DA:542,1
DA:543,1
DA:544,1
DA:547,1
DA:548,1
DA:549,1
DA:550,1
DA:553,1
DA:554,1
DA:555,1
DA:556,1
DA:559,1
DA:560,1
DA:561,1
DA:562,1
DA:565,1
DA:566,1
DA:567,1
DA:568,1
DA:571,1
DA:572,1
DA:573,1
DA:574,1
DA:575,1
DA:576,1
DA:579,1
DA:580,1
DA:581,1
DA:582,1
DA:585,1
DA:586,1
DA:587,1
DA:588,1
DA:589,1
DA:592,1
DA:593,1
DA:594,1
DA:595,1
DA:596,1
DA:599,1
DA:600,1
DA:601,1
DA:602,1
DA:605,1
DA:606,1
DA:607,1
DA:608,1
DA:611,1
DA:612,1
DA:613,1
DA:614,1
DA:617,1
DA:618,1
DA:619,1
DA:620,1
DA:623,1
DA:624,1
DA:625,1
DA:626,1
DA:627,1
DA:630,1
DA:631,1
DA:632,1
DA:633,1
DA:634,1
DA:637,1
DA:638,1
DA:639,1
DA:640,1
DA:643,1
DA:644,1
DA:645,1
DA:646,1
DA:647,1
DA:650,1
DA:651,1
DA:652,1
DA:654,1
DA:655,1
DA:657,1
DA:658,1
DA:659,2
DA:660,1
DA:663,1
DA:664,1
DA:665,1
DA:666,1
DA:667,1
DA:668,1
DA:671,1
DA:672,1
DA:673,1
DA:675,1
DA:676,1
DA:677,1
DA:678,1
DA:679,1
DA:680,2
DA:681,1
DA:684,1
DA:685,1
DA:686,1
DA:688,1
DA:689,1
DA:690,1
DA:691,1
DA:692,1
DA:693,2
DA:694,1
BRF:0
BRH:0
LF:254
LH:254
end_of_record
SF:/app/autumn/src/error_pages/defaults.rs
FN:151,_RNvNtNtCslNlzF6u6e2e_10autumn_web11error_pages8defaults17error_page_layout
FN:16,_RNvXNtNtCslNlzF6u6e2e_10autumn_web11error_pages8defaultsNtB2_17DefaultErrorPagesNtNtB4_8renderer17ErrorPageRenderer10render_404
FN:75,_RNvXNtNtCslNlzF6u6e2e_10autumn_web11error_pages8defaultsNtB2_17DefaultErrorPagesNtNtB4_8renderer17ErrorPageRenderer10render_422
FN:45,_RNvXNtNtCslNlzF6u6e2e_10autumn_web11error_pages8defaultsNtB2_17DefaultErrorPagesNtNtB4_8renderer17ErrorPageRenderer10render_500
FN:116,_RNvXNtNtCslNlzF6u6e2e_10autumn_web11error_pages8defaultsNtB2_17DefaultErrorPagesNtNtB4_8renderer17ErrorPageRenderer12render_error
FN:151,_RNvNtNtCs39mWnhFxKmJ_10autumn_web11error_pages8defaults17error_page_layout
FN:16,_RNvXNtNtCs39mWnhFxKmJ_10autumn_web11error_pages8defaultsNtB2_17DefaultErrorPagesNtNtB4_8renderer17ErrorPageRenderer10render_404
FN:75,_RNvXNtNtCs39mWnhFxKmJ_10autumn_web11error_pages8defaultsNtB2_17DefaultErrorPagesNtNtB4_8renderer17ErrorPageRenderer10render_422
FN:45,_RNvXNtNtCs39mWnhFxKmJ_10autumn_web11error_pages8defaultsNtB2_17DefaultErrorPagesNtNtB4_8renderer17ErrorPageRenderer10render_500
FN:116,_RNvXNtNtCs39mWnhFxKmJ_10autumn_web11error_pages8defaultsNtB2_17DefaultErrorPagesNtNtB4_8renderer17ErrorPageRenderer12render_error
FN:218,_RNvNtNtNtCs39mWnhFxKmJ_10autumn_web11error_pages8defaults5tests8make_ctx
FN:303,_RNvNtNtNtCs39mWnhFxKmJ_10autumn_web11error_pages8defaults5testss_24error_page_is_valid_html
FN:230,_RNvNtNtNtCs39mWnhFxKmJ_10autumn_web11error_pages8defaults5testss_25default_404_contains_path
FN:293,_RNvNtNtNtCs39mWnhFxKmJ_10autumn_web11error_pages8defaults5testss_26default_generic_error_page
FN:313,_RNvNtNtNtCs39mWnhFxKmJ_10autumn_web11error_pages8defaults5testss_30test_canonical_reason_fallback
FN:243,_RNvNtNtNtCs39mWnhFxKmJ_10autumn_web11error_pages8defaults5testss_31default_500_contains_request_id
FN:272,_RNvNtNtNtCs39mWnhFxKmJ_10autumn_web11error_pages8defaults5testss_36default_422_shows_validation_details
FN:253,_RNvNtNtNtCs39mWnhFxKmJ_10autumn_web11error_pages8defaults5testss_39default_500_hides_error_details_in_prod
FNDA:0,_RNvNtNtCslNlzF6u6e2e_10autumn_web11error_pages8defaults17error_page_layout
FNDA:0,_RNvXNtNtCslNlzF6u6e2e_10autumn_web11error_pages8defaultsNtB2_17DefaultErrorPagesNtNtB4_8renderer17ErrorPageRenderer10render_404
FNDA:0,_RNvXNtNtCslNlzF6u6e2e_10autumn_web11error_pages8defaultsNtB2_17DefaultErrorPagesNtNtB4_8renderer17ErrorPageRenderer10render_422
FNDA:0,_RNvXNtNtCslNlzF6u6e2e_10autumn_web11error_pages8defaultsNtB2_17DefaultErrorPagesNtNtB4_8renderer17ErrorPageRenderer10render_500
FNDA:0,_RNvXNtNtCslNlzF6u6e2e_10autumn_web11error_pages8defaultsNtB2_17DefaultErrorPagesNtNtB4_8renderer17ErrorPageRenderer12render_error
FNDA:11,_RNvNtNtCs39mWnhFxKmJ_10autumn_web11error_pages8defaults17error_page_layout
FNDA:5,_RNvXNtNtCs39mWnhFxKmJ_10autumn_web11error_pages8defaultsNtB2_17DefaultErrorPagesNtNtB4_8renderer17ErrorPageRenderer10render_404
FNDA:1,_RNvXNtNtCs39mWnhFxKmJ_10autumn_web11error_pages8defaultsNtB2_17DefaultErrorPagesNtNtB4_8renderer17ErrorPageRenderer10render_422
FNDA:3,_RNvXNtNtCs39mWnhFxKmJ_10autumn_web11error_pages8defaultsNtB2_17DefaultErrorPagesNtNtB4_8renderer17ErrorPageRenderer10render_500
FNDA:2,_RNvXNtNtCs39mWnhFxKmJ_10autumn_web11error_pages8defaultsNtB2_17DefaultErrorPagesNtNtB4_8renderer17ErrorPageRenderer12render_error
FNDA:5,_RNvNtNtNtCs39mWnhFxKmJ_10autumn_web11error_pages8defaults5tests8make_ctx
FNDA:1,_RNvNtNtNtCs39mWnhFxKmJ_10autumn_web11error_pages8defaults5testss_24error_page_is_valid_html
FNDA:1,_RNvNtNtNtCs39mWnhFxKmJ_10autumn_web11error_pages8defaults5testss_25default_404_contains_path
FNDA:1,_RNvNtNtNtCs39mWnhFxKmJ_10autumn_web11error_pages8defaults5testss_26default_generic_error_page
FNDA:1,_RNvNtNtNtCs39mWnhFxKmJ_10autumn_web11error_pages8defaults5testss_30test_canonical_reason_fallback
FNDA:1,_RNvNtNtNtCs39mWnhFxKmJ_10autumn_web11error_pages8defaults5testss_31default_500_contains_request_id
FNDA:1,_RNvNtNtNtCs39mWnhFxKmJ_10autumn_web11error_pages8defaults5testss_36default_422_shows_validation_details
FNDA:1,_RNvNtNtNtCs39mWnhFxKmJ_10autumn_web11error_pages8defaults5testss_39default_500_hides_error_details_in_prod
FNF:13
FNH:13
DA:16,5
DA:17,5
DA:18,5
DA:19,5
DA:20,5
DA:21,5
DA:22,5
DA:23,5
DA:24,5
DA:25,5
DA:26,5
DA:27,5
DA:28,5
DA:29,5
DA:30,5
DA:31,5
DA:32,5
DA:33,5
DA:34,5
DA:35,5
DA:36,5
DA:37,5
DA:38,5
DA:39,5
DA:40,5
DA:41,5
DA:43,5
DA:45,3
DA:46,3
DA:47,3
DA:48,3
DA:59,3
DA:73,3
DA:75,1
DA:76,1
DA:77,1
DA:78,1
DA:89,1
DA:91,1
DA:96,1
DA:114,1
DA:116,2
DA:117,2
DA:118,2
DA:120,2
DA:121,2
DA:122,2
DA:133,2
DA:147,2
DA:151,11
DA:152,11
DA:153,11
DA:154,11
DA:156,11
DA:174,11
DA:218,5
DA:219,5
DA:220,5
DA:221,5
DA:222,5
DA:223,5
DA:224,5
DA:225,5
DA:226,5
DA:227,5
DA:230,1
DA:231,1
DA:232,1
DA:233,1
DA:234,1
DA:235,1
DA:238,1
DA:239,1
DA:240,1
DA:243,1
DA:244,1
DA:245,1
DA:246,1
DA:247,1
DA:248,1
DA:249,1
DA:250,1
DA:253,1
DA:254,1
DA:255,1
DA:256,1
DA:257,1
DA:258,1
DA:259,1
DA:260,1
DA:261,1
DA:262,1
DA:263,1
DA:264,1
DA:265,1
DA:266,1
DA:269,1
DA:272,1
DA:273,1
DA:274,1
DA:276,1
DA:277,1
DA:278,1
DA:279,1
DA:280,1
DA:281,1
DA:282,1
DA:283,1
DA:284,1
DA:285,1
DA:286,1
DA:287,1
DA:288,1
DA:289,1
DA:290,1
DA:293,1
DA:294,1
DA:295,1
DA:296,1
DA:297,1
DA:298,1
DA:299,1
DA:300,1
DA:303,1
DA:304,1
DA:305,1
DA:306,1
DA:307,1
DA:308,1
DA:309,1
DA:310,1
DA:313,1
DA:314,1
DA:315,1
DA:316,1
DA:317,1
DA:318,1
DA:319,1
DA:320,1
BRF:0
BRH:0
LF:139
LH:139
end_of_record
SF:/app/autumn/src/error_pages/dev_badge.rs
FN:36,_RNvNtNtCslNlzF6u6e2e_10autumn_web11error_pages9dev_badge20dev_error_badge_html
FN:212,_RNvNtNtNtCs39mWnhFxKmJ_10autumn_web11error_pages9dev_badge5tests8test_ctx
FN:246,_RNvNtNtNtCs39mWnhFxKmJ_10autumn_web11error_pages9dev_badge5testss_21badge_uses_inline_css
FN:232,_RNvNtNtNtCs39mWnhFxKmJ_10autumn_web11error_pages9dev_badge5testss_22badge_contains_message
FN:239,_RNvNtNtNtCs39mWnhFxKmJ_10autumn_web11error_pages9dev_badge5testss_25badge_contains_request_id
FN:224,_RNvNtNtNtCs39mWnhFxKmJ_10autumn_web11error_pages9dev_badge5testss_26badge_contains_status_code
FN:267,_RNvNtNtNtCs39mWnhFxKmJ_10autumn_web11error_pages9dev_badge5testss_38badge_hides_source_section_when_absent
FN:258,_RNvNtNtNtCs39mWnhFxKmJ_10autumn_web11error_pages9dev_badge5testss_40badge_shows_source_location_when_present
FN:36,_RNvNtNtCs39mWnhFxKmJ_10autumn_web11error_pages9dev_badge20dev_error_badge_html
FNDA:0,_RNvNtNtCslNlzF6u6e2e_10autumn_web11error_pages9dev_badge20dev_error_badge_html
FNDA:6,_RNvNtNtNtCs39mWnhFxKmJ_10autumn_web11error_pages9dev_badge5tests8test_ctx
FNDA:1,_RNvNtNtNtCs39mWnhFxKmJ_10autumn_web11error_pages9dev_badge5testss_21badge_uses_inline_css
FNDA:1,_RNvNtNtNtCs39mWnhFxKmJ_10autumn_web11error_pages9dev_badge5testss_22badge_contains_message
FNDA:1,_RNvNtNtNtCs39mWnhFxKmJ_10autumn_web11error_pages9dev_badge5testss_25badge_contains_request_id
FNDA:1,_RNvNtNtNtCs39mWnhFxKmJ_10autumn_web11error_pages9dev_badge5testss_26badge_contains_status_code
FNDA:1,_RNvNtNtNtCs39mWnhFxKmJ_10autumn_web11error_pages9dev_badge5testss_38badge_hides_source_section_when_absent
FNDA:1,_RNvNtNtNtCs39mWnhFxKmJ_10autumn_web11error_pages9dev_badge5testss_40badge_shows_source_location_when_present
FNDA:7,_RNvNtNtCs39mWnhFxKmJ_10autumn_web11error_pages9dev_badge20dev_error_badge_html
FNF:8
FNH:8
DA:36,7
DA:37,7
DA:38,7
DA:39,7
DA:40,7
DA:41,7
DA:42,7
DA:44,7
DA:82,7
DA:92,7
DA:212,6
DA:213,6
DA:214,6
DA:215,6
DA:216,6
DA:217,6
DA:218,6
DA:219,6
DA:220,6
DA:221,6
DA:224,1
DA:225,1
DA:226,1
DA:227,1
DA:228,1
DA:229,1
DA:232,1
DA:233,1
DA:234,1
DA:235,1
DA:236,1
DA:239,1
DA:240,1
DA:241,1
DA:242,1
DA:243,1
DA:246,1
DA:247,1
DA:248,1
DA:249,1
DA:251,1
DA:252,1
DA:255,1
DA:258,1
DA:259,1
DA:260,1
DA:261,1
DA:262,1
DA:263,1
DA:264,1
DA:267,1
DA:268,1
DA:269,1
DA:270,1
DA:271,1
DA:272,1
BRF:0
BRH:0
LF:56
LH:56
end_of_record
SF:/app/autumn/src/error_pages/mod.rs
FN:73,_RNvNtCslNlzF6u6e2e_10autumn_web11error_pages16default_renderer
FN:56,_RNvNtCslNlzF6u6e2e_10autumn_web11error_pages17render_error_page
FN:73,_RNvNtCs39mWnhFxKmJ_10autumn_web11error_pages16default_renderer
FN:56,_RNvNtCs39mWnhFxKmJ_10autumn_web11error_pages17render_error_page
FNDA:32,_RNvNtCslNlzF6u6e2e_10autumn_web11error_pages16default_renderer
FNDA:0,_RNvNtCslNlzF6u6e2e_10autumn_web11error_pages17render_error_page
FNDA:35,_RNvNtCs39mWnhFxKmJ_10autumn_web11error_pages16default_renderer
FNDA:5,_RNvNtCs39mWnhFxKmJ_10autumn_web11error_pages17render_error_page
FNF:2
FNH:2
DA:56,5
DA:57,5
DA:58,5
DA:59,5
DA:60,5
DA:61,5
DA:62,4
DA:63,0
DA:64,1
DA:65,0
DA:67,5
DA:73,67
DA:74,67
DA:75,67
BRF:0
BRH:0
LF:14
LH:12
end_of_record
SF:/app/autumn/src/error_pages/renderer.rs
FN:58,_RNvYpNtNtNtCslNlzF6u6e2e_10autumn_web11error_pages8renderer17ErrorPageRenderer10render_404B9_
FN:68,_RNvYpNtNtNtCslNlzF6u6e2e_10autumn_web11error_pages8renderer17ErrorPageRenderer10render_422B9_
FN:63,_RNvYpNtNtNtCslNlzF6u6e2e_10autumn_web11error_pages8renderer17ErrorPageRenderer10render_500B9_
FN:58,_RNvYNtNCNvNtNtNtCs39mWnhFxKmJ_10autumn_web10middleware17error_page_filter5testss_21custom_renderer_works011CustomPagesNtNtNtBe_11error_pages8renderer17ErrorPageRenderer10render_404Be_
FN:68,_RNvYNtNCNvNtNtNtCs39mWnhFxKmJ_10autumn_web10middleware17error_page_filter5testss_21custom_renderer_works011CustomPagesNtNtNtBe_11error_pages8renderer17ErrorPageRenderer10render_422Be_
FN:63,_RNvYNtNCNvNtNtNtCs39mWnhFxKmJ_10autumn_web10middleware17error_page_filter5testss_21custom_renderer_works011CustomPagesNtNtNtBe_11error_pages8renderer17ErrorPageRenderer10render_500Be_
FN:58,_RNvYNtNCNvNtNtNtCs39mWnhFxKmJ_10autumn_web10middleware17error_page_filter5testss_44custom_renderer_is_ignored_for_json_requests015LoudCustomPagesNtNtNtBe_11error_pages8renderer17ErrorPageRenderer10render_404Be_
FN:68,_RNvYNtNCNvNtNtNtCs39mWnhFxKmJ_10autumn_web10middleware17error_page_filter5testss_44custom_renderer_is_ignored_for_json_requests015LoudCustomPagesNtNtNtBe_11error_pages8renderer17ErrorPageRenderer10render_422Be_
FN:63,_RNvYNtNCNvNtNtNtCs39mWnhFxKmJ_10autumn_web10middleware17error_page_filter5testss_44custom_renderer_is_ignored_for_json_requests015LoudCustomPagesNtNtNtBe_11error_pages8renderer17ErrorPageRenderer10render_500Be_
FNDA:0,_RNvYpNtNtNtCslNlzF6u6e2e_10autumn_web11error_pages8renderer17ErrorPageRenderer10render_404B9_
FNDA:0,_RNvYpNtNtNtCslNlzF6u6e2e_10autumn_web11error_pages8renderer17ErrorPageRenderer10render_422B9_
FNDA:0,_RNvYpNtNtNtCslNlzF6u6e2e_10autumn_web11error_pages8renderer17ErrorPageRenderer10render_500B9_
FNDA:1,_RNvYNtNCNvNtNtNtCs39mWnhFxKmJ_10autumn_web10middleware17error_page_filter5testss_21custom_renderer_works011CustomPagesNtNtNtBe_11error_pages8renderer17ErrorPageRenderer10render_404Be_
FNDA:0,_RNvYNtNCNvNtNtNtCs39mWnhFxKmJ_10autumn_web10middleware17error_page_filter5testss_21custom_renderer_works011CustomPagesNtNtNtBe_11error_pages8renderer17ErrorPageRenderer10render_422Be_
FNDA:0,_RNvYNtNCNvNtNtNtCs39mWnhFxKmJ_10autumn_web10middleware17error_page_filter5testss_21custom_renderer_works011CustomPagesNtNtNtBe_11error_pages8renderer17ErrorPageRenderer10render_500Be_
FNDA:0,_RNvYNtNCNvNtNtNtCs39mWnhFxKmJ_10autumn_web10middleware17error_page_filter5testss_44custom_renderer_is_ignored_for_json_requests015LoudCustomPagesNtNtNtBe_11error_pages8renderer17ErrorPageRenderer10render_404Be_
FNDA:0,_RNvYNtNCNvNtNtNtCs39mWnhFxKmJ_10autumn_web10middleware17error_page_filter5testss_44custom_renderer_is_ignored_for_json_requests015LoudCustomPagesNtNtNtBe_11error_pages8renderer17ErrorPageRenderer10render_422Be_
FNDA:0,_RNvYNtNCNvNtNtNtCs39mWnhFxKmJ_10autumn_web10middleware17error_page_filter5testss_44custom_renderer_is_ignored_for_json_requests015LoudCustomPagesNtNtNtBe_11error_pages8renderer17ErrorPageRenderer10render_500Be_
FNF:3
FNH:1
DA:58,1
DA:59,1
DA:60,1
DA:63,0
DA:64,0
DA:65,0
DA:68,0
DA:69,0
DA:70,0
BRF:0
BRH:0
LF:9
LH:3
end_of_record
SF:/app/autumn/src/health.rs
FN:45,_RNvNtCslNlzF6u6e2e_10autumn_web6health7handler
FN:45,_RNCNvNtCslNlzF6u6e2e_10autumn_web6health7handler0B5_
FN:45,_RNCNvNtCs39mWnhFxKmJ_10autumn_web6health7handler0B5_
FN:79,_RNCNvNtNtCs39mWnhFxKmJ_10autumn_web6health5testss_29health_no_database_returns_ok0B7_
FN:172,_RNCNvNtNtCs39mWnhFxKmJ_10autumn_web6health5testss_32health_response_includes_version0B7_
FN:189,_RNCNvNtNtCs39mWnhFxKmJ_10autumn_web6health5testss_35health_detailed_false_omits_details0B7_
FN:126,_RNCNvNtNtCs39mWnhFxKmJ_10autumn_web6health5testss_36health_with_pool_returns_pool_status0B7_
FN:103,_RNCNvNtNtCs39mWnhFxKmJ_10autumn_web6health5testss_44health_no_database_returns_json_content_type0B7_
FN:56,_RNvNtNtCs39mWnhFxKmJ_10autumn_web6health5tests10test_state
FN:79,_RNvNtNtCs39mWnhFxKmJ_10autumn_web6health5testss_29health_no_database_returns_ok
FN:172,_RNvNtNtCs39mWnhFxKmJ_10autumn_web6health5testss_32health_response_includes_version
FN:189,_RNvNtNtCs39mWnhFxKmJ_10autumn_web6health5testss_35health_detailed_false_omits_details
FN:126,_RNvNtNtCs39mWnhFxKmJ_10autumn_web6health5testss_36health_with_pool_returns_pool_status
FN:102,_RNvNtNtCs39mWnhFxKmJ_10autumn_web6health5testss_44health_no_database_returns_json_content_type
FN:45,_RNvNtCs39mWnhFxKmJ_10autumn_web6health7handler
FNDA:0,_RNvNtCslNlzF6u6e2e_10autumn_web6health7handler
FNDA:0,_RNCNvNtCslNlzF6u6e2e_10autumn_web6health7handler0B5_
FNDA:7,_RNCNvNtCs39mWnhFxKmJ_10autumn_web6health7handler0B5_
FNDA:1,_RNCNvNtNtCs39mWnhFxKmJ_10autumn_web6health5testss_29health_no_database_returns_ok0B7_
FNDA:1,_RNCNvNtNtCs39mWnhFxKmJ_10autumn_web6health5testss_32health_response_includes_version0B7_
FNDA:1,_RNCNvNtNtCs39mWnhFxKmJ_10autumn_web6health5testss_35health_detailed_false_omits_details0B7_
FNDA:1,_RNCNvNtNtCs39mWnhFxKmJ_10autumn_web6health5testss_36health_with_pool_returns_pool_status0B7_
FNDA:1,_RNCNvNtNtCs39mWnhFxKmJ_10autumn_web6health5testss_44health_no_database_returns_json_content_type0B7_
FNDA:4,_RNvNtNtCs39mWnhFxKmJ_10autumn_web6health5tests10test_state
FNDA:1,_RNvNtNtCs39mWnhFxKmJ_10autumn_web6health5testss_29health_no_database_returns_ok
FNDA:1,_RNvNtNtCs39mWnhFxKmJ_10autumn_web6health5testss_32health_response_includes_version
FNDA:1,_RNvNtNtCs39mWnhFxKmJ_10autumn_web6health5testss_35health_detailed_false_omits_details
FNDA:1,_RNvNtNtCs39mWnhFxKmJ_10autumn_web6health5testss_36health_with_pool_returns_pool_status
FNDA:1,_RNvNtNtCs39mWnhFxKmJ_10autumn_web6health5testss_44health_no_database_returns_json_content_type
FNDA:7,_RNvNtCs39mWnhFxKmJ_10autumn_web6health7handler
FNF:13
FNH:13
DA:45,7
DA:46,7
DA:47,7
DA:56,4
DA:57,4
DA:58,4
DA:59,4
DA:60,4
DA:61,4
DA:62,4
DA:63,4
DA:64,4
DA:65,4
DA:66,4
DA:67,4
DA:68,4
DA:69,4
DA:70,4
DA:71,4
DA:72,4
DA:73,4
DA:74,4
DA:75,4
DA:76,4
DA:79,1
DA:80,1
DA:81,1
DA:82,1
DA:84,1
DA:85,1
DA:86,1
DA:88,1
DA:90,1
DA:91,1
DA:93,1
DA:94,1
DA:95,1
DA:96,1
DA:97,1
DA:98,2
DA:99,1
DA:102,1
DA:103,1
DA:104,1
DA:105,1
DA:106,1
DA:108,1
DA:109,1
DA:110,1
DA:112,1
DA:113,1
DA:114,1
DA:115,1
DA:116,1
DA:117,1
DA:118,1
DA:121,2
DA:122,1
DA:126,1
DA:127,1
DA:128,1
DA:129,1
DA:130,1
DA:131,1
DA:132,1
DA:134,1
DA:135,1
DA:136,1
DA:137,1
DA:138,1
DA:139,1
DA:140,1
DA:141,1
DA:142,1
DA:143,1
DA:144,1
DA:145,1
DA:146,1
DA:147,1
DA:148,1
DA:149,1
DA:150,1
DA:151,1
DA:152,1
DA:153,1
DA:155,1
DA:156,1
DA:157,1
DA:159,1
DA:161,1
DA:162,1
DA:164,1
DA:165,1
DA:166,1
DA:167,1
DA:168,2
DA:169,1
DA:172,1
DA:173,1
DA:174,1
DA:175,1
DA:177,1
DA:178,1
DA:179,1
DA:181,1
DA:182,1
DA:184,1
DA:185,2
DA:186,1
DA:189,1
DA:190,1
DA:191,1
DA:193,1
DA:194,1
DA:195,1
DA:197,1
DA:198,1
DA:199,1
DA:201,1
DA:203,1
DA:204,1
DA:206,1
DA:207,1
DA:208,1
DA:209,1
DA:210,1
DA:211,2
DA:212,1
BRF:0
BRH:0
LF:138
LH:138
end_of_record
SF:/app/autumn/src/hooks.rs
FN:277,_RINvXININtCslNlzF6u6e2e_10autumn_web5hookss4_0pEINtB6_5PatchpENtNtCsdBCzScGN83d_10serde_core3ser9Serialize9serializepEB8_
FN:286,_RINvXININtCslNlzF6u6e2e_10autumn_web5hookss5_0pEINtB6_5PatchpENtNtCsdBCzScGN83d_10serde_core2de11Deserialize11deserializepEB8_
FN:150,_RNCNvYpNtNtCslNlzF6u6e2e_10autumn_web5hooks13MutationHooks13before_create0B9_
FN:180,_RNCNvYpNtNtCslNlzF6u6e2e_10autumn_web5hooks13MutationHooks13before_delete0B9_
FN:171,_RNCNvYpNtNtCslNlzF6u6e2e_10autumn_web5hooks13MutationHooks13before_update0B9_
FN:267,_RNvMs3_NtCslNlzF6u6e2e_10autumn_web5hooksINtB5_5PatchpE11into_optionB7_
FN:236,_RNvMs3_NtCslNlzF6u6e2e_10autumn_web5hooksINtB5_5PatchpE12is_unchangedB7_
FN:254,_RNvMs3_NtCslNlzF6u6e2e_10autumn_web5hooksINtB5_5PatchpE6as_setB7_
FN:242,_RNvMs3_NtCslNlzF6u6e2e_10autumn_web5hooksINtB5_5PatchpE6is_setB7_
FN:248,_RNvMs3_NtCslNlzF6u6e2e_10autumn_web5hooksINtB5_5PatchpE8is_clearB7_
FN:338,_RNvMs6_NtCslNlzF6u6e2e_10autumn_web5hooksINtB5_9FieldDiffpE10changed_toB7_
FN:344,_RNvMs6_NtCslNlzF6u6e2e_10autumn_web5hooksINtB5_9FieldDiffpE12changed_fromB7_
FN:308,_RNvMs6_NtCslNlzF6u6e2e_10autumn_web5hooksINtB5_9FieldDiffpE3newB7_
FN:349,_RNvMs6_NtCslNlzF6u6e2e_10autumn_web5hooksINtB5_9FieldDiffpE3setB7_
FN:320,_RNvMs6_NtCslNlzF6u6e2e_10autumn_web5hooksINtB5_9FieldDiffpE5afterB7_
FN:314,_RNvMs6_NtCslNlzF6u6e2e_10autumn_web5hooksINtB5_9FieldDiffpE6beforeB7_
FN:326,_RNvMs6_NtCslNlzF6u6e2e_10autumn_web5hooksINtB5_9FieldDiffpE7changedB7_
FN:332,_RNvMs6_NtCslNlzF6u6e2e_10autumn_web5hooksINtB5_9FieldDiffpE9unchangedB7_
FN:363,_RNvMs7_NtCslNlzF6u6e2e_10autumn_web5hooksINtB5_9FieldDiffINtNtCs4kUJL3MZFFz_4core6option6OptionpEE11was_clearedB7_
FN:357,_RNvMs7_NtCslNlzF6u6e2e_10autumn_web5hooksINtB5_9FieldDiffINtNtCs4kUJL3MZFFz_4core6option6OptionpEE7was_setB7_
FN:443,_RNvMs8_NtCslNlzF6u6e2e_10autumn_web5hooksINtB5_11UpdateDraftpE10into_afterB7_
FN:417,_RNvMs8_NtCslNlzF6u6e2e_10autumn_web5hooksINtB5_11UpdateDraftpE16new_with_changesB7_
FN:408,_RNvMs8_NtCslNlzF6u6e2e_10autumn_web5hooksINtB5_11UpdateDraftpE3newB7_
FN:429,_RNvMs8_NtCslNlzF6u6e2e_10autumn_web5hooksINtB5_11UpdateDraftpE5afterB7_
FN:423,_RNvMs8_NtCslNlzF6u6e2e_10autumn_web5hooksINtB5_11UpdateDraftpE6beforeB7_
FN:437,_RNvMs8_NtCslNlzF6u6e2e_10autumn_web5hooksINtB5_11UpdateDraftpE9after_mutB7_
FN:474,_RNvMs9_NtCslNlzF6u6e2e_10autumn_web5hooksINtB5_10DraftFieldpE3newB7_
FN:491,_RNvMs9_NtCslNlzF6u6e2e_10autumn_web5hooksINtB5_10DraftFieldpE3setB7_
FN:486,_RNvMs9_NtCslNlzF6u6e2e_10autumn_web5hooksINtB5_10DraftFieldpE5afterB7_
FN:480,_RNvMs9_NtCslNlzF6u6e2e_10autumn_web5hooksINtB5_10DraftFieldpE6beforeB7_
FN:511,_RNvMsa_NtCslNlzF6u6e2e_10autumn_web5hooksINtB5_10DraftFieldpE10changed_toB7_
FN:517,_RNvMsa_NtCslNlzF6u6e2e_10autumn_web5hooksINtB5_10DraftFieldpE12changed_fromB7_
FN:499,_RNvMsa_NtCslNlzF6u6e2e_10autumn_web5hooksINtB5_10DraftFieldpE7changedB7_
FN:505,_RNvMsa_NtCslNlzF6u6e2e_10autumn_web5hooksINtB5_10DraftFieldpE9unchangedB7_
FN:531,_RNvMsb_NtCslNlzF6u6e2e_10autumn_web5hooksINtB5_10DraftFieldINtNtCs4kUJL3MZFFz_4core6option6OptionpEE11was_clearedB7_
FN:525,_RNvMsb_NtCslNlzF6u6e2e_10autumn_web5hooksINtB5_10DraftFieldINtNtCs4kUJL3MZFFz_4core6option6OptionpEE7was_setB7_
FN:195,_RNvXININtCslNlzF6u6e2e_10autumn_web5hookss1_0pppEINtB5_7NoHookspppENtNtCs4kUJL3MZFFz_4core7default7Default7defaultB7_
FN:145,_RNvYpNtNtCslNlzF6u6e2e_10autumn_web5hooks13MutationHooks13before_createB7_
FN:175,_RNvYpNtNtCslNlzF6u6e2e_10autumn_web5hooks13MutationHooks13before_deleteB7_
FN:163,_RNvYpNtNtCslNlzF6u6e2e_10autumn_web5hooks13MutationHooks13before_updateB7_
FN:72,_RNvMNtCslNlzF6u6e2e_10autumn_web5hooksNtB2_10MutationOp6as_str
FN:109,_RNvMs0_NtCslNlzF6u6e2e_10autumn_web5hooksNtB5_15MutationContext3new
FN:82,_RNvXs_NtCslNlzF6u6e2e_10autumn_web5hooksNtB4_10MutationOpNtNtCs4kUJL3MZFFz_4core3fmt7Display3fmt
FN:592,_RNvNtNtCs39mWnhFxKmJ_10autumn_web5hooks5testss_18field_diff_changed
FN:634,_RNvNtNtCs39mWnhFxKmJ_10autumn_web5hooks5testss_18mutation_op_as_str
FN:769,_RNvNtNtCs39mWnhFxKmJ_10autumn_web5hooks5testss_19draft_field_changed
FN:641,_RNvNtNtCs39mWnhFxKmJ_10autumn_web5hooks5testss_19mutation_op_display
FN:585,_RNvNtNtCs39mWnhFxKmJ_10autumn_web5hooks5testss_20field_diff_unchanged
FN:560,_RNvNtNtCs39mWnhFxKmJ_10autumn_web5hooks5testss_20patch_clear_is_clear
FN:778,_RNvNtNtCs39mWnhFxKmJ_10autumn_web5hooks5testss_21draft_field_unchanged
FN:598,_RNvNtNtCs39mWnhFxKmJ_10autumn_web5hooks5testss_21field_diff_changed_to
FN:568,_RNvNtNtCs39mWnhFxKmJ_10autumn_web5hooks5testss_21patch_into_option_set
FN:551,_RNvNtNtCs39mWnhFxKmJ_10autumn_web5hooks5testss_21patch_set_holds_value
FN:787,_RNvNtNtCs39mWnhFxKmJ_10autumn_web5hooks5testss_22draft_field_changed_to
FN:751,_RNvNtNtCs39mWnhFxKmJ_10autumn_web5hooks5testss_22update_draft_after_mut
FN:604,_RNvNtNtCs39mWnhFxKmJ_10autumn_web5hooks5testss_23field_diff_changed_from
FN:573,_RNvNtNtCs39mWnhFxKmJ_10autumn_web5hooks5testss_23patch_into_option_clear
FN:738,_RNvNtNtCs39mWnhFxKmJ_10autumn_web5hooks5testss_23update_draft_into_after
FN:744,_RNvNtNtCs39mWnhFxKmJ_10autumn_web5hooks5testss_23update_draft_new_clones
FN:760,_RNvNtNtCs39mWnhFxKmJ_10autumn_web5hooks5testss_24draft_field_before_after
FN:796,_RNvNtNtCs39mWnhFxKmJ_10autumn_web5hooks5testss_24draft_field_changed_from
FN:620,_RNvNtNtCs39mWnhFxKmJ_10autumn_web5hooks5testss_25field_diff_option_was_set
FN:682,_RNvNtNtCs39mWnhFxKmJ_10autumn_web5hooks5testss_25patch_serde_set_roundtrip
FN:731,_RNvNtNtCs39mWnhFxKmJ_10autumn_web5hooks5testss_25update_draft_before_after
FN:820,_RNvNtNtCs39mWnhFxKmJ_10autumn_web5hooks5testss_26draft_field_option_was_set
FN:543,_RNvNtNtCs39mWnhFxKmJ_10autumn_web5hooks5testss_26patch_unchanged_is_default
FN:658,_RNvNtNtCs39mWnhFxKmJ_10autumn_web5hooks5testss_27mutation_context_with_actor
FN:578,_RNvNtNtCs39mWnhFxKmJ_10autumn_web5hooks5testss_27patch_into_option_unchanged
FN:610,_RNvNtNtCs39mWnhFxKmJ_10autumn_web5hooks5testss_28field_diff_set_updates_after
FN:805,_RNvNtNtCs39mWnhFxKmJ_10autumn_web5hooks5testss_29draft_field_set_mutates_after
FN:626,_RNvNtNtCs39mWnhFxKmJ_10autumn_web5hooks5testss_29field_diff_option_was_cleared
FN:667,_RNvNtNtCs39mWnhFxKmJ_10autumn_web5hooks5testss_29no_hooks_all_methods_are_noop
FN:829,_RNvNtNtCs39mWnhFxKmJ_10autumn_web5hooks5testss_30draft_field_option_was_cleared
FN:648,_RNvNtNtCs39mWnhFxKmJ_10autumn_web5hooks5testss_31mutation_context_auto_populates
FN:718,_RNvNtNtCs39mWnhFxKmJ_10autumn_web5hooks5testss_34patch_serde_explicit_null_is_clear
FN:691,_RNvNtNtCs39mWnhFxKmJ_10autumn_web5hooks5testss_36patch_serde_clear_serializes_as_null
FN:704,_RNvNtNtCs39mWnhFxKmJ_10autumn_web5hooks5testss_37patch_serde_absent_field_is_unchanged
FN:698,_RNvNtNtCs39mWnhFxKmJ_10autumn_web5hooks5testss_38patch_serde_null_deserializes_as_clear
FN:667,_RNCNvNtNtCs39mWnhFxKmJ_10autumn_web5hooks5testss_29no_hooks_all_methods_are_noop0B7_
FN:72,_RNvMNtCs39mWnhFxKmJ_10autumn_web5hooksNtB2_10MutationOp6as_str
FN:109,_RNvMs0_NtCs39mWnhFxKmJ_10autumn_web5hooksNtB5_15MutationContext3new
FN:82,_RNvXs_NtCs39mWnhFxKmJ_10autumn_web5hooksNtB4_10MutationOpNtNtCs4kUJL3MZFFz_4core3fmt7Display3fmt
FN:277,_RINvXs4_NtCs39mWnhFxKmJ_10autumn_web5hooksINtB6_5PatchlENtNtCsdBCzScGN83d_10serde_core3ser9Serialize9serializeQINtNtCsi468O0DAOwe_10serde_json3ser10SerializerQINtNtCsauO83Ko6oyK_5alloc3vec3VechEEEB8_
FN:286,_RINvXs5_NtCs39mWnhFxKmJ_10autumn_web5hooksINtB6_5PatchNtNtCsauO83Ko6oyK_5alloc6string6StringENtNtCsdBCzScGN83d_10serde_core2de11Deserialize11deserializeQINtNtCsi468O0DAOwe_10serde_json2de12DeserializerNtNtB2w_4read7StrReadEEB8_
FN:286,_RINvXs5_NtCs39mWnhFxKmJ_10autumn_web5hooksINtB6_5PatchlENtNtCsdBCzScGN83d_10serde_core2de11Deserialize11deserializeQINtNtCsi468O0DAOwe_10serde_json2de12DeserializerNtNtB1V_4read7StrReadEEB8_
FN:150,_RNCNvYINtNtCs39mWnhFxKmJ_10autumn_web5hooks7NoHooksuuuENtB7_13MutationHooks13before_create0B9_
FN:180,_RNCNvYINtNtCs39mWnhFxKmJ_10autumn_web5hooks7NoHooksuuuENtB7_13MutationHooks13before_delete0B9_
FN:171,_RNCNvYINtNtCs39mWnhFxKmJ_10autumn_web5hooks7NoHooksuuuENtB7_13MutationHooks13before_update0B9_
FN:236,_RNvMs3_NtCs39mWnhFxKmJ_10autumn_web5hooksINtB5_5PatchNtNtCsauO83Ko6oyK_5alloc6string6StringE12is_unchangedB7_
FN:242,_RNvMs3_NtCs39mWnhFxKmJ_10autumn_web5hooksINtB5_5PatchNtNtCsauO83Ko6oyK_5alloc6string6StringE6is_setB7_
FN:248,_RNvMs3_NtCs39mWnhFxKmJ_10autumn_web5hooksINtB5_5PatchNtNtCsauO83Ko6oyK_5alloc6string6StringE8is_clearB7_
FN:236,_RNvMs3_NtCs39mWnhFxKmJ_10autumn_web5hooksINtB5_5PatchReE12is_unchangedB7_
FN:254,_RNvMs3_NtCs39mWnhFxKmJ_10autumn_web5hooksINtB5_5PatchReE6as_setB7_
FN:242,_RNvMs3_NtCs39mWnhFxKmJ_10autumn_web5hooksINtB5_5PatchReE6is_setB7_
FN:248,_RNvMs3_NtCs39mWnhFxKmJ_10autumn_web5hooksINtB5_5PatchReE8is_clearB7_
FN:267,_RNvMs3_NtCs39mWnhFxKmJ_10autumn_web5hooksINtB5_5PatchlE11into_optionB7_
FN:236,_RNvMs3_NtCs39mWnhFxKmJ_10autumn_web5hooksINtB5_5PatchlE12is_unchangedB7_
FN:242,_RNvMs3_NtCs39mWnhFxKmJ_10autumn_web5hooksINtB5_5PatchlE6is_setB7_
FN:248,_RNvMs3_NtCs39mWnhFxKmJ_10autumn_web5hooksINtB5_5PatchlE8is_clearB7_
FN:308,_RNvMs6_NtCs39mWnhFxKmJ_10autumn_web5hooksINtB5_9FieldDiffINtNtCs4kUJL3MZFFz_4core6option6OptionlEE3newB7_
FN:338,_RNvMs6_NtCs39mWnhFxKmJ_10autumn_web5hooksINtB5_9FieldDifflE10changed_toB7_
FN:344,_RNvMs6_NtCs39mWnhFxKmJ_10autumn_web5hooksINtB5_9FieldDifflE12changed_fromB7_
FN:308,_RNvMs6_NtCs39mWnhFxKmJ_10autumn_web5hooksINtB5_9FieldDifflE3newB7_
FN:349,_RNvMs6_NtCs39mWnhFxKmJ_10autumn_web5hooksINtB5_9FieldDifflE3setB7_
FN:320,_RNvMs6_NtCs39mWnhFxKmJ_10autumn_web5hooksINtB5_9FieldDifflE5afterB7_
FN:314,_RNvMs6_NtCs39mWnhFxKmJ_10autumn_web5hooksINtB5_9FieldDifflE6beforeB7_
FN:326,_RNvMs6_NtCs39mWnhFxKmJ_10autumn_web5hooksINtB5_9FieldDifflE7changedB7_
FN:332,_RNvMs6_NtCs39mWnhFxKmJ_10autumn_web5hooksINtB5_9FieldDifflE9unchangedB7_
FN:363,_RNvMs7_NtCs39mWnhFxKmJ_10autumn_web5hooksINtB5_9FieldDiffINtNtCs4kUJL3MZFFz_4core6option6OptionlEE11was_clearedB7_
FN:357,_RNvMs7_NtCs39mWnhFxKmJ_10autumn_web5hooksINtB5_9FieldDiffINtNtCs4kUJL3MZFFz_4core6option6OptionlEE7was_setB7_
FN:417,_RNvMs8_NtCs39mWnhFxKmJ_10autumn_web5hooksINtB5_11UpdateDraftNtNtCsauO83Ko6oyK_5alloc6string6StringE16new_with_changesB7_
FN:429,_RNvMs8_NtCs39mWnhFxKmJ_10autumn_web5hooksINtB5_11UpdateDraftNtNtCsauO83Ko6oyK_5alloc6string6StringE5afterB7_
FN:423,_RNvMs8_NtCs39mWnhFxKmJ_10autumn_web5hooksINtB5_11UpdateDraftNtNtCsauO83Ko6oyK_5alloc6string6StringE6beforeB7_
FN:443,_RNvMs8_NtCs39mWnhFxKmJ_10autumn_web5hooksINtB5_11UpdateDraftlE10into_afterB7_
FN:417,_RNvMs8_NtCs39mWnhFxKmJ_10autumn_web5hooksINtB5_11UpdateDraftlE16new_with_changesB7_
FN:408,_RNvMs8_NtCs39mWnhFxKmJ_10autumn_web5hooksINtB5_11UpdateDraftlE3newB7_
FN:429,_RNvMs8_NtCs39mWnhFxKmJ_10autumn_web5hooksINtB5_11UpdateDraftlE5afterB7_
FN:423,_RNvMs8_NtCs39mWnhFxKmJ_10autumn_web5hooksINtB5_11UpdateDraftlE6beforeB7_
FN:437,_RNvMs8_NtCs39mWnhFxKmJ_10autumn_web5hooksINtB5_11UpdateDraftlE9after_mutB7_
FN:408,_RNvMs8_NtCs39mWnhFxKmJ_10autumn_web5hooksINtB5_11UpdateDraftuE3newB7_
FN:474,_RNvMs9_NtCs39mWnhFxKmJ_10autumn_web5hooksINtB5_10DraftFieldINtNtCs4kUJL3MZFFz_4core6option6OptionlEE3newB7_
FN:474,_RNvMs9_NtCs39mWnhFxKmJ_10autumn_web5hooksINtB5_10DraftFieldNtNtCsauO83Ko6oyK_5alloc6string6StringE3newB7_
FN:474,_RNvMs9_NtCs39mWnhFxKmJ_10autumn_web5hooksINtB5_10DraftFieldlE3newB7_
FN:491,_RNvMs9_NtCs39mWnhFxKmJ_10autumn_web5hooksINtB5_10DraftFieldlE3setB7_
FN:486,_RNvMs9_NtCs39mWnhFxKmJ_10autumn_web5hooksINtB5_10DraftFieldlE5afterB7_
FN:480,_RNvMs9_NtCs39mWnhFxKmJ_10autumn_web5hooksINtB5_10DraftFieldlE6beforeB7_
FN:511,_RNvMsa_NtCs39mWnhFxKmJ_10autumn_web5hooksINtB5_10DraftFieldNtNtCsauO83Ko6oyK_5alloc6string6StringE10changed_toB7_
FN:517,_RNvMsa_NtCs39mWnhFxKmJ_10autumn_web5hooksINtB5_10DraftFieldNtNtCsauO83Ko6oyK_5alloc6string6StringE12changed_fromB7_
FN:499,_RNvMsa_NtCs39mWnhFxKmJ_10autumn_web5hooksINtB5_10DraftFieldNtNtCsauO83Ko6oyK_5alloc6string6StringE7changedB7_
FN:499,_RNvMsa_NtCs39mWnhFxKmJ_10autumn_web5hooksINtB5_10DraftFieldlE7changedB7_
FN:505,_RNvMsa_NtCs39mWnhFxKmJ_10autumn_web5hooksINtB5_10DraftFieldlE9unchangedB7_
FN:531,_RNvMsb_NtCs39mWnhFxKmJ_10autumn_web5hooksINtB5_10DraftFieldINtNtCs4kUJL3MZFFz_4core6option6OptionlEE11was_clearedB7_
FN:525,_RNvMsb_NtCs39mWnhFxKmJ_10autumn_web5hooksINtB5_10DraftFieldINtNtCs4kUJL3MZFFz_4core6option6OptionlEE7was_setB7_
FN:195,_RNvXs1_NtCs39mWnhFxKmJ_10autumn_web5hooksINtB5_7NoHooksuuuENtNtCs4kUJL3MZFFz_4core7default7Default7defaultB7_
FN:145,_RNvYINtNtCs39mWnhFxKmJ_10autumn_web5hooks7NoHooksuuuENtB5_13MutationHooks13before_createB7_
FN:175,_RNvYINtNtCs39mWnhFxKmJ_10autumn_web5hooks7NoHooksuuuENtB5_13MutationHooks13before_deleteB7_
FN:163,_RNvYINtNtCs39mWnhFxKmJ_10autumn_web5hooks7NoHooksuuuENtB5_13MutationHooks13before_updateB7_
FN:408,_RNvMs8_NtCslNlzF6u6e2e_10autumn_web5hooksINtB5_11UpdateDraftNtCsgegzDust4lS_18db_hooks_lifecycle7ArticleE3newBY_
FN:429,_RNvMs8_NtCslNlzF6u6e2e_10autumn_web5hooksINtB5_11UpdateDraftNtCsgegzDust4lS_18db_hooks_lifecycle7ArticleE5afterBY_
FN:423,_RNvMs8_NtCslNlzF6u6e2e_10autumn_web5hooksINtB5_11UpdateDraftNtCsgegzDust4lS_18db_hooks_lifecycle7ArticleE6beforeBY_
FN:150,_RNCNvYINtNtCslNlzF6u6e2e_10autumn_web5hooks7NoHooksNtNtCsauO83Ko6oyK_5alloc6string6StringBN_BN_ENtB7_13MutationHooks13before_create0Cslvs7LjVdoJk_15hooks_lifecycle
FN:180,_RNCNvYINtNtCslNlzF6u6e2e_10autumn_web5hooks7NoHooksNtNtCsauO83Ko6oyK_5alloc6string6StringBN_BN_ENtB7_13MutationHooks13before_delete0Cslvs7LjVdoJk_15hooks_lifecycle
FN:171,_RNCNvYINtNtCslNlzF6u6e2e_10autumn_web5hooks7NoHooksNtNtCsauO83Ko6oyK_5alloc6string6StringBN_BN_ENtB7_13MutationHooks13before_update0Cslvs7LjVdoJk_15hooks_lifecycle
FN:267,_RNvMs3_NtCslNlzF6u6e2e_10autumn_web5hooksINtB5_5PatchNtNtCsauO83Ko6oyK_5alloc6string6StringE11into_optionCslvs7LjVdoJk_15hooks_lifecycle
FN:236,_RNvMs3_NtCslNlzF6u6e2e_10autumn_web5hooksINtB5_5PatchNtNtCsauO83Ko6oyK_5alloc6string6StringE12is_unchangedCslvs7LjVdoJk_15hooks_lifecycle
FN:267,_RNvMs3_NtCslNlzF6u6e2e_10autumn_web5hooksINtB5_5PatchlE11into_optionCslvs7LjVdoJk_15hooks_lifecycle
FN:236,_RNvMs3_NtCslNlzF6u6e2e_10autumn_web5hooksINtB5_5PatchlE12is_unchangedCslvs7LjVdoJk_15hooks_lifecycle
FN:254,_RNvMs3_NtCslNlzF6u6e2e_10autumn_web5hooksINtB5_5PatchlE6as_setCslvs7LjVdoJk_15hooks_lifecycle
FN:242,_RNvMs3_NtCslNlzF6u6e2e_10autumn_web5hooksINtB5_5PatchlE6is_setCslvs7LjVdoJk_15hooks_lifecycle
FN:248,_RNvMs3_NtCslNlzF6u6e2e_10autumn_web5hooksINtB5_5PatchlE8is_clearCslvs7LjVdoJk_15hooks_lifecycle
FN:338,_RNvMs6_NtCslNlzF6u6e2e_10autumn_web5hooksINtB5_9FieldDiffNtNtCsauO83Ko6oyK_5alloc6string6StringE10changed_toCslvs7LjVdoJk_15hooks_lifecycle
FN:344,_RNvMs6_NtCslNlzF6u6e2e_10autumn_web5hooksINtB5_9FieldDiffNtNtCsauO83Ko6oyK_5alloc6string6StringE12changed_fromCslvs7LjVdoJk_15hooks_lifecycle
FN:308,_RNvMs6_NtCslNlzF6u6e2e_10autumn_web5hooksINtB5_9FieldDiffNtNtCsauO83Ko6oyK_5alloc6string6StringE3newCslvs7LjVdoJk_15hooks_lifecycle
FN:349,_RNvMs6_NtCslNlzF6u6e2e_10autumn_web5hooksINtB5_9FieldDiffNtNtCsauO83Ko6oyK_5alloc6string6StringE3setCslvs7LjVdoJk_15hooks_lifecycle
FN:326,_RNvMs6_NtCslNlzF6u6e2e_10autumn_web5hooksINtB5_9FieldDiffNtNtCsauO83Ko6oyK_5alloc6string6StringE7changedCslvs7LjVdoJk_15hooks_lifecycle
FN:332,_RNvMs6_NtCslNlzF6u6e2e_10autumn_web5hooksINtB5_9FieldDiffNtNtCsauO83Ko6oyK_5alloc6string6StringE9unchangedCslvs7LjVdoJk_15hooks_lifecycle
FN:408,_RNvMs8_NtCslNlzF6u6e2e_10autumn_web5hooksINtB5_11UpdateDraftNtNtCsauO83Ko6oyK_5alloc6string6StringE3newCslvs7LjVdoJk_15hooks_lifecycle
FN:195,_RNvXs1_NtCslNlzF6u6e2e_10autumn_web5hooksINtB5_7NoHooksNtNtCsauO83Ko6oyK_5alloc6string6StringBR_BR_ENtNtCs4kUJL3MZFFz_4core7default7Default7defaultCslvs7LjVdoJk_15hooks_lifecycle
FN:145,_RNvYINtNtCslNlzF6u6e2e_10autumn_web5hooks7NoHooksNtNtCsauO83Ko6oyK_5alloc6string6StringBL_BL_ENtB5_13MutationHooks13before_createCslvs7LjVdoJk_15hooks_lifecycle
FN:175,_RNvYINtNtCslNlzF6u6e2e_10autumn_web5hooks7NoHooksNtNtCsauO83Ko6oyK_5alloc6string6StringBL_BL_ENtB5_13MutationHooks13before_deleteCslvs7LjVdoJk_15hooks_lifecycle
FN:163,_RNvYINtNtCslNlzF6u6e2e_10autumn_web5hooks7NoHooksNtNtCsauO83Ko6oyK_5alloc6string6StringBL_BL_ENtB5_13MutationHooks13before_updateCslvs7LjVdoJk_15hooks_lifecycle
FNDA:0,_RINvXININtCslNlzF6u6e2e_10autumn_web5hookss4_0pEINtB6_5PatchpENtNtCsdBCzScGN83d_10serde_core3ser9Serialize9serializepEB8_
FNDA:0,_RINvXININtCslNlzF6u6e2e_10autumn_web5hookss5_0pEINtB6_5PatchpENtNtCsdBCzScGN83d_10serde_core2de11Deserialize11deserializepEB8_
FNDA:0,_RNCNvYpNtNtCslNlzF6u6e2e_10autumn_web5hooks13MutationHooks13before_create0B9_
FNDA:0,_RNCNvYpNtNtCslNlzF6u6e2e_10autumn_web5hooks13MutationHooks13before_delete0B9_
FNDA:0,_RNCNvYpNtNtCslNlzF6u6e2e_10autumn_web5hooks13MutationHooks13before_update0B9_
FNDA:0,_RNvMs3_NtCslNlzF6u6e2e_10autumn_web5hooksINtB5_5PatchpE11into_optionB7_
FNDA:0,_RNvMs3_NtCslNlzF6u6e2e_10autumn_web5hooksINtB5_5PatchpE12is_unchangedB7_
FNDA:0,_RNvMs3_NtCslNlzF6u6e2e_10autumn_web5hooksINtB5_5PatchpE6as_setB7_
FNDA:0,_RNvMs3_NtCslNlzF6u6e2e_10autumn_web5hooksINtB5_5PatchpE6is_setB7_
FNDA:0,_RNvMs3_NtCslNlzF6u6e2e_10autumn_web5hooksINtB5_5PatchpE8is_clearB7_
FNDA:0,_RNvMs6_NtCslNlzF6u6e2e_10autumn_web5hooksINtB5_9FieldDiffpE10changed_toB7_
FNDA:0,_RNvMs6_NtCslNlzF6u6e2e_10autumn_web5hooksINtB5_9FieldDiffpE12changed_fromB7_
FNDA:0,_RNvMs6_NtCslNlzF6u6e2e_10autumn_web5hooksINtB5_9FieldDiffpE3newB7_
FNDA:0,_RNvMs6_NtCslNlzF6u6e2e_10autumn_web5hooksINtB5_9FieldDiffpE3setB7_
FNDA:0,_RNvMs6_NtCslNlzF6u6e2e_10autumn_web5hooksINtB5_9FieldDiffpE5afterB7_
FNDA:0,_RNvMs6_NtCslNlzF6u6e2e_10autumn_web5hooksINtB5_9FieldDiffpE6beforeB7_
FNDA:0,_RNvMs6_NtCslNlzF6u6e2e_10autumn_web5hooksINtB5_9FieldDiffpE7changedB7_
FNDA:0,_RNvMs6_NtCslNlzF6u6e2e_10autumn_web5hooksINtB5_9FieldDiffpE9unchangedB7_
FNDA:0,_RNvMs7_NtCslNlzF6u6e2e_10autumn_web5hooksINtB5_9FieldDiffINtNtCs4kUJL3MZFFz_4core6option6OptionpEE11was_clearedB7_
FNDA:0,_RNvMs7_NtCslNlzF6u6e2e_10autumn_web5hooksINtB5_9FieldDiffINtNtCs4kUJL3MZFFz_4core6option6OptionpEE7was_setB7_
FNDA:0,_RNvMs8_NtCslNlzF6u6e2e_10autumn_web5hooksINtB5_11UpdateDraftpE10into_afterB7_
FNDA:0,_RNvMs8_NtCslNlzF6u6e2e_10autumn_web5hooksINtB5_11UpdateDraftpE16new_with_changesB7_
FNDA:0,_RNvMs8_NtCslNlzF6u6e2e_10autumn_web5hooksINtB5_11UpdateDraftpE3newB7_
FNDA:0,_RNvMs8_NtCslNlzF6u6e2e_10autumn_web5hooksINtB5_11UpdateDraftpE5afterB7_
FNDA:0,_RNvMs8_NtCslNlzF6u6e2e_10autumn_web5hooksINtB5_11UpdateDraftpE6beforeB7_
FNDA:0,_RNvMs8_NtCslNlzF6u6e2e_10autumn_web5hooksINtB5_11UpdateDraftpE9after_mutB7_
FNDA:0,_RNvMs9_NtCslNlzF6u6e2e_10autumn_web5hooksINtB5_10DraftFieldpE3newB7_
FNDA:0,_RNvMs9_NtCslNlzF6u6e2e_10autumn_web5hooksINtB5_10DraftFieldpE3setB7_
FNDA:0,_RNvMs9_NtCslNlzF6u6e2e_10autumn_web5hooksINtB5_10DraftFieldpE5afterB7_
FNDA:0,_RNvMs9_NtCslNlzF6u6e2e_10autumn_web5hooksINtB5_10DraftFieldpE6beforeB7_
FNDA:0,_RNvMsa_NtCslNlzF6u6e2e_10autumn_web5hooksINtB5_10DraftFieldpE10changed_toB7_
FNDA:0,_RNvMsa_NtCslNlzF6u6e2e_10autumn_web5hooksINtB5_10DraftFieldpE12changed_fromB7_
FNDA:0,_RNvMsa_NtCslNlzF6u6e2e_10autumn_web5hooksINtB5_10DraftFieldpE7changedB7_
FNDA:0,_RNvMsa_NtCslNlzF6u6e2e_10autumn_web5hooksINtB5_10DraftFieldpE9unchangedB7_
FNDA:0,_RNvMsb_NtCslNlzF6u6e2e_10autumn_web5hooksINtB5_10DraftFieldINtNtCs4kUJL3MZFFz_4core6option6OptionpEE11was_clearedB7_
FNDA:0,_RNvMsb_NtCslNlzF6u6e2e_10autumn_web5hooksINtB5_10DraftFieldINtNtCs4kUJL3MZFFz_4core6option6OptionpEE7was_setB7_
FNDA:0,_RNvXININtCslNlzF6u6e2e_10autumn_web5hookss1_0pppEINtB5_7NoHookspppENtNtCs4kUJL3MZFFz_4core7default7Default7defaultB7_
FNDA:0,_RNvYpNtNtCslNlzF6u6e2e_10autumn_web5hooks13MutationHooks13before_createB7_
FNDA:0,_RNvYpNtNtCslNlzF6u6e2e_10autumn_web5hooks13MutationHooks13before_deleteB7_
FNDA:0,_RNvYpNtNtCslNlzF6u6e2e_10autumn_web5hooks13MutationHooks13before_updateB7_
FNDA:6,_RNvMNtCslNlzF6u6e2e_10autumn_web5hooksNtB2_10MutationOp6as_str
FNDA:2,_RNvMs0_NtCslNlzF6u6e2e_10autumn_web5hooksNtB5_15MutationContext3new
FNDA:3,_RNvXs_NtCslNlzF6u6e2e_10autumn_web5hooksNtB4_10MutationOpNtNtCs4kUJL3MZFFz_4core3fmt7Display3fmt
FNDA:1,_RNvNtNtCs39mWnhFxKmJ_10autumn_web5hooks5testss_18field_diff_changed
FNDA:1,_RNvNtNtCs39mWnhFxKmJ_10autumn_web5hooks5testss_18mutation_op_as_str
FNDA:1,_RNvNtNtCs39mWnhFxKmJ_10autumn_web5hooks5testss_19draft_field_changed
FNDA:1,_RNvNtNtCs39mWnhFxKmJ_10autumn_web5hooks5testss_19mutation_op_display
FNDA:1,_RNvNtNtCs39mWnhFxKmJ_10autumn_web5hooks5testss_20field_diff_unchanged
FNDA:1,_RNvNtNtCs39mWnhFxKmJ_10autumn_web5hooks5testss_20patch_clear_is_clear
FNDA:1,_RNvNtNtCs39mWnhFxKmJ_10autumn_web5hooks5testss_21draft_field_unchanged
FNDA:1,_RNvNtNtCs39mWnhFxKmJ_10autumn_web5hooks5testss_21field_diff_changed_to
FNDA:1,_RNvNtNtCs39mWnhFxKmJ_10autumn_web5hooks5testss_21patch_into_option_set
FNDA:1,_RNvNtNtCs39mWnhFxKmJ_10autumn_web5hooks5testss_21patch_set_holds_value
FNDA:1,_RNvNtNtCs39mWnhFxKmJ_10autumn_web5hooks5testss_22draft_field_changed_to
FNDA:1,_RNvNtNtCs39mWnhFxKmJ_10autumn_web5hooks5testss_22update_draft_after_mut
FNDA:1,_RNvNtNtCs39mWnhFxKmJ_10autumn_web5hooks5testss_23field_diff_changed_from
FNDA:1,_RNvNtNtCs39mWnhFxKmJ_10autumn_web5hooks5testss_23patch_into_option_clear
FNDA:1,_RNvNtNtCs39mWnhFxKmJ_10autumn_web5hooks5testss_23update_draft_into_after
FNDA:1,_RNvNtNtCs39mWnhFxKmJ_10autumn_web5hooks5testss_23update_draft_new_clones
FNDA:1,_RNvNtNtCs39mWnhFxKmJ_10autumn_web5hooks5testss_24draft_field_before_after
FNDA:1,_RNvNtNtCs39mWnhFxKmJ_10autumn_web5hooks5testss_24draft_field_changed_from
FNDA:1,_RNvNtNtCs39mWnhFxKmJ_10autumn_web5hooks5testss_25field_diff_option_was_set
FNDA:1,_RNvNtNtCs39mWnhFxKmJ_10autumn_web5hooks5testss_25patch_serde_set_roundtrip
FNDA:1,_RNvNtNtCs39mWnhFxKmJ_10autumn_web5hooks5testss_25update_draft_before_after
FNDA:1,_RNvNtNtCs39mWnhFxKmJ_10autumn_web5hooks5testss_26draft_field_option_was_set
FNDA:1,_RNvNtNtCs39mWnhFxKmJ_10autumn_web5hooks5testss_26patch_unchanged_is_default
FNDA:1,_RNvNtNtCs39mWnhFxKmJ_10autumn_web5hooks5testss_27mutation_context_with_actor
FNDA:1,_RNvNtNtCs39mWnhFxKmJ_10autumn_web5hooks5testss_27patch_into_option_unchanged
FNDA:1,_RNvNtNtCs39mWnhFxKmJ_10autumn_web5hooks5testss_28field_diff_set_updates_after
FNDA:1,_RNvNtNtCs39mWnhFxKmJ_10autumn_web5hooks5testss_29draft_field_set_mutates_after
FNDA:1,_RNvNtNtCs39mWnhFxKmJ_10autumn_web5hooks5testss_29field_diff_option_was_cleared
FNDA:1,_RNvNtNtCs39mWnhFxKmJ_10autumn_web5hooks5testss_29no_hooks_all_methods_are_noop
FNDA:1,_RNvNtNtCs39mWnhFxKmJ_10autumn_web5hooks5testss_30draft_field_option_was_cleared
FNDA:1,_RNvNtNtCs39mWnhFxKmJ_10autumn_web5hooks5testss_31mutation_context_auto_populates
FNDA:1,_RNvNtNtCs39mWnhFxKmJ_10autumn_web5hooks5testss_34patch_serde_explicit_null_is_clear
FNDA:1,_RNvNtNtCs39mWnhFxKmJ_10autumn_web5hooks5testss_36patch_serde_clear_serializes_as_null
FNDA:1,_RNvNtNtCs39mWnhFxKmJ_10autumn_web5hooks5testss_37patch_serde_absent_field_is_unchanged
FNDA:1,_RNvNtNtCs39mWnhFxKmJ_10autumn_web5hooks5testss_38patch_serde_null_deserializes_as_clear
FNDA:1,_RNCNvNtNtCs39mWnhFxKmJ_10autumn_web5hooks5testss_29no_hooks_all_methods_are_noop0B7_
FNDA:4,_RNvMNtCs39mWnhFxKmJ_10autumn_web5hooksNtB2_10MutationOp6as_str
FNDA:3,_RNvMs0_NtCs39mWnhFxKmJ_10autumn_web5hooksNtB5_15MutationContext3new
FNDA:1,_RNvXs_NtCs39mWnhFxKmJ_10autumn_web5hooksNtB4_10MutationOpNtNtCs4kUJL3MZFFz_4core3fmt7Display3fmt
FNDA:2,_RINvXs4_NtCs39mWnhFxKmJ_10autumn_web5hooksINtB6_5PatchlENtNtCsdBCzScGN83d_10serde_core3ser9Serialize9serializeQINtNtCsi468O0DAOwe_10serde_json3ser10SerializerQINtNtCsauO83Ko6oyK_5alloc3vec3VechEEEB8_
FNDA:2,_RINvXs5_NtCs39mWnhFxKmJ_10autumn_web5hooksINtB6_5PatchNtNtCsauO83Ko6oyK_5alloc6string6StringENtNtCsdBCzScGN83d_10serde_core2de11Deserialize11deserializeQINtNtCsi468O0DAOwe_10serde_json2de12DeserializerNtNtB2w_4read7StrReadEEB8_
FNDA:2,_RINvXs5_NtCs39mWnhFxKmJ_10autumn_web5hooksINtB6_5PatchlENtNtCsdBCzScGN83d_10serde_core2de11Deserialize11deserializeQINtNtCsi468O0DAOwe_10serde_json2de12DeserializerNtNtB1V_4read7StrReadEEB8_
FNDA:1,_RNCNvYINtNtCs39mWnhFxKmJ_10autumn_web5hooks7NoHooksuuuENtB7_13MutationHooks13before_create0B9_
FNDA:1,_RNCNvYINtNtCs39mWnhFxKmJ_10autumn_web5hooks7NoHooksuuuENtB7_13MutationHooks13before_delete0B9_
FNDA:1,_RNCNvYINtNtCs39mWnhFxKmJ_10autumn_web5hooks7NoHooksuuuENtB7_13MutationHooks13before_update0B9_
FNDA:1,_RNvMs3_NtCs39mWnhFxKmJ_10autumn_web5hooksINtB5_5PatchNtNtCsauO83Ko6oyK_5alloc6string6StringE12is_unchangedB7_
FNDA:1,_RNvMs3_NtCs39mWnhFxKmJ_10autumn_web5hooksINtB5_5PatchNtNtCsauO83Ko6oyK_5alloc6string6StringE6is_setB7_
FNDA:1,_RNvMs3_NtCs39mWnhFxKmJ_10autumn_web5hooksINtB5_5PatchNtNtCsauO83Ko6oyK_5alloc6string6StringE8is_clearB7_
FNDA:1,_RNvMs3_NtCs39mWnhFxKmJ_10autumn_web5hooksINtB5_5PatchReE12is_unchangedB7_
FNDA:1,_RNvMs3_NtCs39mWnhFxKmJ_10autumn_web5hooksINtB5_5PatchReE6as_setB7_
FNDA:1,_RNvMs3_NtCs39mWnhFxKmJ_10autumn_web5hooksINtB5_5PatchReE6is_setB7_
FNDA:1,_RNvMs3_NtCs39mWnhFxKmJ_10autumn_web5hooksINtB5_5PatchReE8is_clearB7_
FNDA:3,_RNvMs3_NtCs39mWnhFxKmJ_10autumn_web5hooksINtB5_5PatchlE11into_optionB7_
FNDA:1,_RNvMs3_NtCs39mWnhFxKmJ_10autumn_web5hooksINtB5_5PatchlE12is_unchangedB7_
FNDA:1,_RNvMs3_NtCs39mWnhFxKmJ_10autumn_web5hooksINtB5_5PatchlE6is_setB7_
FNDA:1,_RNvMs3_NtCs39mWnhFxKmJ_10autumn_web5hooksINtB5_5PatchlE8is_clearB7_
FNDA:2,_RNvMs6_NtCs39mWnhFxKmJ_10autumn_web5hooksINtB5_9FieldDiffINtNtCs4kUJL3MZFFz_4core6option6OptionlEE3newB7_
FNDA:1,_RNvMs6_NtCs39mWnhFxKmJ_10autumn_web5hooksINtB5_9FieldDifflE10changed_toB7_
FNDA:1,_RNvMs6_NtCs39mWnhFxKmJ_10autumn_web5hooksINtB5_9FieldDifflE12changed_fromB7_
FNDA:5,_RNvMs6_NtCs39mWnhFxKmJ_10autumn_web5hooksINtB5_9FieldDifflE3newB7_
FNDA:1,_RNvMs6_NtCs39mWnhFxKmJ_10autumn_web5hooksINtB5_9FieldDifflE3setB7_
FNDA:1,_RNvMs6_NtCs39mWnhFxKmJ_10autumn_web5hooksINtB5_9FieldDifflE5afterB7_
FNDA:1,_RNvMs6_NtCs39mWnhFxKmJ_10autumn_web5hooksINtB5_9FieldDifflE6beforeB7_
FNDA:5,_RNvMs6_NtCs39mWnhFxKmJ_10autumn_web5hooksINtB5_9FieldDifflE7changedB7_
FNDA:2,_RNvMs6_NtCs39mWnhFxKmJ_10autumn_web5hooksINtB5_9FieldDifflE9unchangedB7_
FNDA:1,_RNvMs7_NtCs39mWnhFxKmJ_10autumn_web5hooksINtB5_9FieldDiffINtNtCs4kUJL3MZFFz_4core6option6OptionlEE11was_clearedB7_
FNDA:1,_RNvMs7_NtCs39mWnhFxKmJ_10autumn_web5hooksINtB5_9FieldDiffINtNtCs4kUJL3MZFFz_4core6option6OptionlEE7was_setB7_
FNDA:1,_RNvMs8_NtCs39mWnhFxKmJ_10autumn_web5hooksINtB5_11UpdateDraftNtNtCsauO83Ko6oyK_5alloc6string6StringE16new_with_changesB7_
FNDA:1,_RNvMs8_NtCs39mWnhFxKmJ_10autumn_web5hooksINtB5_11UpdateDraftNtNtCsauO83Ko6oyK_5alloc6string6StringE5afterB7_
FNDA:1,_RNvMs8_NtCs39mWnhFxKmJ_10autumn_web5hooksINtB5_11UpdateDraftNtNtCsauO83Ko6oyK_5alloc6string6StringE6beforeB7_
FNDA:1,_RNvMs8_NtCs39mWnhFxKmJ_10autumn_web5hooksINtB5_11UpdateDraftlE10into_afterB7_
FNDA:2,_RNvMs8_NtCs39mWnhFxKmJ_10autumn_web5hooksINtB5_11UpdateDraftlE16new_with_changesB7_
FNDA:1,_RNvMs8_NtCs39mWnhFxKmJ_10autumn_web5hooksINtB5_11UpdateDraftlE3newB7_
FNDA:2,_RNvMs8_NtCs39mWnhFxKmJ_10autumn_web5hooksINtB5_11UpdateDraftlE5afterB7_
FNDA:1,_RNvMs8_NtCs39mWnhFxKmJ_10autumn_web5hooksINtB5_11UpdateDraftlE6beforeB7_
FNDA:1,_RNvMs8_NtCs39mWnhFxKmJ_10autumn_web5hooksINtB5_11UpdateDraftlE9after_mutB7_
FNDA:1,_RNvMs8_NtCs39mWnhFxKmJ_10autumn_web5hooksINtB5_11UpdateDraftuE3newB7_
FNDA:2,_RNvMs9_NtCs39mWnhFxKmJ_10autumn_web5hooksINtB5_10DraftFieldINtNtCs4kUJL3MZFFz_4core6option6OptionlEE3newB7_
FNDA:2,_RNvMs9_NtCs39mWnhFxKmJ_10autumn_web5hooksINtB5_10DraftFieldNtNtCsauO83Ko6oyK_5alloc6string6StringE3newB7_
FNDA:4,_RNvMs9_NtCs39mWnhFxKmJ_10autumn_web5hooksINtB5_10DraftFieldlE3newB7_
FNDA:1,_RNvMs9_NtCs39mWnhFxKmJ_10autumn_web5hooksINtB5_10DraftFieldlE3setB7_
FNDA:2,_RNvMs9_NtCs39mWnhFxKmJ_10autumn_web5hooksINtB5_10DraftFieldlE5afterB7_
FNDA:1,_RNvMs9_NtCs39mWnhFxKmJ_10autumn_web5hooksINtB5_10DraftFieldlE6beforeB7_
FNDA:2,_RNvMsa_NtCs39mWnhFxKmJ_10autumn_web5hooksINtB5_10DraftFieldNtNtCsauO83Ko6oyK_5alloc6string6StringE10changed_toB7_
FNDA:2,_RNvMsa_NtCs39mWnhFxKmJ_10autumn_web5hooksINtB5_10DraftFieldNtNtCsauO83Ko6oyK_5alloc6string6StringE12changed_fromB7_
FNDA:4,_RNvMsa_NtCs39mWnhFxKmJ_10autumn_web5hooksINtB5_10DraftFieldNtNtCsauO83Ko6oyK_5alloc6string6StringE7changedB7_
FNDA:3,_RNvMsa_NtCs39mWnhFxKmJ_10autumn_web5hooksINtB5_10DraftFieldlE7changedB7_
FNDA:3,_RNvMsa_NtCs39mWnhFxKmJ_10autumn_web5hooksINtB5_10DraftFieldlE9unchangedB7_
FNDA:2,_RNvMsb_NtCs39mWnhFxKmJ_10autumn_web5hooksINtB5_10DraftFieldINtNtCs4kUJL3MZFFz_4core6option6OptionlEE11was_clearedB7_
FNDA:2,_RNvMsb_NtCs39mWnhFxKmJ_10autumn_web5hooksINtB5_10DraftFieldINtNtCs4kUJL3MZFFz_4core6option6OptionlEE7was_setB7_
FNDA:1,_RNvXs1_NtCs39mWnhFxKmJ_10autumn_web5hooksINtB5_7NoHooksuuuENtNtCs4kUJL3MZFFz_4core7default7Default7defaultB7_
FNDA:1,_RNvYINtNtCs39mWnhFxKmJ_10autumn_web5hooks7NoHooksuuuENtB5_13MutationHooks13before_createB7_
FNDA:1,_RNvYINtNtCs39mWnhFxKmJ_10autumn_web5hooks7NoHooksuuuENtB5_13MutationHooks13before_deleteB7_
FNDA:1,_RNvYINtNtCs39mWnhFxKmJ_10autumn_web5hooks7NoHooksuuuENtB5_13MutationHooks13before_updateB7_
FNDA:0,_RNvMs8_NtCslNlzF6u6e2e_10autumn_web5hooksINtB5_11UpdateDraftNtCsgegzDust4lS_18db_hooks_lifecycle7ArticleE3newBY_
FNDA:0,_RNvMs8_NtCslNlzF6u6e2e_10autumn_web5hooksINtB5_11UpdateDraftNtCsgegzDust4lS_18db_hooks_lifecycle7ArticleE5afterBY_
FNDA:0,_RNvMs8_NtCslNlzF6u6e2e_10autumn_web5hooksINtB5_11UpdateDraftNtCsgegzDust4lS_18db_hooks_lifecycle7ArticleE6beforeBY_
FNDA:1,_RNCNvYINtNtCslNlzF6u6e2e_10autumn_web5hooks7NoHooksNtNtCsauO83Ko6oyK_5alloc6string6StringBN_BN_ENtB7_13MutationHooks13before_create0Cslvs7LjVdoJk_15hooks_lifecycle
FNDA:1,_RNCNvYINtNtCslNlzF6u6e2e_10autumn_web5hooks7NoHooksNtNtCsauO83Ko6oyK_5alloc6string6StringBN_BN_ENtB7_13MutationHooks13before_delete0Cslvs7LjVdoJk_15hooks_lifecycle
FNDA:1,_RNCNvYINtNtCslNlzF6u6e2e_10autumn_web5hooks7NoHooksNtNtCsauO83Ko6oyK_5alloc6string6StringBN_BN_ENtB7_13MutationHooks13before_update0Cslvs7LjVdoJk_15hooks_lifecycle
FNDA:1,_RNvMs3_NtCslNlzF6u6e2e_10autumn_web5hooksINtB5_5PatchNtNtCsauO83Ko6oyK_5alloc6string6StringE11into_optionCslvs7LjVdoJk_15hooks_lifecycle
FNDA:1,_RNvMs3_NtCslNlzF6u6e2e_10autumn_web5hooksINtB5_5PatchNtNtCsauO83Ko6oyK_5alloc6string6StringE12is_unchangedCslvs7LjVdoJk_15hooks_lifecycle
FNDA:3,_RNvMs3_NtCslNlzF6u6e2e_10autumn_web5hooksINtB5_5PatchlE11into_optionCslvs7LjVdoJk_15hooks_lifecycle
FNDA:1,_RNvMs3_NtCslNlzF6u6e2e_10autumn_web5hooksINtB5_5PatchlE12is_unchangedCslvs7LjVdoJk_15hooks_lifecycle
FNDA:1,_RNvMs3_NtCslNlzF6u6e2e_10autumn_web5hooksINtB5_5PatchlE6as_setCslvs7LjVdoJk_15hooks_lifecycle
FNDA:1,_RNvMs3_NtCslNlzF6u6e2e_10autumn_web5hooksINtB5_5PatchlE6is_setCslvs7LjVdoJk_15hooks_lifecycle
FNDA:1,_RNvMs3_NtCslNlzF6u6e2e_10autumn_web5hooksINtB5_5PatchlE8is_clearCslvs7LjVdoJk_15hooks_lifecycle
FNDA:1,_RNvMs6_NtCslNlzF6u6e2e_10autumn_web5hooksINtB5_9FieldDiffNtNtCsauO83Ko6oyK_5alloc6string6StringE10changed_toCslvs7LjVdoJk_15hooks_lifecycle
FNDA:1,_RNvMs6_NtCslNlzF6u6e2e_10autumn_web5hooksINtB5_9FieldDiffNtNtCsauO83Ko6oyK_5alloc6string6StringE12changed_fromCslvs7LjVdoJk_15hooks_lifecycle
FNDA:1,_RNvMs6_NtCslNlzF6u6e2e_10autumn_web5hooksINtB5_9FieldDiffNtNtCsauO83Ko6oyK_5alloc6string6StringE3newCslvs7LjVdoJk_15hooks_lifecycle
FNDA:1,_RNvMs6_NtCslNlzF6u6e2e_10autumn_web5hooksINtB5_9FieldDiffNtNtCsauO83Ko6oyK_5alloc6string6StringE3setCslvs7LjVdoJk_15hooks_lifecycle
FNDA:3,_RNvMs6_NtCslNlzF6u6e2e_10autumn_web5hooksINtB5_9FieldDiffNtNtCsauO83Ko6oyK_5alloc6string6StringE7changedCslvs7LjVdoJk_15hooks_lifecycle
FNDA:1,_RNvMs6_NtCslNlzF6u6e2e_10autumn_web5hooksINtB5_9FieldDiffNtNtCsauO83Ko6oyK_5alloc6string6StringE9unchangedCslvs7LjVdoJk_15hooks_lifecycle
FNDA:1,_RNvMs8_NtCslNlzF6u6e2e_10autumn_web5hooksINtB5_11UpdateDraftNtNtCsauO83Ko6oyK_5alloc6string6StringE3newCslvs7LjVdoJk_15hooks_lifecycle
FNDA:1,_RNvXs1_NtCslNlzF6u6e2e_10autumn_web5hooksINtB5_7NoHooksNtNtCsauO83Ko6oyK_5alloc6string6StringBR_BR_ENtNtCs4kUJL3MZFFz_4core7default7Default7defaultCslvs7LjVdoJk_15hooks_lifecycle
FNDA:1,_RNvYINtNtCslNlzF6u6e2e_10autumn_web5hooks7NoHooksNtNtCsauO83Ko6oyK_5alloc6string6StringBL_BL_ENtB5_13MutationHooks13before_createCslvs7LjVdoJk_15hooks_lifecycle
FNDA:1,_RNvYINtNtCslNlzF6u6e2e_10autumn_web5hooks7NoHooksNtNtCsauO83Ko6oyK_5alloc6string6StringBL_BL_ENtB5_13MutationHooks13before_deleteCslvs7LjVdoJk_15hooks_lifecycle
FNDA:1,_RNvYINtNtCslNlzF6u6e2e_10autumn_web5hooks7NoHooksNtNtCsauO83Ko6oyK_5alloc6string6StringBL_BL_ENtB5_13MutationHooks13before_updateCslvs7LjVdoJk_15hooks_lifecycle
FNF:79
FNH:79
DA:72,10
DA:73,10
DA:74,4
DA:75,3
DA:76,3
DA:78,10
DA:82,4
DA:83,4
DA:84,4
DA:109,5
DA:110,5
DA:111,5
DA:112,5
DA:113,5
DA:114,5
DA:115,5
DA:116,5
DA:145,2
DA:146,2
DA:147,2
DA:148,2
DA:149,2
DA:150,2
DA:151,2
DA:163,2
DA:164,2
DA:165,2
DA:166,2
DA:167,2
DA:168,2
DA:169,2
DA:171,2
DA:172,2
DA:175,2
DA:176,2
DA:177,2
DA:178,2
DA:179,2
DA:180,2
DA:181,2
DA:195,2
DA:196,2
DA:197,2
DA:198,2
DA:199,2
DA:236,5
DA:237,5
DA:238,5
DA:242,4
DA:243,4
DA:244,4
DA:248,4
DA:249,4
DA:250,4
DA:254,2
DA:255,2
DA:256,2
DA:257,0
DA:259,2
DA:267,7
DA:268,7
DA:269,2
DA:270,2
DA:271,3
DA:273,7
DA:277,2
DA:278,2
DA:279,1
DA:280,1
DA:282,2
DA:286,4
DA:289,4
DA:290,4
DA:291,4
DA:308,8
DA:309,8
DA:310,8
DA:314,1
DA:315,1
DA:316,1
DA:320,1
DA:321,1
DA:322,1
DA:326,8
DA:327,8
DA:328,8
DA:332,3
DA:333,3
DA:334,3
DA:338,2
DA:339,2
DA:340,2
DA:344,2
DA:345,2
DA:346,2
DA:349,2
DA:350,2
DA:351,2
DA:357,1
DA:358,1
DA:359,1
DA:363,1
DA:364,1
DA:365,1
DA:408,3
DA:409,3
DA:410,3
DA:411,3
DA:417,3
DA:418,3
DA:419,3
DA:423,2
DA:424,2
DA:425,2
DA:429,3
DA:430,3
DA:431,3
DA:437,1
DA:438,1
DA:439,1
DA:443,1
DA:444,1
DA:445,1
DA:474,8
DA:475,8
DA:476,8
DA:480,1
DA:481,1
DA:482,1
DA:486,2
DA:487,2
DA:488,2
DA:491,1
DA:492,1
DA:493,1
DA:499,7
DA:500,7
DA:501,7
DA:505,3
DA:506,3
DA:507,3
DA:511,2
DA:512,2
DA:513,2
DA:517,2
DA:518,2
DA:519,2
DA:525,2
DA:526,2
DA:527,2
DA:531,2
DA:532,2
DA:533,2
DA:543,1
DA:544,1
DA:545,1
DA:546,1
DA:547,1
DA:548,1
DA:551,1
DA:552,1
DA:553,1
DA:554,1
DA:555,1
DA:556,1
DA:557,1
DA:560,1
DA:561,1
DA:562,1
DA:563,1
DA:564,1
DA:565,1
DA:568,1
DA:569,1
DA:570,1
DA:573,1
DA:574,1
DA:575,1
DA:578,1
DA:579,1
DA:580,1
DA:585,1
DA:586,1
DA:587,1
DA:588,1
DA:589,1
DA:592,1
DA:593,1
DA:594,1
DA:595,1
DA:598,1
DA:599,1
DA:600,1
DA:601,1
DA:604,1
DA:605,1
DA:606,1
DA:607,1
DA:610,1
DA:611,1
DA:612,1
DA:613,1
DA:614,1
DA:615,1
DA:616,1
DA:617,1
DA:620,1
DA:621,1
DA:622,1
DA:623,1
DA:626,1
DA:627,1
DA:628,1
DA:629,1
DA:634,1
DA:635,1
DA:636,1
DA:637,1
DA:638,1
DA:641,1
DA:642,1
DA:643,1
DA:648,1
DA:649,1
DA:650,1
DA:651,1
DA:653,1
DA:654,1
DA:655,1
DA:658,1
DA:659,1
DA:660,1
DA:661,1
DA:662,1
DA:667,1
DA:668,1
DA:669,1
DA:670,1
DA:671,1
DA:672,1
DA:674,1
DA:675,1
DA:676,1
DA:677,1
DA:682,1
DA:683,1
DA:684,1
DA:685,1
DA:686,1
DA:687,1
DA:688,1
DA:691,1
DA:692,1
DA:693,1
DA:694,1
DA:695,1
DA:698,1
DA:699,1
DA:700,1
DA:701,1
DA:704,1
DA:712,1
DA:713,1
DA:714,1
DA:715,1
DA:718,1
DA:724,1
DA:725,1
DA:726,1
DA:731,1
DA:732,1
DA:733,1
DA:734,1
DA:735,1
DA:738,1
DA:739,1
DA:740,1
DA:741,1
DA:744,1
DA:745,1
DA:746,1
DA:747,1
DA:748,1
DA:751,1
DA:752,1
DA:753,1
DA:754,1
DA:755,1
DA:760,1
DA:761,1
DA:762,1
DA:763,1
DA:764,1
DA:765,1
DA:766,1
DA:769,1
DA:770,1
DA:771,1
DA:772,1
DA:773,1
DA:774,1
DA:775,1
DA:778,1
DA:779,1
DA:780,1
DA:781,1
DA:782,1
DA:783,1
DA:784,1
DA:787,1
DA:788,1
DA:789,1
DA:790,1
DA:791,1
DA:792,1
DA:793,1
DA:796,1
DA:797,1
DA:798,1
DA:799,1
DA:800,1
DA:801,1
DA:802,1
DA:805,1
DA:806,1
DA:807,1
DA:809,1
DA:810,1
DA:811,1
DA:812,1
DA:813,1
DA:816,1
DA:817,1
DA:820,1
DA:821,1
DA:822,1
DA:823,1
DA:824,1
DA:825,1
DA:826,1
DA:829,1
DA:830,1
DA:831,1
DA:832,1
DA:833,1
DA:834,1
DA:835,1
BRF:0
BRH:0
LF:349
LH:348
end_of_record
SF:/app/autumn/src/htmx.rs
FN:151,_RINvNtCslNlzF6u6e2e_10autumn_web4htmx16append_hx_headerpEB4_
FN:72,_RNCNCNCNvXININtCslNlzF6u6e2e_10autumn_web4htmx0pENtBb_9HxRequestINtNtCsemqjQd4VUoN_9axum_core7extract16FromRequestPartspE18from_request_parts000Bd_
FN:76,_RNCNCNCNvXININtCslNlzF6u6e2e_10autumn_web4htmx0pENtBb_9HxRequestINtNtCsemqjQd4VUoN_9axum_core7extract16FromRequestPartspE18from_request_parts0s_00Bd_
FN:68,_RNCNCNvXININtCslNlzF6u6e2e_10autumn_web4htmx0pENtB9_9HxRequestINtNtCsemqjQd4VUoN_9axum_core7extract16FromRequestPartspE18from_request_parts00Bb_
FN:76,_RNCNCNvXININtCslNlzF6u6e2e_10autumn_web4htmx0pENtB9_9HxRequestINtNtCsemqjQd4VUoN_9axum_core7extract16FromRequestPartspE18from_request_parts0s_0Bb_
FN:67,_RNCNvXININtCslNlzF6u6e2e_10autumn_web4htmx0pENtB7_9HxRequestINtNtCsemqjQd4VUoN_9axum_core7extract16FromRequestPartspE18from_request_parts0B9_
FN:67,_RNvXININtCslNlzF6u6e2e_10autumn_web4htmx0pENtB5_9HxRequestINtNtCsemqjQd4VUoN_9axum_core7extract16FromRequestPartspE18from_request_partsB7_
FN:114,_RNvYpNtNtCslNlzF6u6e2e_10autumn_web4htmx13HxResponseExt10hx_refreshB7_
FN:134,_RNvYpNtNtCslNlzF6u6e2e_10autumn_web4htmx13HxResponseExt10hx_triggerB7_
FN:99,_RNvYpNtNtCslNlzF6u6e2e_10autumn_web4htmx13HxResponseExt11hx_locationB7_
FN:104,_RNvYpNtNtCslNlzF6u6e2e_10autumn_web4htmx13HxResponseExt11hx_push_urlB7_
FN:109,_RNvYpNtNtCslNlzF6u6e2e_10autumn_web4htmx13HxResponseExt11hx_redirectB7_
FN:129,_RNvYpNtNtCslNlzF6u6e2e_10autumn_web4htmx13HxResponseExt11hx_retargetB7_
FN:119,_RNvYpNtNtCslNlzF6u6e2e_10autumn_web4htmx13HxResponseExt14hx_replace_urlB7_
FN:144,_RNvYpNtNtCslNlzF6u6e2e_10autumn_web4htmx13HxResponseExt21hx_trigger_after_swapB7_
FN:139,_RNvYpNtNtCslNlzF6u6e2e_10autumn_web4htmx13HxResponseExt23hx_trigger_after_settleB7_
FN:124,_RNvYpNtNtCslNlzF6u6e2e_10autumn_web4htmx13HxResponseExt9hx_reswapB7_
FN:214,_RNCNvNtNtCs39mWnhFxKmJ_10autumn_web4htmx5testss_28hx_response_ext_adds_headers0B7_
FN:185,_RNCNvNtNtCs39mWnhFxKmJ_10autumn_web4htmx5testss_35hx_request_extractor_parses_headers0B7_
FN:284,_RNCNvNtNtCs39mWnhFxKmJ_10autumn_web4htmx5testss_44hx_request_extractor_handles_missing_headers0B7_
FN:249,_RNCNvNtNtCs39mWnhFxKmJ_10autumn_web4htmx5testss_45hx_response_ext_ignores_invalid_header_values0B7_
FN:166,_RNvNtNtCs39mWnhFxKmJ_10autumn_web4htmx5testss_20htmx_js_is_not_empty
FN:214,_RNvNtNtCs39mWnhFxKmJ_10autumn_web4htmx5testss_28hx_response_ext_adds_headers
FN:171,_RNvNtNtCs39mWnhFxKmJ_10autumn_web4htmx5testss_29htmx_js_looks_like_javascript
FN:180,_RNvNtNtCs39mWnhFxKmJ_10autumn_web4htmx5testss_29htmx_version_matches_expected
FN:185,_RNvNtNtCs39mWnhFxKmJ_10autumn_web4htmx5testss_35hx_request_extractor_parses_headers
FN:284,_RNvNtNtCs39mWnhFxKmJ_10autumn_web4htmx5testss_44hx_request_extractor_handles_missing_headers
FN:249,_RNvNtNtCs39mWnhFxKmJ_10autumn_web4htmx5testss_45hx_response_ext_ignores_invalid_header_values
FN:151,_RINvNtCs39mWnhFxKmJ_10autumn_web4htmx16append_hx_headerINtNtCs9nCgvg33Qqo_4http8response8ResponseNtNtCsemqjQd4VUoN_9axum_core4body4BodyEEB4_
FN:151,_RINvNtCs39mWnhFxKmJ_10autumn_web4htmx16append_hx_headerReEB4_
FN:72,_RNCNCNCNvXNtCs39mWnhFxKmJ_10autumn_web4htmxNtB8_9HxRequestINtNtCsemqjQd4VUoN_9axum_core7extract16FromRequestPartsuE18from_request_parts000Ba_
FN:76,_RNCNCNCNvXNtCs39mWnhFxKmJ_10autumn_web4htmxNtB8_9HxRequestINtNtCsemqjQd4VUoN_9axum_core7extract16FromRequestPartsuE18from_request_parts0s_00Ba_
FN:68,_RNCNCNvXNtCs39mWnhFxKmJ_10autumn_web4htmxNtB6_9HxRequestINtNtCsemqjQd4VUoN_9axum_core7extract16FromRequestPartsuE18from_request_parts00B8_
FN:76,_RNCNCNvXNtCs39mWnhFxKmJ_10autumn_web4htmxNtB6_9HxRequestINtNtCsemqjQd4VUoN_9axum_core7extract16FromRequestPartsuE18from_request_parts0s_0B8_
FN:67,_RNCNvXNtCs39mWnhFxKmJ_10autumn_web4htmxNtB4_9HxRequestINtNtCsemqjQd4VUoN_9axum_core7extract16FromRequestPartsuE18from_request_parts0B6_
FN:67,_RNvXNtCs39mWnhFxKmJ_10autumn_web4htmxNtB2_9HxRequestINtNtCsemqjQd4VUoN_9axum_core7extract16FromRequestPartsuE18from_request_partsB4_
FN:99,_RNvYReNtNtCs39mWnhFxKmJ_10autumn_web4htmx13HxResponseExt11hx_locationB8_
FN:114,_RNvYINtNtCs9nCgvg33Qqo_4http8response8ResponseNtNtCsemqjQd4VUoN_9axum_core4body4BodyENtNtCs39mWnhFxKmJ_10autumn_web4htmx13HxResponseExt10hx_refreshB1p_
FN:134,_RNvYINtNtCs9nCgvg33Qqo_4http8response8ResponseNtNtCsemqjQd4VUoN_9axum_core4body4BodyENtNtCs39mWnhFxKmJ_10autumn_web4htmx13HxResponseExt10hx_triggerB1p_
FN:104,_RNvYINtNtCs9nCgvg33Qqo_4http8response8ResponseNtNtCsemqjQd4VUoN_9axum_core4body4BodyENtNtCs39mWnhFxKmJ_10autumn_web4htmx13HxResponseExt11hx_push_urlB1p_
FN:109,_RNvYINtNtCs9nCgvg33Qqo_4http8response8ResponseNtNtCsemqjQd4VUoN_9axum_core4body4BodyENtNtCs39mWnhFxKmJ_10autumn_web4htmx13HxResponseExt11hx_redirectB1p_
FN:129,_RNvYINtNtCs9nCgvg33Qqo_4http8response8ResponseNtNtCsemqjQd4VUoN_9axum_core4body4BodyENtNtCs39mWnhFxKmJ_10autumn_web4htmx13HxResponseExt11hx_retargetB1p_
FN:119,_RNvYINtNtCs9nCgvg33Qqo_4http8response8ResponseNtNtCsemqjQd4VUoN_9axum_core4body4BodyENtNtCs39mWnhFxKmJ_10autumn_web4htmx13HxResponseExt14hx_replace_urlB1p_
FN:144,_RNvYINtNtCs9nCgvg33Qqo_4http8response8ResponseNtNtCsemqjQd4VUoN_9axum_core4body4BodyENtNtCs39mWnhFxKmJ_10autumn_web4htmx13HxResponseExt21hx_trigger_after_swapB1p_
FN:139,_RNvYINtNtCs9nCgvg33Qqo_4http8response8ResponseNtNtCsemqjQd4VUoN_9axum_core4body4BodyENtNtCs39mWnhFxKmJ_10autumn_web4htmx13HxResponseExt23hx_trigger_after_settleB1p_
FN:124,_RNvYINtNtCs9nCgvg33Qqo_4http8response8ResponseNtNtCsemqjQd4VUoN_9axum_core4body4BodyENtNtCs39mWnhFxKmJ_10autumn_web4htmx13HxResponseExt9hx_reswapB1p_
FNDA:0,_RINvNtCslNlzF6u6e2e_10autumn_web4htmx16append_hx_headerpEB4_
FNDA:0,_RNCNCNCNvXININtCslNlzF6u6e2e_10autumn_web4htmx0pENtBb_9HxRequestINtNtCsemqjQd4VUoN_9axum_core7extract16FromRequestPartspE18from_request_parts000Bd_
FNDA:0,_RNCNCNCNvXININtCslNlzF6u6e2e_10autumn_web4htmx0pENtBb_9HxRequestINtNtCsemqjQd4VUoN_9axum_core7extract16FromRequestPartspE18from_request_parts0s_00Bd_
FNDA:0,_RNCNCNvXININtCslNlzF6u6e2e_10autumn_web4htmx0pENtB9_9HxRequestINtNtCsemqjQd4VUoN_9axum_core7extract16FromRequestPartspE18from_request_parts00Bb_
FNDA:0,_RNCNCNvXININtCslNlzF6u6e2e_10autumn_web4htmx0pENtB9_9HxRequestINtNtCsemqjQd4VUoN_9axum_core7extract16FromRequestPartspE18from_request_parts0s_0Bb_
FNDA:0,_RNCNvXININtCslNlzF6u6e2e_10autumn_web4htmx0pENtB7_9HxRequestINtNtCsemqjQd4VUoN_9axum_core7extract16FromRequestPartspE18from_request_parts0B9_
FNDA:0,_RNvXININtCslNlzF6u6e2e_10autumn_web4htmx0pENtB5_9HxRequestINtNtCsemqjQd4VUoN_9axum_core7extract16FromRequestPartspE18from_request_partsB7_
FNDA:0,_RNvYpNtNtCslNlzF6u6e2e_10autumn_web4htmx13HxResponseExt10hx_refreshB7_
FNDA:0,_RNvYpNtNtCslNlzF6u6e2e_10autumn_web4htmx13HxResponseExt10hx_triggerB7_
FNDA:0,_RNvYpNtNtCslNlzF6u6e2e_10autumn_web4htmx13HxResponseExt11hx_locationB7_
FNDA:0,_RNvYpNtNtCslNlzF6u6e2e_10autumn_web4htmx13HxResponseExt11hx_push_urlB7_
FNDA:0,_RNvYpNtNtCslNlzF6u6e2e_10autumn_web4htmx13HxResponseExt11hx_redirectB7_
FNDA:0,_RNvYpNtNtCslNlzF6u6e2e_10autumn_web4htmx13HxResponseExt11hx_retargetB7_
FNDA:0,_RNvYpNtNtCslNlzF6u6e2e_10autumn_web4htmx13HxResponseExt14hx_replace_urlB7_
FNDA:0,_RNvYpNtNtCslNlzF6u6e2e_10autumn_web4htmx13HxResponseExt21hx_trigger_after_swapB7_
FNDA:0,_RNvYpNtNtCslNlzF6u6e2e_10autumn_web4htmx13HxResponseExt23hx_trigger_after_settleB7_
FNDA:0,_RNvYpNtNtCslNlzF6u6e2e_10autumn_web4htmx13HxResponseExt9hx_reswapB7_
FNDA:1,_RNCNvNtNtCs39mWnhFxKmJ_10autumn_web4htmx5testss_28hx_response_ext_adds_headers0B7_
FNDA:1,_RNCNvNtNtCs39mWnhFxKmJ_10autumn_web4htmx5testss_35hx_request_extractor_parses_headers0B7_
FNDA:1,_RNCNvNtNtCs39mWnhFxKmJ_10autumn_web4htmx5testss_44hx_request_extractor_handles_missing_headers0B7_
FNDA:1,_RNCNvNtNtCs39mWnhFxKmJ_10autumn_web4htmx5testss_45hx_response_ext_ignores_invalid_header_values0B7_
FNDA:1,_RNvNtNtCs39mWnhFxKmJ_10autumn_web4htmx5testss_20htmx_js_is_not_empty
FNDA:1,_RNvNtNtCs39mWnhFxKmJ_10autumn_web4htmx5testss_28hx_response_ext_adds_headers
FNDA:1,_RNvNtNtCs39mWnhFxKmJ_10autumn_web4htmx5testss_29htmx_js_looks_like_javascript
FNDA:1,_RNvNtNtCs39mWnhFxKmJ_10autumn_web4htmx5testss_29htmx_version_matches_expected
FNDA:1,_RNvNtNtCs39mWnhFxKmJ_10autumn_web4htmx5testss_35hx_request_extractor_parses_headers
FNDA:1,_RNvNtNtCs39mWnhFxKmJ_10autumn_web4htmx5testss_44hx_request_extractor_handles_missing_headers
FNDA:1,_RNvNtNtCs39mWnhFxKmJ_10autumn_web4htmx5testss_45hx_response_ext_ignores_invalid_header_values
FNDA:18,_RINvNtCs39mWnhFxKmJ_10autumn_web4htmx16append_hx_headerINtNtCs9nCgvg33Qqo_4http8response8ResponseNtNtCsemqjQd4VUoN_9axum_core4body4BodyEEB4_
FNDA:2,_RINvNtCs39mWnhFxKmJ_10autumn_web4htmx16append_hx_headerReEB4_
FNDA:5,_RNCNCNCNvXNtCs39mWnhFxKmJ_10autumn_web4htmxNtB8_9HxRequestINtNtCsemqjQd4VUoN_9axum_core7extract16FromRequestPartsuE18from_request_parts000Ba_
FNDA:3,_RNCNCNCNvXNtCs39mWnhFxKmJ_10autumn_web4htmxNtB8_9HxRequestINtNtCsemqjQd4VUoN_9axum_core7extract16FromRequestPartsuE18from_request_parts0s_00Ba_
FNDA:10,_RNCNCNvXNtCs39mWnhFxKmJ_10autumn_web4htmxNtB6_9HxRequestINtNtCsemqjQd4VUoN_9axum_core7extract16FromRequestPartsuE18from_request_parts00B8_
FNDA:6,_RNCNCNvXNtCs39mWnhFxKmJ_10autumn_web4htmxNtB6_9HxRequestINtNtCsemqjQd4VUoN_9axum_core7extract16FromRequestPartsuE18from_request_parts0s_0B8_
FNDA:2,_RNCNvXNtCs39mWnhFxKmJ_10autumn_web4htmxNtB4_9HxRequestINtNtCsemqjQd4VUoN_9axum_core7extract16FromRequestPartsuE18from_request_parts0B6_
FNDA:2,_RNvXNtCs39mWnhFxKmJ_10autumn_web4htmxNtB2_9HxRequestINtNtCsemqjQd4VUoN_9axum_core7extract16FromRequestPartsuE18from_request_partsB4_
FNDA:2,_RNvYReNtNtCs39mWnhFxKmJ_10autumn_web4htmx13HxResponseExt11hx_locationB8_
FNDA:2,_RNvYINtNtCs9nCgvg33Qqo_4http8response8ResponseNtNtCsemqjQd4VUoN_9axum_core4body4BodyENtNtCs39mWnhFxKmJ_10autumn_web4htmx13HxResponseExt10hx_refreshB1p_
FNDA:2,_RNvYINtNtCs9nCgvg33Qqo_4http8response8ResponseNtNtCsemqjQd4VUoN_9axum_core4body4BodyENtNtCs39mWnhFxKmJ_10autumn_web4htmx13HxResponseExt10hx_triggerB1p_
FNDA:2,_RNvYINtNtCs9nCgvg33Qqo_4http8response8ResponseNtNtCsemqjQd4VUoN_9axum_core4body4BodyENtNtCs39mWnhFxKmJ_10autumn_web4htmx13HxResponseExt11hx_push_urlB1p_
FNDA:2,_RNvYINtNtCs9nCgvg33Qqo_4http8response8ResponseNtNtCsemqjQd4VUoN_9axum_core4body4BodyENtNtCs39mWnhFxKmJ_10autumn_web4htmx13HxResponseExt11hx_redirectB1p_
FNDA:2,_RNvYINtNtCs9nCgvg33Qqo_4http8response8ResponseNtNtCsemqjQd4VUoN_9axum_core4body4BodyENtNtCs39mWnhFxKmJ_10autumn_web4htmx13HxResponseExt11hx_retargetB1p_
FNDA:2,_RNvYINtNtCs9nCgvg33Qqo_4http8response8ResponseNtNtCsemqjQd4VUoN_9axum_core4body4BodyENtNtCs39mWnhFxKmJ_10autumn_web4htmx13HxResponseExt14hx_replace_urlB1p_
FNDA:2,_RNvYINtNtCs9nCgvg33Qqo_4http8response8ResponseNtNtCsemqjQd4VUoN_9axum_core4body4BodyENtNtCs39mWnhFxKmJ_10autumn_web4htmx13HxResponseExt21hx_trigger_after_swapB1p_
FNDA:2,_RNvYINtNtCs9nCgvg33Qqo_4http8response8ResponseNtNtCsemqjQd4VUoN_9axum_core4body4BodyENtNtCs39mWnhFxKmJ_10autumn_web4htmx13HxResponseExt23hx_trigger_after_settleB1p_
FNDA:2,_RNvYINtNtCs9nCgvg33Qqo_4http8response8ResponseNtNtCsemqjQd4VUoN_9axum_core4body4BodyENtNtCs39mWnhFxKmJ_10autumn_web4htmx13HxResponseExt9hx_reswapB1p_
FNF:28
FNH:28
DA:67,2
DA:68,10
DA:69,10
DA:70,10
DA:71,10
DA:72,10
DA:73,10
DA:74,10
DA:75,2
DA:76,6
DA:78,2
DA:79,2
DA:80,2
DA:81,2
DA:82,2
DA:83,2
DA:84,2
DA:85,2
DA:86,2
DA:87,2
DA:88,2
DA:99,2
DA:100,2
DA:101,2
DA:104,2
DA:105,2
DA:106,2
DA:109,2
DA:110,2
DA:111,2
DA:114,2
DA:115,2
DA:116,2
DA:119,2
DA:120,2
DA:121,2
DA:124,2
DA:125,2
DA:126,2
DA:129,2
DA:130,2
DA:131,2
DA:134,2
DA:135,2
DA:136,2
DA:139,2
DA:140,2
DA:141,2
DA:144,2
DA:145,2
DA:146,2
DA:151,20
DA:152,20
DA:153,20
DA:154,11
DA:155,11
DA:156,20
DA:157,20
DA:166,1
DA:167,1
DA:168,1
DA:171,1
DA:172,1
DA:173,1
DA:174,1
DA:177,1
DA:180,1
DA:181,1
DA:182,1
DA:185,1
DA:186,1
DA:187,1
DA:188,1
DA:189,1
DA:190,1
DA:191,1
DA:192,1
DA:193,1
DA:194,1
DA:195,1
DA:196,1
DA:198,1
DA:199,1
DA:200,1
DA:202,1
DA:203,1
DA:204,1
DA:205,1
DA:206,1
DA:207,1
DA:208,1
DA:209,1
DA:210,2
DA:211,1
DA:214,1
DA:216,1
DA:217,1
DA:218,1
DA:219,1
DA:220,1
DA:221,1
DA:222,1
DA:223,1
DA:224,1
DA:225,1
DA:226,1
DA:227,1
DA:229,1
DA:230,1
DA:231,1
DA:232,1
DA:233,1
DA:234,1
DA:235,1
DA:236,1
DA:237,1
DA:238,1
DA:239,1
DA:242,1
DA:243,1
DA:244,1
DA:245,1
DA:246,1
DA:249,1
DA:254,1
DA:256,1
DA:257,1
DA:258,1
DA:259,1
DA:260,1
DA:261,1
DA:262,1
DA:263,1
DA:264,1
DA:265,1
DA:266,1
DA:267,1
DA:269,1
DA:270,1
DA:271,1
DA:272,1
DA:274,1
DA:275,1
DA:276,1
DA:277,1
DA:278,1
DA:279,1
DA:280,1
DA:281,1
DA:284,1
DA:285,1
DA:286,1
DA:288,1
DA:289,1
DA:290,1
DA:292,1
DA:293,1
DA:294,1
DA:295,1
DA:296,1
DA:297,1
DA:298,1
DA:299,1
DA:300,2
DA:301,1
BRF:0
BRH:0
LF:178
LH:178
end_of_record
SF:/app/autumn/src/lib.rs
FN:656,_RNvNtCs39mWnhFxKmJ_10autumn_web5testss_22app_fn_creates_builder
FNDA:1,_RNvNtCs39mWnhFxKmJ_10autumn_web5testss_22app_fn_creates_builder
FNF:1
FNH:1
DA:656,1
DA:657,1
DA:659,1
DA:660,1
BRF:0
BRH:0
LF:4
LH:4
end_of_record
SF:/app/autumn/src/logging.rs
FN:30,_RNCNvNtCslNlzF6u6e2e_10autumn_web7logging4init0B5_
FN:42,_RNvNtCslNlzF6u6e2e_10autumn_web7logging19init_with_telemetry
FN:27,_RNvNtCslNlzF6u6e2e_10autumn_web7logging4init
FN:141,_RNvNtNtCs39mWnhFxKmJ_10autumn_web7logging5testss_19valid_filter_parses
FN:152,_RNvNtNtCs39mWnhFxKmJ_10autumn_web7logging5testss_25invalid_filter_falls_back
FN:131,_RNvNtNtCs39mWnhFxKmJ_10autumn_web7logging5testss_26json_format_is_always_json
FN:121,_RNvNtNtCs39mWnhFxKmJ_10autumn_web7logging5testss_27pretty_format_is_never_json
FN:99,_RNvNtNtCs39mWnhFxKmJ_10autumn_web7logging5testss_30is_production_false_by_default
FN:110,_RNvNtNtCs39mWnhFxKmJ_10autumn_web7logging5testss_41auto_format_is_not_json_in_non_production
FN:160,_RNvNtNtCs39mWnhFxKmJ_10autumn_web7logging5testss_51test_init_with_telemetry_forwards_to_telemetry_init
FN:67,_RNvNvNtNtCs39mWnhFxKmJ_10autumn_web7logging5testss_24init_succeeds_first_time7body_fn
FN:76,_RNvNvNtNtCs39mWnhFxKmJ_10autumn_web7logging5testss_26init_panics_on_second_call7body_fn
FN:53,_RNvNtCs39mWnhFxKmJ_10autumn_web7logging13is_production
FN:42,_RNvNtCs39mWnhFxKmJ_10autumn_web7logging19init_with_telemetry
FN:27,_RNvNtCs39mWnhFxKmJ_10autumn_web7logging4init
FN:54,_RNCNvNtCs39mWnhFxKmJ_10autumn_web7logging13is_production0B5_
FN:30,_RNCNvNtCs39mWnhFxKmJ_10autumn_web7logging4init0B5_
FN:90,_RNCNCNvNvNtNtCs39mWnhFxKmJ_10autumn_web7logging5testss_26init_panics_on_second_call7body_fns_00Bb_
FN:83,_RNCNvNvNtNtCs39mWnhFxKmJ_10autumn_web7logging5testss_26init_panics_on_second_call7body_fn0B9_
FN:90,_RNCNvNvNtNtCs39mWnhFxKmJ_10autumn_web7logging5testss_26init_panics_on_second_call7body_fns_0B9_
FNDA:0,_RNCNvNtCslNlzF6u6e2e_10autumn_web7logging4init0B5_
FNDA:0,_RNvNtCslNlzF6u6e2e_10autumn_web7logging19init_with_telemetry
FNDA:0,_RNvNtCslNlzF6u6e2e_10autumn_web7logging4init
FNDA:1,_RNvNtNtCs39mWnhFxKmJ_10autumn_web7logging5testss_19valid_filter_parses
FNDA:1,_RNvNtNtCs39mWnhFxKmJ_10autumn_web7logging5testss_25invalid_filter_falls_back
FNDA:1,_RNvNtNtCs39mWnhFxKmJ_10autumn_web7logging5testss_26json_format_is_always_json
FNDA:1,_RNvNtNtCs39mWnhFxKmJ_10autumn_web7logging5testss_27pretty_format_is_never_json
FNDA:1,_RNvNtNtCs39mWnhFxKmJ_10autumn_web7logging5testss_30is_production_false_by_default
FNDA:1,_RNvNtNtCs39mWnhFxKmJ_10autumn_web7logging5testss_41auto_format_is_not_json_in_non_production
FNDA:1,_RNvNtNtCs39mWnhFxKmJ_10autumn_web7logging5testss_51test_init_with_telemetry_forwards_to_telemetry_init
FNDA:1,_RNvNvNtNtCs39mWnhFxKmJ_10autumn_web7logging5testss_24init_succeeds_first_time7body_fn
FNDA:1,_RNvNvNtNtCs39mWnhFxKmJ_10autumn_web7logging5testss_26init_panics_on_second_call7body_fn
FNDA:2,_RNvNtCs39mWnhFxKmJ_10autumn_web7logging13is_production
FNDA:4,_RNvNtCs39mWnhFxKmJ_10autumn_web7logging19init_with_telemetry
FNDA:3,_RNvNtCs39mWnhFxKmJ_10autumn_web7logging4init
FNDA:0,_RNCNvNtCs39mWnhFxKmJ_10autumn_web7logging13is_production0B5_
FNDA:1,_RNCNvNtCs39mWnhFxKmJ_10autumn_web7logging4init0B5_
FNDA:1,_RNCNCNvNvNtNtCs39mWnhFxKmJ_10autumn_web7logging5testss_26init_panics_on_second_call7body_fns_00Bb_
FNDA:1,_RNCNvNvNtNtCs39mWnhFxKmJ_10autumn_web7logging5testss_26init_panics_on_second_call7body_fn0B9_
FNDA:1,_RNCNvNvNtNtCs39mWnhFxKmJ_10autumn_web7logging5testss_26init_panics_on_second_call7body_fns_0B9_
FNF:17
FNH:16
DA:27,3
DA:28,3
DA:29,3
DA:30,3
DA:31,3
DA:42,4
DA:43,4
DA:44,4
DA:45,4
DA:46,4
DA:47,4
DA:48,4
DA:53,2
DA:54,2
DA:55,2
DA:67,1
DA:68,1
DA:69,1
DA:70,1
DA:71,1
DA:72,1
DA:76,1
DA:77,1
DA:78,1
DA:79,1
DA:80,1
DA:81,1
DA:83,1
DA:84,1
DA:85,1
DA:87,1
DA:89,1
DA:90,1
DA:91,1
DA:99,1
DA:102,1
DA:103,1
DA:110,1
DA:112,1
DA:113,1
DA:114,0
DA:115,0
DA:117,1
DA:118,1
DA:121,1
DA:122,1
DA:123,0
DA:124,1
DA:125,0
DA:127,1
DA:128,1
DA:131,1
DA:132,1
DA:133,0
DA:134,0
DA:135,1
DA:137,1
DA:138,1
DA:141,1
DA:143,1
DA:144,1
DA:145,1
DA:146,1
DA:147,1
DA:148,1
DA:149,1
DA:152,1
DA:155,1
DA:156,1
DA:157,1
DA:160,1
DA:166,1
DA:167,1
DA:168,1
DA:169,1
DA:170,1
DA:171,1
DA:172,1
DA:173,1
DA:174,1
DA:175,1
DA:176,1
DA:177,1
DA:178,1
DA:179,1
DA:185,1
DA:186,1
DA:187,1
BRF:0
BRH:0
LF:93
LH:86
end_of_record
SF:/app/autumn/src/middleware/dev.rs
FN:124,_RNvNtNtCslNlzF6u6e2e_10autumn_web10middleware3dev14apply_no_store
FN:133,_RNvNtNtCslNlzF6u6e2e_10autumn_web10middleware3dev14inject_snippet
FN:120,_RNvNtNtCslNlzF6u6e2e_10autumn_web10middleware3dev14is_static_path
FN:108,_RNvNtNtCslNlzF6u6e2e_10autumn_web10middleware3dev16is_html_response
FN:73,_RNvNtNtCslNlzF6u6e2e_10autumn_web10middleware3dev18inject_live_reload
FN:158,_RNvNtNtCslNlzF6u6e2e_10autumn_web10middleware3dev18live_reload_script
FN:29,_RNvNtNtCslNlzF6u6e2e_10autumn_web10middleware3dev19is_enabled_with_env
FN:64,_RNvNtNtCslNlzF6u6e2e_10autumn_web10middleware3dev20disable_static_cache
FN:162,_RNvNtNtCslNlzF6u6e2e_10autumn_web10middleware3dev23live_reload_script_body
FN:33,_RNvNtNtCslNlzF6u6e2e_10autumn_web10middleware3dev25live_reload_state_handler
FN:52,_RNvNtNtCslNlzF6u6e2e_10autumn_web10middleware3dev26live_reload_script_handler
FN:103,_RNvNtNtCslNlzF6u6e2e_10autumn_web10middleware3dev31read_reload_state_body_with_env
FN:78,_RNvNtNtCslNlzF6u6e2e_10autumn_web10middleware3dev32inject_live_reload_into_response
FN:25,_RNvNtNtCslNlzF6u6e2e_10autumn_web10middleware3dev10is_enabled
FN:35,_RNCNCNvNtNtCslNlzF6u6e2e_10autumn_web10middleware3dev25live_reload_state_handler00B9_
FN:116,_RNCNvNtNtCslNlzF6u6e2e_10autumn_web10middleware3dev16is_html_response0B7_
FN:117,_RNCNvNtNtCslNlzF6u6e2e_10autumn_web10middleware3dev16is_html_responses_0B7_
FN:73,_RNCNvNtNtCslNlzF6u6e2e_10autumn_web10middleware3dev18inject_live_reload0B7_
FN:64,_RNCNvNtNtCslNlzF6u6e2e_10autumn_web10middleware3dev20disable_static_cache0B7_
FN:33,_RNCNvNtNtCslNlzF6u6e2e_10autumn_web10middleware3dev25live_reload_state_handler0B7_
FN:52,_RNCNvNtNtCslNlzF6u6e2e_10autumn_web10middleware3dev26live_reload_script_handler0B7_
FN:78,_RNCNvNtNtCslNlzF6u6e2e_10autumn_web10middleware3dev32inject_live_reload_into_response0B7_
FN:25,_RNvNtNtCs39mWnhFxKmJ_10autumn_web10middleware3dev10is_enabled
FN:124,_RNvNtNtCs39mWnhFxKmJ_10autumn_web10middleware3dev14apply_no_store
FN:133,_RNvNtNtCs39mWnhFxKmJ_10autumn_web10middleware3dev14inject_snippet
FN:120,_RNvNtNtCs39mWnhFxKmJ_10autumn_web10middleware3dev14is_static_path
FN:108,_RNvNtNtCs39mWnhFxKmJ_10autumn_web10middleware3dev16is_html_response
FN:73,_RNvNtNtCs39mWnhFxKmJ_10autumn_web10middleware3dev18inject_live_reload
FN:158,_RNvNtNtCs39mWnhFxKmJ_10autumn_web10middleware3dev18live_reload_script
FN:29,_RNvNtNtCs39mWnhFxKmJ_10autumn_web10middleware3dev19is_enabled_with_env
FN:64,_RNvNtNtCs39mWnhFxKmJ_10autumn_web10middleware3dev20disable_static_cache
FN:162,_RNvNtNtCs39mWnhFxKmJ_10autumn_web10middleware3dev23live_reload_script_body
FN:33,_RNvNtNtCs39mWnhFxKmJ_10autumn_web10middleware3dev25live_reload_state_handler
FN:52,_RNvNtNtCs39mWnhFxKmJ_10autumn_web10middleware3dev26live_reload_script_handler
FN:103,_RNvNtNtCs39mWnhFxKmJ_10autumn_web10middleware3dev31read_reload_state_body_with_env
FN:78,_RNvNtNtCs39mWnhFxKmJ_10autumn_web10middleware3dev32inject_live_reload_into_response
FN:489,_RNvNtNtNtCs39mWnhFxKmJ_10autumn_web10middleware3dev5testss_25inject_snippet_edge_cases
FN:247,_RNvNtNtNtCs39mWnhFxKmJ_10autumn_web10middleware3dev5testss_33is_enabled_requires_both_env_vars
FN:520,_RNvNtNtNtCs39mWnhFxKmJ_10autumn_web10middleware3dev5testss_36inject_snippet_edge_cases_empty_body
FN:319,_RNvNtNtNtCs39mWnhFxKmJ_10autumn_web10middleware3dev5testss_44disable_static_cache_only_marks_static_paths
FN:526,_RNvNtNtNtCs39mWnhFxKmJ_10autumn_web10middleware3dev5testss_44inject_snippet_edge_cases_case_insensitivity
FN:513,_RNvNtNtNtCs39mWnhFxKmJ_10autumn_web10middleware3dev5testss_45is_static_path_matches_root_and_nested_assets
FN:293,_RNvNtNtNtCs39mWnhFxKmJ_10autumn_web10middleware3dev5testss_46read_reload_state_body_reads_file_when_present
FN:435,_RNvNtNtNtCs39mWnhFxKmJ_10autumn_web10middleware3dev5testss_47injected_snippet_uses_external_src_no_inline_js
FN:535,_RNvNtNtNtCs39mWnhFxKmJ_10autumn_web10middleware3dev5testss_48inject_snippet_edge_cases_malformed_but_matching
FN:542,_RNvNtNtNtCs39mWnhFxKmJ_10autumn_web10middleware3dev5testss_50live_reload_state_handler_returns_json_and_headers
FN:267,_RNvNtNtNtCs39mWnhFxKmJ_10autumn_web10middleware3dev5testss_50read_reload_state_body_defaults_when_state_missing
FN:375,_RNvNtNtNtCs39mWnhFxKmJ_10autumn_web10middleware3dev5testss_51inject_live_reload_into_response_skips_encoded_html
FN:348,_RNvNtNtNtCs39mWnhFxKmJ_10autumn_web10middleware3dev5testss_56inject_live_reload_into_response_updates_html_and_length
FN:420,_RNvNtNtNtCs39mWnhFxKmJ_10autumn_web10middleware3dev5testss_59inject_snippet_inserts_before_body_or_appends_to_html_shell
FN:393,_RNvNtNtNtCs39mWnhFxKmJ_10autumn_web10middleware3dev5testss_61inject_live_reload_middleware_leaves_non_html_responses_alone
FN:461,_RNvNtNtNtCs39mWnhFxKmJ_10autumn_web10middleware3dev5testss_62live_reload_script_handler_serves_js_with_correct_content_type
FN:321,_RNCNCNCNvNtNtNtCs39mWnhFxKmJ_10autumn_web10middleware3dev5testss_44disable_static_cache_only_marks_static_paths000Bd_
FN:322,_RNCNCNCNvNtNtNtCs39mWnhFxKmJ_10autumn_web10middleware3dev5testss_44disable_static_cache_only_marks_static_paths0s_00Bd_
FN:397,_RNCNCNCNvNtNtNtCs39mWnhFxKmJ_10autumn_web10middleware3dev5testss_61inject_live_reload_middleware_leaves_non_html_responses_alone000Bd_
FN:321,_RNCNCNvNtNtNtCs39mWnhFxKmJ_10autumn_web10middleware3dev5testss_44disable_static_cache_only_marks_static_paths00Bb_
FN:322,_RNCNCNvNtNtNtCs39mWnhFxKmJ_10autumn_web10middleware3dev5testss_44disable_static_cache_only_marks_static_paths0s_0Bb_
FN:271,_RNCNCNvNtNtNtCs39mWnhFxKmJ_10autumn_web10middleware3dev5testss_50read_reload_state_body_defaults_when_state_missing00Bb_
FN:362,_RNCNCNvNtNtNtCs39mWnhFxKmJ_10autumn_web10middleware3dev5testss_56inject_live_reload_into_response_updates_html_and_length00Bb_
FN:399,_RNCNCNvNtNtNtCs39mWnhFxKmJ_10autumn_web10middleware3dev5testss_61inject_live_reload_middleware_leaves_non_html_responses_alone00Bb_
FN:468,_RNCNCNvNtNtNtCs39mWnhFxKmJ_10autumn_web10middleware3dev5testss_62live_reload_script_handler_serves_js_with_correct_content_type00Bb_
FN:319,_RNCNvNtNtNtCs39mWnhFxKmJ_10autumn_web10middleware3dev5testss_44disable_static_cache_only_marks_static_paths0B9_
FN:293,_RNCNvNtNtNtCs39mWnhFxKmJ_10autumn_web10middleware3dev5testss_46read_reload_state_body_reads_file_when_present0B9_
FN:542,_RNCNvNtNtNtCs39mWnhFxKmJ_10autumn_web10middleware3dev5testss_50live_reload_state_handler_returns_json_and_headers0B9_
FN:267,_RNCNvNtNtNtCs39mWnhFxKmJ_10autumn_web10middleware3dev5testss_50read_reload_state_body_defaults_when_state_missing0B9_
FN:375,_RNCNvNtNtNtCs39mWnhFxKmJ_10autumn_web10middleware3dev5testss_51inject_live_reload_into_response_skips_encoded_html0B9_
FN:348,_RNCNvNtNtNtCs39mWnhFxKmJ_10autumn_web10middleware3dev5testss_56inject_live_reload_into_response_updates_html_and_length0B9_
FN:393,_RNCNvNtNtNtCs39mWnhFxKmJ_10autumn_web10middleware3dev5testss_61inject_live_reload_middleware_leaves_non_html_responses_alone0B9_
FN:461,_RNCNvNtNtNtCs39mWnhFxKmJ_10autumn_web10middleware3dev5testss_62live_reload_script_handler_serves_js_with_correct_content_type0B9_
FN:35,_RNCNCNvNtNtCs39mWnhFxKmJ_10autumn_web10middleware3dev25live_reload_state_handler00B9_
FN:116,_RNCNvNtNtCs39mWnhFxKmJ_10autumn_web10middleware3dev16is_html_response0B7_
FN:117,_RNCNvNtNtCs39mWnhFxKmJ_10autumn_web10middleware3dev16is_html_responses_0B7_
FN:73,_RNCNvNtNtCs39mWnhFxKmJ_10autumn_web10middleware3dev18inject_live_reload0B7_
FN:64,_RNCNvNtNtCs39mWnhFxKmJ_10autumn_web10middleware3dev20disable_static_cache0B7_
FN:33,_RNCNvNtNtCs39mWnhFxKmJ_10autumn_web10middleware3dev25live_reload_state_handler0B7_
FN:52,_RNCNvNtNtCs39mWnhFxKmJ_10autumn_web10middleware3dev26live_reload_script_handler0B7_
FN:78,_RNCNvNtNtCs39mWnhFxKmJ_10autumn_web10middleware3dev32inject_live_reload_into_response0B7_
FNDA:0,_RNvNtNtCslNlzF6u6e2e_10autumn_web10middleware3dev14apply_no_store
FNDA:0,_RNvNtNtCslNlzF6u6e2e_10autumn_web10middleware3dev14inject_snippet
FNDA:0,_RNvNtNtCslNlzF6u6e2e_10autumn_web10middleware3dev14is_static_path
FNDA:0,_RNvNtNtCslNlzF6u6e2e_10autumn_web10middleware3dev16is_html_response
FNDA:0,_RNvNtNtCslNlzF6u6e2e_10autumn_web10middleware3dev18inject_live_reload
FNDA:0,_RNvNtNtCslNlzF6u6e2e_10autumn_web10middleware3dev18live_reload_script
FNDA:33,_RNvNtNtCslNlzF6u6e2e_10autumn_web10middleware3dev19is_enabled_with_env
FNDA:0,_RNvNtNtCslNlzF6u6e2e_10autumn_web10middleware3dev20disable_static_cache
FNDA:0,_RNvNtNtCslNlzF6u6e2e_10autumn_web10middleware3dev23live_reload_script_body
FNDA:0,_RNvNtNtCslNlzF6u6e2e_10autumn_web10middleware3dev25live_reload_state_handler
FNDA:0,_RNvNtNtCslNlzF6u6e2e_10autumn_web10middleware3dev26live_reload_script_handler
FNDA:0,_RNvNtNtCslNlzF6u6e2e_10autumn_web10middleware3dev31read_reload_state_body_with_env
FNDA:0,_RNvNtNtCslNlzF6u6e2e_10autumn_web10middleware3dev32inject_live_reload_into_response
FNDA:0,_RNvNtNtCslNlzF6u6e2e_10autumn_web10middleware3dev10is_enabled
FNDA:0,_RNCNCNvNtNtCslNlzF6u6e2e_10autumn_web10middleware3dev25live_reload_state_handler00B9_
FNDA:0,_RNCNvNtNtCslNlzF6u6e2e_10autumn_web10middleware3dev16is_html_response0B7_
FNDA:0,_RNCNvNtNtCslNlzF6u6e2e_10autumn_web10middleware3dev16is_html_responses_0B7_
FNDA:0,_RNCNvNtNtCslNlzF6u6e2e_10autumn_web10middleware3dev18inject_live_reload0B7_
FNDA:0,_RNCNvNtNtCslNlzF6u6e2e_10autumn_web10middleware3dev20disable_static_cache0B7_
FNDA:0,_RNCNvNtNtCslNlzF6u6e2e_10autumn_web10middleware3dev25live_reload_state_handler0B7_
FNDA:0,_RNCNvNtNtCslNlzF6u6e2e_10autumn_web10middleware3dev26live_reload_script_handler0B7_
FNDA:0,_RNCNvNtNtCslNlzF6u6e2e_10autumn_web10middleware3dev32inject_live_reload_into_response0B7_
FNDA:0,_RNvNtNtCs39mWnhFxKmJ_10autumn_web10middleware3dev10is_enabled
FNDA:8,_RNvNtNtCs39mWnhFxKmJ_10autumn_web10middleware3dev14apply_no_store
FNDA:13,_RNvNtNtCs39mWnhFxKmJ_10autumn_web10middleware3dev14inject_snippet
FNDA:13,_RNvNtNtCs39mWnhFxKmJ_10autumn_web10middleware3dev14is_static_path
FNDA:11,_RNvNtNtCs39mWnhFxKmJ_10autumn_web10middleware3dev16is_html_response
FNDA:9,_RNvNtNtCs39mWnhFxKmJ_10autumn_web10middleware3dev18inject_live_reload
FNDA:13,_RNvNtNtCs39mWnhFxKmJ_10autumn_web10middleware3dev18live_reload_script
FNDA:35,_RNvNtNtCs39mWnhFxKmJ_10autumn_web10middleware3dev19is_enabled_with_env
FNDA:10,_RNvNtNtCs39mWnhFxKmJ_10autumn_web10middleware3dev20disable_static_cache
FNDA:2,_RNvNtNtCs39mWnhFxKmJ_10autumn_web10middleware3dev23live_reload_script_body
FNDA:2,_RNvNtNtCs39mWnhFxKmJ_10autumn_web10middleware3dev25live_reload_state_handler
FNDA:2,_RNvNtNtCs39mWnhFxKmJ_10autumn_web10middleware3dev26live_reload_script_handler
FNDA:4,_RNvNtNtCs39mWnhFxKmJ_10autumn_web10middleware3dev31read_reload_state_body_with_env
FNDA:11,_RNvNtNtCs39mWnhFxKmJ_10autumn_web10middleware3dev32inject_live_reload_into_response
FNDA:1,_RNvNtNtNtCs39mWnhFxKmJ_10autumn_web10middleware3dev5testss_25inject_snippet_edge_cases
FNDA:1,_RNvNtNtNtCs39mWnhFxKmJ_10autumn_web10middleware3dev5testss_33is_enabled_requires_both_env_vars
FNDA:1,_RNvNtNtNtCs39mWnhFxKmJ_10autumn_web10middleware3dev5testss_36inject_snippet_edge_cases_empty_body
FNDA:1,_RNvNtNtNtCs39mWnhFxKmJ_10autumn_web10middleware3dev5testss_44disable_static_cache_only_marks_static_paths
FNDA:1,_RNvNtNtNtCs39mWnhFxKmJ_10autumn_web10middleware3dev5testss_44inject_snippet_edge_cases_case_insensitivity
FNDA:1,_RNvNtNtNtCs39mWnhFxKmJ_10autumn_web10middleware3dev5testss_45is_static_path_matches_root_and_nested_assets
FNDA:1,_RNvNtNtNtCs39mWnhFxKmJ_10autumn_web10middleware3dev5testss_46read_reload_state_body_reads_file_when_present
FNDA:1,_RNvNtNtNtCs39mWnhFxKmJ_10autumn_web10middleware3dev5testss_47injected_snippet_uses_external_src_no_inline_js
FNDA:1,_RNvNtNtNtCs39mWnhFxKmJ_10autumn_web10middleware3dev5testss_48inject_snippet_edge_cases_malformed_but_matching
FNDA:1,_RNvNtNtNtCs39mWnhFxKmJ_10autumn_web10middleware3dev5testss_50live_reload_state_handler_returns_json_and_headers
FNDA:1,_RNvNtNtNtCs39mWnhFxKmJ_10autumn_web10middleware3dev5testss_50read_reload_state_body_defaults_when_state_missing
FNDA:1,_RNvNtNtNtCs39mWnhFxKmJ_10autumn_web10middleware3dev5testss_51inject_live_reload_into_response_skips_encoded_html
FNDA:1,_RNvNtNtNtCs39mWnhFxKmJ_10autumn_web10middleware3dev5testss_56inject_live_reload_into_response_updates_html_and_length
FNDA:1,_RNvNtNtNtCs39mWnhFxKmJ_10autumn_web10middleware3dev5testss_59inject_snippet_inserts_before_body_or_appends_to_html_shell
FNDA:1,_RNvNtNtNtCs39mWnhFxKmJ_10autumn_web10middleware3dev5testss_61inject_live_reload_middleware_leaves_non_html_responses_alone
FNDA:1,_RNvNtNtNtCs39mWnhFxKmJ_10autumn_web10middleware3dev5testss_62live_reload_script_handler_serves_js_with_correct_content_type
FNDA:1,_RNCNCNCNvNtNtNtCs39mWnhFxKmJ_10autumn_web10middleware3dev5testss_44disable_static_cache_only_marks_static_paths000Bd_
FNDA:1,_RNCNCNCNvNtNtNtCs39mWnhFxKmJ_10autumn_web10middleware3dev5testss_44disable_static_cache_only_marks_static_paths0s_00Bd_
FNDA:1,_RNCNCNCNvNtNtNtCs39mWnhFxKmJ_10autumn_web10middleware3dev5testss_61inject_live_reload_middleware_leaves_non_html_responses_alone000Bd_
FNDA:1,_RNCNCNvNtNtNtCs39mWnhFxKmJ_10autumn_web10middleware3dev5testss_44disable_static_cache_only_marks_static_paths00Bb_
FNDA:1,_RNCNCNvNtNtNtCs39mWnhFxKmJ_10autumn_web10middleware3dev5testss_44disable_static_cache_only_marks_static_paths0s_0Bb_
FNDA:1,_RNCNCNvNtNtNtCs39mWnhFxKmJ_10autumn_web10middleware3dev5testss_50read_reload_state_body_defaults_when_state_missing00Bb_
FNDA:1,_RNCNCNvNtNtNtCs39mWnhFxKmJ_10autumn_web10middleware3dev5testss_56inject_live_reload_into_response_updates_html_and_length00Bb_
FNDA:1,_RNCNCNvNtNtNtCs39mWnhFxKmJ_10autumn_web10middleware3dev5testss_61inject_live_reload_middleware_leaves_non_html_responses_alone00Bb_
FNDA:1,_RNCNCNvNtNtNtCs39mWnhFxKmJ_10autumn_web10middleware3dev5testss_62live_reload_script_handler_serves_js_with_correct_content_type00Bb_
FNDA:1,_RNCNvNtNtNtCs39mWnhFxKmJ_10autumn_web10middleware3dev5testss_44disable_static_cache_only_marks_static_paths0B9_
FNDA:1,_RNCNvNtNtNtCs39mWnhFxKmJ_10autumn_web10middleware3dev5testss_46read_reload_state_body_reads_file_when_present0B9_
FNDA:1,_RNCNvNtNtNtCs39mWnhFxKmJ_10autumn_web10middleware3dev5testss_50live_reload_state_handler_returns_json_and_headers0B9_
FNDA:1,_RNCNvNtNtNtCs39mWnhFxKmJ_10autumn_web10middleware3dev5testss_50read_reload_state_body_defaults_when_state_missing0B9_
FNDA:1,_RNCNvNtNtNtCs39mWnhFxKmJ_10autumn_web10middleware3dev5testss_51inject_live_reload_into_response_skips_encoded_html0B9_
FNDA:1,_RNCNvNtNtNtCs39mWnhFxKmJ_10autumn_web10middleware3dev5testss_56inject_live_reload_into_response_updates_html_and_length0B9_
FNDA:1,_RNCNvNtNtNtCs39mWnhFxKmJ_10autumn_web10middleware3dev5testss_61inject_live_reload_middleware_leaves_non_html_responses_alone0B9_
FNDA:1,_RNCNvNtNtNtCs39mWnhFxKmJ_10autumn_web10middleware3dev5testss_62live_reload_script_handler_serves_js_with_correct_content_type0B9_
FNDA:1,_RNCNCNvNtNtCs39mWnhFxKmJ_10autumn_web10middleware3dev25live_reload_state_handler00B9_
FNDA:10,_RNCNvNtNtCs39mWnhFxKmJ_10autumn_web10middleware3dev16is_html_response0B7_
FNDA:10,_RNCNvNtNtCs39mWnhFxKmJ_10autumn_web10middleware3dev16is_html_responses_0B7_
FNDA:9,_RNCNvNtNtCs39mWnhFxKmJ_10autumn_web10middleware3dev18inject_live_reload0B7_
FNDA:10,_RNCNvNtNtCs39mWnhFxKmJ_10autumn_web10middleware3dev20disable_static_cache0B7_
FNDA:2,_RNCNvNtNtCs39mWnhFxKmJ_10autumn_web10middleware3dev25live_reload_state_handler0B7_
FNDA:2,_RNCNvNtNtCs39mWnhFxKmJ_10autumn_web10middleware3dev26live_reload_script_handler0B7_
FNDA:11,_RNCNvNtNtCs39mWnhFxKmJ_10autumn_web10middleware3dev32inject_live_reload_into_response0B7_
FNF:55
FNH:54
DA:25,0
DA:26,0
DA:27,0
DA:29,68
DA:30,68
DA:31,68
DA:33,2
DA:34,2
DA:35,2
DA:36,2
DA:37,2
DA:38,2
DA:39,2
DA:40,2
DA:41,2
DA:43,2
DA:44,2
DA:45,2
DA:52,2
DA:53,2
DA:54,2
DA:55,2
DA:56,2
DA:57,2
DA:58,2
DA:60,2
DA:61,2
DA:62,2
DA:64,10
DA:65,10
DA:66,10
DA:67,10
DA:68,2
DA:69,8
DA:70,10
DA:71,10
DA:73,9
DA:74,9
DA:75,9
DA:76,9
DA:78,11
DA:79,11
DA:80,9
DA:81,2
DA:83,2
DA:85,2
DA:86,2
DA:87,2
DA:88,2
DA:90,2
DA:91,0
DA:92,2
DA:94,2
DA:95,2
DA:96,2
DA:97,0
DA:98,0
DA:100,2
DA:101,11
DA:103,4
DA:104,4
DA:105,2
DA:106,4
DA:108,11
DA:109,11
DA:110,1
DA:111,10
DA:113,10
DA:114,10
DA:115,10
DA:116,10
DA:117,10
DA:118,11
DA:120,13
DA:121,13
DA:122,13
DA:124,8
DA:125,8
DA:126,8
DA:127,8
DA:129,8
DA:130,8
DA:131,8
DA:133,13
DA:134,13
DA:135,13
DA:137,13
DA:138,6
DA:139,6
DA:140,6
DA:141,7
DA:143,7
DA:144,4
DA:145,4
DA:146,4
DA:147,3
DA:149,3
DA:150,13
DA:158,13
DA:159,13
DA:160,13
DA:162,2
DA:163,2
DA:236,2
DA:247,1
DA:249,1
DA:250,1
DA:254,1
DA:255,1
DA:259,1
DA:260,1
DA:261,1
DA:262,1
DA:264,1
DA:267,1
DA:268,1
DA:270,1
DA:271,1
DA:272,1
DA:273,1
DA:274,1
DA:275,1
DA:276,1
DA:277,1
DA:279,1
DA:280,1
DA:281,1
DA:282,1
DA:283,1
DA:286,1
DA:287,1
DA:288,1
DA:289,1
DA:290,1
DA:293,1
DA:294,1
DA:295,1
DA:296,1
DA:297,1
DA:298,1
DA:299,1
DA:301,1
DA:302,1
DA:303,1
DA:304,1
DA:305,1
DA:306,1
DA:307,1
DA:308,1
DA:309,1
DA:312,1
DA:313,1
DA:314,1
DA:315,1
DA:316,1
DA:319,1
DA:320,1
DA:321,2
DA:322,2
DA:323,1
DA:325,1
DA:326,1
DA:327,1
DA:328,1
DA:329,1
DA:330,1
DA:331,1
DA:332,1
DA:333,1
DA:334,1
DA:335,1
DA:336,1
DA:340,1
DA:341,1
DA:342,1
DA:343,1
DA:344,1
DA:345,1
DA:348,1
DA:349,1
DA:350,1
DA:351,1
DA:352,1
DA:354,1
DA:355,1
DA:356,1
DA:358,1
DA:359,1
DA:360,1
DA:361,1
DA:362,1
DA:363,1
DA:364,1
DA:365,1
DA:366,1
DA:367,1
DA:368,1
DA:370,1
DA:371,1
DA:372,1
DA:375,1
DA:376,1
DA:377,1
DA:378,1
DA:379,1
DA:381,1
DA:382,1
DA:383,1
DA:385,1
DA:386,1
DA:387,1
DA:388,1
DA:389,1
DA:390,1
DA:393,1
DA:394,1
DA:395,1
DA:396,1
DA:397,1
DA:398,1
DA:399,2
DA:401,1
DA:403,1
DA:404,1
DA:405,1
DA:406,1
DA:407,1
DA:408,1
DA:409,1
DA:410,1
DA:411,1
DA:412,1
DA:413,1
DA:414,1
DA:415,1
DA:416,1
DA:417,1
DA:420,1
DA:421,1
DA:422,1
DA:423,1
DA:424,1
DA:426,1
DA:427,1
DA:428,1
DA:430,1
DA:431,1
DA:432,1
DA:435,1
DA:440,1
DA:441,1
DA:443,1
DA:444,1
DA:445,1
DA:446,1
DA:450,1
DA:451,1
DA:454,1
DA:455,1
DA:458,1
DA:461,1
DA:462,1
DA:463,1
DA:464,1
DA:465,1
DA:466,1
DA:467,1
DA:468,1
DA:471,1
DA:472,1
DA:475,1
DA:476,1
DA:477,1
DA:478,1
DA:481,1
DA:482,1
DA:483,1
DA:484,1
DA:485,1
DA:486,1
DA:489,1
DA:491,1
DA:492,1
DA:493,1
DA:496,1
DA:497,1
DA:498,1
DA:501,1
DA:502,1
DA:503,1
DA:506,1
DA:507,1
DA:509,1
DA:510,1
DA:513,1
DA:514,1
DA:515,1
DA:516,1
DA:517,1
DA:520,1
DA:521,1
DA:522,1
DA:523,1
DA:526,1
DA:529,1
DA:530,1
DA:531,1
DA:532,1
DA:535,1
DA:536,1
DA:537,1
DA:538,1
DA:539,1
DA:542,1
DA:543,1
DA:545,1
DA:547,1
DA:548,1
DA:552,1
DA:553,1
DA:557,1
DA:558,1
DA:559,1
DA:560,1
DA:563,1
DA:564,1
DA:565,1
BRF:0
BRH:0
LF:361
LH:355
end_of_record
SF:/app/autumn/src/middleware/error_page_filter.rs
FN:292,_RNvNtNtCslNlzF6u6e2e_10autumn_web10middleware17error_page_filter20fallback_404_handler
FN:31,_RNvXNtNtCslNlzF6u6e2e_10autumn_web10middleware17error_page_filterNtB2_15ErrorPageFilterNtNtB4_16exception_filter15ExceptionFilter6filter
FN:222,_RINvNtNtCslNlzF6u6e2e_10autumn_web10middleware17error_page_filter12accepts_htmlNtNtCsemqjQd4VUoN_9axum_core4body4BodyEB6_
FN:226,_RNCINvNtNtCslNlzF6u6e2e_10autumn_web10middleware17error_page_filter12accepts_htmlNtNtCsemqjQd4VUoN_9axum_core4body4BodyE0B8_
FN:265,_RNCINvNtNtCslNlzF6u6e2e_10autumn_web10middleware17error_page_filter12accepts_htmlNtNtCsemqjQd4VUoN_9axum_core4body4BodyEs0_0B8_
FN:268,_RNCINvNtNtCslNlzF6u6e2e_10autumn_web10middleware17error_page_filter12accepts_htmlNtNtCsemqjQd4VUoN_9axum_core4body4BodyEs1_0B8_
FN:262,_RNCINvNtNtCslNlzF6u6e2e_10autumn_web10middleware17error_page_filter12accepts_htmlNtNtCsemqjQd4VUoN_9axum_core4body4BodyEs_0B8_
FN:292,_RNCNvNtNtCslNlzF6u6e2e_10autumn_web10middleware17error_page_filter20fallback_404_handler0B7_
FN:55,_RNCNvXNtNtCslNlzF6u6e2e_10autumn_web10middleware17error_page_filterNtB4_15ErrorPageFilterNtNtB6_16exception_filter15ExceptionFilter6filters0_0B8_
FN:46,_RNCNvXNtNtCslNlzF6u6e2e_10autumn_web10middleware17error_page_filterNtB4_15ErrorPageFilterNtNtB6_16exception_filter15ExceptionFilter6filters_0B8_
FN:157,_RNvXs0_NtNtCslNlzF6u6e2e_10autumn_web10middleware17error_page_filterINtB5_23ErrorPageContextServiceNtNtNtCs2SFNBOiMNMK_4axum7routing5route5RouteEINtCs9j4nKNK4ihi_13tower_service7ServiceINtNtCs9nCgvg33Qqo_4http7request7RequestNtNtCsemqjQd4VUoN_9axum_core4body4BodyEE10poll_readyB9_
FN:164,_RNvXs0_NtNtCslNlzF6u6e2e_10autumn_web10middleware17error_page_filterINtB5_23ErrorPageContextServiceNtNtNtCs2SFNBOiMNMK_4axum7routing5route5RouteEINtCs9j4nKNK4ihi_13tower_service7ServiceINtNtCs9nCgvg33Qqo_4http7request7RequestNtNtCsemqjQd4VUoN_9axum_core4body4BodyEE4callB9_
FN:197,_RNvXs1_NtNtCslNlzF6u6e2e_10autumn_web10middleware17error_page_filterINtB5_22ErrorPageContextFutureINtNtNtCs2SFNBOiMNMK_4axum7routing5route11RouteFutureNtNtCs4kUJL3MZFFz_4core7convert10InfallibleEENtNtNtB2t_6future6future6Future4pollB9_
FN:139,_RNvXs_NtNtCslNlzF6u6e2e_10autumn_web10middleware17error_page_filterNtB4_21ErrorPageContextLayerINtCscMAT8yzRe8V_11tower_layer5LayerNtNtNtCs2SFNBOiMNMK_4axum7routing5route5RouteE5layerB8_
FN:582,_RNCNCNCNvNtNtNtCs39mWnhFxKmJ_10autumn_web10middleware17error_page_filter5testss_21custom_renderer_works000Bd_
FN:634,_RNCNCNCNvNtNtNtCs39mWnhFxKmJ_10autumn_web10middleware17error_page_filter5testss_44custom_renderer_is_ignored_for_json_requests000Bd_
FN:392,_RNCNCNvNtNtNtCs39mWnhFxKmJ_10autumn_web10middleware17error_page_filter5tests28test_router_with_error_pages00Bb_
FN:399,_RNCNCNvNtNtNtCs39mWnhFxKmJ_10autumn_web10middleware17error_page_filter5tests28test_router_with_error_pagess0_00Bb_
FN:395,_RNCNCNvNtNtNtCs39mWnhFxKmJ_10autumn_web10middleware17error_page_filter5tests28test_router_with_error_pagess_00Bb_
FN:582,_RNCNCNvNtNtNtCs39mWnhFxKmJ_10autumn_web10middleware17error_page_filter5testss_21custom_renderer_works00Bb_
FN:634,_RNCNCNvNtNtNtCs39mWnhFxKmJ_10autumn_web10middleware17error_page_filter5testss_44custom_renderer_is_ignored_for_json_requests00Bb_
FN:392,_RNCNvNtNtNtCs39mWnhFxKmJ_10autumn_web10middleware17error_page_filter5tests28test_router_with_error_pages0B9_
FN:403,_RNCNvNtNtNtCs39mWnhFxKmJ_10autumn_web10middleware17error_page_filter5tests28test_router_with_error_pagess0_0B9_
FN:395,_RNCNvNtNtNtCs39mWnhFxKmJ_10autumn_web10middleware17error_page_filter5tests28test_router_with_error_pagess_0B9_
FN:558,_RNCNvNtNtNtCs39mWnhFxKmJ_10autumn_web10middleware17error_page_filter5testss_21custom_renderer_works0B9_
FN:477,_RNCNvNtNtNtCs39mWnhFxKmJ_10autumn_web10middleware17error_page_filter5testss_25json_api_gets_json_errors0B9_
FN:411,_RNCNvNtNtNtCs39mWnhFxKmJ_10autumn_web10middleware17error_page_filter5testss_28html_404_returns_styled_page0B9_
FN:450,_RNCNvNtNtNtCs39mWnhFxKmJ_10autumn_web10middleware17error_page_filter5testss_28html_500_returns_styled_page0B9_
FN:509,_RNCNvNtNtNtCs39mWnhFxKmJ_10autumn_web10middleware17error_page_filter5testss_29dev_badge_appears_in_dev_mode0B9_
FN:534,_RNCNvNtNtNtCs39mWnhFxKmJ_10autumn_web10middleware17error_page_filter5testss_29dev_badge_hidden_in_prod_mode0B9_
FN:673,_RNCNvNtNtNtCs39mWnhFxKmJ_10autumn_web10middleware17error_page_filter5testss_30success_responses_not_affected0B9_
FN:712,_RNCNvNtNtNtCs39mWnhFxKmJ_10autumn_web10middleware17error_page_filter5testss_35fallback_404_handler_with_root_path0B9_
FN:703,_RNCNvNtNtNtCs39mWnhFxKmJ_10autumn_web10middleware17error_page_filter5testss_41fallback_404_handler_ignores_query_params0B9_
FN:694,_RNCNvNtNtNtCs39mWnhFxKmJ_10autumn_web10middleware17error_page_filter5testss_42fallback_404_handler_creates_correct_error0B9_
FN:610,_RNCNvNtNtNtCs39mWnhFxKmJ_10autumn_web10middleware17error_page_filter5testss_44custom_renderer_is_ignored_for_json_requests0B9_
FN:222,_RINvNtNtCs39mWnhFxKmJ_10autumn_web10middleware17error_page_filter12accepts_htmlNtNtCsemqjQd4VUoN_9axum_core4body4BodyEB6_
FN:226,_RNCINvNtNtCs39mWnhFxKmJ_10autumn_web10middleware17error_page_filter12accepts_htmlNtNtCsemqjQd4VUoN_9axum_core4body4BodyE0B8_
FN:265,_RNCINvNtNtCs39mWnhFxKmJ_10autumn_web10middleware17error_page_filter12accepts_htmlNtNtCsemqjQd4VUoN_9axum_core4body4BodyEs0_0B8_
FN:268,_RNCINvNtNtCs39mWnhFxKmJ_10autumn_web10middleware17error_page_filter12accepts_htmlNtNtCsemqjQd4VUoN_9axum_core4body4BodyEs1_0B8_
FN:262,_RNCINvNtNtCs39mWnhFxKmJ_10autumn_web10middleware17error_page_filter12accepts_htmlNtNtCsemqjQd4VUoN_9axum_core4body4BodyEs_0B8_
FN:292,_RNCNvNtNtCs39mWnhFxKmJ_10autumn_web10middleware17error_page_filter20fallback_404_handler0B7_
FN:55,_RNCNvXNtNtCs39mWnhFxKmJ_10autumn_web10middleware17error_page_filterNtB4_15ErrorPageFilterNtNtB6_16exception_filter15ExceptionFilter6filters0_0B8_
FN:46,_RNCNvXNtNtCs39mWnhFxKmJ_10autumn_web10middleware17error_page_filterNtB4_15ErrorPageFilterNtNtB6_16exception_filter15ExceptionFilter6filters_0B8_
FN:157,_RNvXs0_NtNtCs39mWnhFxKmJ_10autumn_web10middleware17error_page_filterINtB5_23ErrorPageContextServiceNtNtNtCs2SFNBOiMNMK_4axum7routing5route5RouteEINtCs9j4nKNK4ihi_13tower_service7ServiceINtNtCs9nCgvg33Qqo_4http7request7RequestNtNtCsemqjQd4VUoN_9axum_core4body4BodyEE10poll_readyB9_
FN:164,_RNvXs0_NtNtCs39mWnhFxKmJ_10autumn_web10middleware17error_page_filterINtB5_23ErrorPageContextServiceNtNtNtCs2SFNBOiMNMK_4axum7routing5route5RouteEINtCs9j4nKNK4ihi_13tower_service7ServiceINtNtCs9nCgvg33Qqo_4http7request7RequestNtNtCsemqjQd4VUoN_9axum_core4body4BodyEE4callB9_
FN:197,_RNvXs1_NtNtCs39mWnhFxKmJ_10autumn_web10middleware17error_page_filterINtB5_22ErrorPageContextFutureINtNtNtCs2SFNBOiMNMK_4axum7routing5route11RouteFutureNtNtCs4kUJL3MZFFz_4core7convert10InfallibleEENtNtNtB2t_6future6future6Future4pollB9_
FN:139,_RNvXs_NtNtCs39mWnhFxKmJ_10autumn_web10middleware17error_page_filterNtB4_21ErrorPageContextLayerINtCscMAT8yzRe8V_11tower_layer5LayerNtNtNtCs2SFNBOiMNMK_4axum7routing5route5RouteE5layerB8_
FN:385,_RNvNtNtNtCs39mWnhFxKmJ_10autumn_web10middleware17error_page_filter5tests28test_router_with_error_pages
FN:558,_RNvNtNtNtCs39mWnhFxKmJ_10autumn_web10middleware17error_page_filter5testss_21custom_renderer_works
FN:303,_RNvNtNtNtCs39mWnhFxKmJ_10autumn_web10middleware17error_page_filter5testss_24accepts_html_for_browser
FN:327,_RNvNtNtNtCs39mWnhFxKmJ_10autumn_web10middleware17error_page_filter5testss_25accepts_html_for_wildcard
FN:477,_RNvNtNtNtCs39mWnhFxKmJ_10autumn_web10middleware17error_page_filter5testss_25json_api_gets_json_errors
FN:312,_RNvNtNtNtCs39mWnhFxKmJ_10autumn_web10middleware17error_page_filter5testss_25rejects_html_for_json_api
FN:411,_RNvNtNtNtCs39mWnhFxKmJ_10autumn_web10middleware17error_page_filter5testss_28html_404_returns_styled_page
FN:450,_RNvNtNtNtCs39mWnhFxKmJ_10autumn_web10middleware17error_page_filter5testss_28html_500_returns_styled_page
FN:345,_RNvNtNtNtCs39mWnhFxKmJ_10autumn_web10middleware17error_page_filter5testss_28prefers_html_when_html_first
FN:336,_RNvNtNtNtCs39mWnhFxKmJ_10autumn_web10middleware17error_page_filter5testss_28prefers_json_when_json_first
FN:509,_RNvNtNtNtCs39mWnhFxKmJ_10autumn_web10middleware17error_page_filter5testss_29dev_badge_appears_in_dev_mode
FN:534,_RNvNtNtNtCs39mWnhFxKmJ_10autumn_web10middleware17error_page_filter5testss_29dev_badge_hidden_in_prod_mode
FN:321,_RNvNtNtNtCs39mWnhFxKmJ_10autumn_web10middleware17error_page_filter5testss_29rejects_html_for_empty_accept
FN:673,_RNvNtNtNtCs39mWnhFxKmJ_10autumn_web10middleware17error_page_filter5testss_30success_responses_not_affected
FN:712,_RNvNtNtNtCs39mWnhFxKmJ_10autumn_web10middleware17error_page_filter5testss_35fallback_404_handler_with_root_path
FN:363,_RNvNtNtNtCs39mWnhFxKmJ_10autumn_web10middleware17error_page_filter5testss_35prefers_html_when_html_has_higher_q
FN:354,_RNvNtNtNtCs39mWnhFxKmJ_10autumn_web10middleware17error_page_filter5testss_35prefers_json_when_json_has_higher_q
FN:703,_RNvNtNtNtCs39mWnhFxKmJ_10autumn_web10middleware17error_page_filter5testss_41fallback_404_handler_ignores_query_params
FN:694,_RNvNtNtNtCs39mWnhFxKmJ_10autumn_web10middleware17error_page_filter5testss_42fallback_404_handler_creates_correct_error
FN:610,_RNvNtNtNtCs39mWnhFxKmJ_10autumn_web10middleware17error_page_filter5testss_44custom_renderer_is_ignored_for_json_requests
FN:564,_RNvXNCNvNtNtNtCs39mWnhFxKmJ_10autumn_web10middleware17error_page_filter5testss_21custom_renderer_works0NtB2_11CustomPagesNtNtNtBc_11error_pages8renderer17ErrorPageRenderer12render_error
FN:616,_RNvXNCNvNtNtNtCs39mWnhFxKmJ_10autumn_web10middleware17error_page_filter5testss_44custom_renderer_is_ignored_for_json_requests0NtB2_15LoudCustomPagesNtNtNtBc_11error_pages8renderer17ErrorPageRenderer12render_error
FN:292,_RNvNtNtCs39mWnhFxKmJ_10autumn_web10middleware17error_page_filter20fallback_404_handler
FN:31,_RNvXNtNtCs39mWnhFxKmJ_10autumn_web10middleware17error_page_filterNtB2_15ErrorPageFilterNtNtB4_16exception_filter15ExceptionFilter6filter
FNDA:2,_RNvNtNtCslNlzF6u6e2e_10autumn_web10middleware17error_page_filter20fallback_404_handler
FNDA:4,_RNvXNtNtCslNlzF6u6e2e_10autumn_web10middleware17error_page_filterNtB2_15ErrorPageFilterNtNtB4_16exception_filter15ExceptionFilter6filter
FNDA:54,_RINvNtNtCslNlzF6u6e2e_10autumn_web10middleware17error_page_filter12accepts_htmlNtNtCsemqjQd4VUoN_9axum_core4body4BodyEB6_
FNDA:0,_RNCINvNtNtCslNlzF6u6e2e_10autumn_web10middleware17error_page_filter12accepts_htmlNtNtCsemqjQd4VUoN_9axum_core4body4BodyE0B8_
FNDA:0,_RNCINvNtNtCslNlzF6u6e2e_10autumn_web10middleware17error_page_filter12accepts_htmlNtNtCsemqjQd4VUoN_9axum_core4body4BodyEs0_0B8_
FNDA:0,_RNCINvNtNtCslNlzF6u6e2e_10autumn_web10middleware17error_page_filter12accepts_htmlNtNtCsemqjQd4VUoN_9axum_core4body4BodyEs1_0B8_
FNDA:0,_RNCINvNtNtCslNlzF6u6e2e_10autumn_web10middleware17error_page_filter12accepts_htmlNtNtCsemqjQd4VUoN_9axum_core4body4BodyEs_0B8_
FNDA:2,_RNCNvNtNtCslNlzF6u6e2e_10autumn_web10middleware17error_page_filter20fallback_404_handler0B7_
FNDA:0,_RNCNvXNtNtCslNlzF6u6e2e_10autumn_web10middleware17error_page_filterNtB4_15ErrorPageFilterNtNtB6_16exception_filter15ExceptionFilter6filters0_0B8_
FNDA:0,_RNCNvXNtNtCslNlzF6u6e2e_10autumn_web10middleware17error_page_filterNtB4_15ErrorPageFilterNtNtB6_16exception_filter15ExceptionFilter6filters_0B8_
FNDA:54,_RNvXs0_NtNtCslNlzF6u6e2e_10autumn_web10middleware17error_page_filterINtB5_23ErrorPageContextServiceNtNtNtCs2SFNBOiMNMK_4axum7routing5route5RouteEINtCs9j4nKNK4ihi_13tower_service7ServiceINtNtCs9nCgvg33Qqo_4http7request7RequestNtNtCsemqjQd4VUoN_9axum_core4body4BodyEE10poll_readyB9_
FNDA:54,_RNvXs0_NtNtCslNlzF6u6e2e_10autumn_web10middleware17error_page_filterINtB5_23ErrorPageContextServiceNtNtNtCs2SFNBOiMNMK_4axum7routing5route5RouteEINtCs9j4nKNK4ihi_13tower_service7ServiceINtNtCs9nCgvg33Qqo_4http7request7RequestNtNtCsemqjQd4VUoN_9axum_core4body4BodyEE4callB9_
FNDA:56,_RNvXs1_NtNtCslNlzF6u6e2e_10autumn_web10middleware17error_page_filterINtB5_22ErrorPageContextFutureINtNtNtCs2SFNBOiMNMK_4axum7routing5route11RouteFutureNtNtCs4kUJL3MZFFz_4core7convert10InfallibleEENtNtNtB2t_6future6future6Future4pollB9_
FNDA:1058,_RNvXs_NtNtCslNlzF6u6e2e_10autumn_web10middleware17error_page_filterNtB4_21ErrorPageContextLayerINtCscMAT8yzRe8V_11tower_layer5LayerNtNtNtCs2SFNBOiMNMK_4axum7routing5route5RouteE5layerB8_
FNDA:1,_RNCNCNCNvNtNtNtCs39mWnhFxKmJ_10autumn_web10middleware17error_page_filter5testss_21custom_renderer_works000Bd_
FNDA:1,_RNCNCNCNvNtNtNtCs39mWnhFxKmJ_10autumn_web10middleware17error_page_filter5testss_44custom_renderer_is_ignored_for_json_requests000Bd_
FNDA:1,_RNCNCNvNtNtNtCs39mWnhFxKmJ_10autumn_web10middleware17error_page_filter5tests28test_router_with_error_pages00Bb_
FNDA:1,_RNCNCNvNtNtNtCs39mWnhFxKmJ_10autumn_web10middleware17error_page_filter5tests28test_router_with_error_pagess0_00Bb_
FNDA:1,_RNCNCNvNtNtNtCs39mWnhFxKmJ_10autumn_web10middleware17error_page_filter5tests28test_router_with_error_pagess_00Bb_
FNDA:1,_RNCNCNvNtNtNtCs39mWnhFxKmJ_10autumn_web10middleware17error_page_filter5testss_21custom_renderer_works00Bb_
FNDA:1,_RNCNCNvNtNtNtCs39mWnhFxKmJ_10autumn_web10middleware17error_page_filter5testss_44custom_renderer_is_ignored_for_json_requests00Bb_
FNDA:1,_RNCNvNtNtNtCs39mWnhFxKmJ_10autumn_web10middleware17error_page_filter5tests28test_router_with_error_pages0B9_
FNDA:1,_RNCNvNtNtNtCs39mWnhFxKmJ_10autumn_web10middleware17error_page_filter5tests28test_router_with_error_pagess0_0B9_
FNDA:1,_RNCNvNtNtNtCs39mWnhFxKmJ_10autumn_web10middleware17error_page_filter5tests28test_router_with_error_pagess_0B9_
FNDA:1,_RNCNvNtNtNtCs39mWnhFxKmJ_10autumn_web10middleware17error_page_filter5testss_21custom_renderer_works0B9_
FNDA:1,_RNCNvNtNtNtCs39mWnhFxKmJ_10autumn_web10middleware17error_page_filter5testss_25json_api_gets_json_errors0B9_
FNDA:1,_RNCNvNtNtNtCs39mWnhFxKmJ_10autumn_web10middleware17error_page_filter5testss_28html_404_returns_styled_page0B9_
FNDA:1,_RNCNvNtNtNtCs39mWnhFxKmJ_10autumn_web10middleware17error_page_filter5testss_28html_500_returns_styled_page0B9_
FNDA:1,_RNCNvNtNtNtCs39mWnhFxKmJ_10autumn_web10middleware17error_page_filter5testss_29dev_badge_appears_in_dev_mode0B9_
FNDA:1,_RNCNvNtNtNtCs39mWnhFxKmJ_10autumn_web10middleware17error_page_filter5testss_29dev_badge_hidden_in_prod_mode0B9_
FNDA:1,_RNCNvNtNtNtCs39mWnhFxKmJ_10autumn_web10middleware17error_page_filter5testss_30success_responses_not_affected0B9_
FNDA:1,_RNCNvNtNtNtCs39mWnhFxKmJ_10autumn_web10middleware17error_page_filter5testss_35fallback_404_handler_with_root_path0B9_
FNDA:1,_RNCNvNtNtNtCs39mWnhFxKmJ_10autumn_web10middleware17error_page_filter5testss_41fallback_404_handler_ignores_query_params0B9_
FNDA:1,_RNCNvNtNtNtCs39mWnhFxKmJ_10autumn_web10middleware17error_page_filter5testss_42fallback_404_handler_creates_correct_error0B9_
FNDA:1,_RNCNvNtNtNtCs39mWnhFxKmJ_10autumn_web10middleware17error_page_filter5testss_44custom_renderer_is_ignored_for_json_requests0B9_
FNDA:47,_RINvNtNtCs39mWnhFxKmJ_10autumn_web10middleware17error_page_filter12accepts_htmlNtNtCsemqjQd4VUoN_9axum_core4body4BodyEB6_
FNDA:15,_RNCINvNtNtCs39mWnhFxKmJ_10autumn_web10middleware17error_page_filter12accepts_htmlNtNtCsemqjQd4VUoN_9axum_core4body4BodyE0B8_
FNDA:0,_RNCINvNtNtCs39mWnhFxKmJ_10autumn_web10middleware17error_page_filter12accepts_htmlNtNtCsemqjQd4VUoN_9axum_core4body4BodyEs0_0B8_
FNDA:0,_RNCINvNtNtCs39mWnhFxKmJ_10autumn_web10middleware17error_page_filter12accepts_htmlNtNtCsemqjQd4VUoN_9axum_core4body4BodyEs1_0B8_
FNDA:0,_RNCINvNtNtCs39mWnhFxKmJ_10autumn_web10middleware17error_page_filter12accepts_htmlNtNtCsemqjQd4VUoN_9axum_core4body4BodyEs_0B8_
FNDA:9,_RNCNvNtNtCs39mWnhFxKmJ_10autumn_web10middleware17error_page_filter20fallback_404_handler0B7_
FNDA:5,_RNCNvXNtNtCs39mWnhFxKmJ_10autumn_web10middleware17error_page_filterNtB4_15ErrorPageFilterNtNtB6_16exception_filter15ExceptionFilter6filters0_0B8_
FNDA:5,_RNCNvXNtNtCs39mWnhFxKmJ_10autumn_web10middleware17error_page_filterNtB4_15ErrorPageFilterNtNtB6_16exception_filter15ExceptionFilter6filters_0B8_
FNDA:39,_RNvXs0_NtNtCs39mWnhFxKmJ_10autumn_web10middleware17error_page_filterINtB5_23ErrorPageContextServiceNtNtNtCs2SFNBOiMNMK_4axum7routing5route5RouteEINtCs9j4nKNK4ihi_13tower_service7ServiceINtNtCs9nCgvg33Qqo_4http7request7RequestNtNtCsemqjQd4VUoN_9axum_core4body4BodyEE10poll_readyB9_
FNDA:39,_RNvXs0_NtNtCs39mWnhFxKmJ_10autumn_web10middleware17error_page_filterINtB5_23ErrorPageContextServiceNtNtNtCs2SFNBOiMNMK_4axum7routing5route5RouteEINtCs9j4nKNK4ihi_13tower_service7ServiceINtNtCs9nCgvg33Qqo_4http7request7RequestNtNtCsemqjQd4VUoN_9axum_core4body4BodyEE4callB9_
FNDA:42,_RNvXs1_NtNtCs39mWnhFxKmJ_10autumn_web10middleware17error_page_filterINtB5_22ErrorPageContextFutureINtNtNtCs2SFNBOiMNMK_4axum7routing5route11RouteFutureNtNtCs4kUJL3MZFFz_4core7convert10InfallibleEENtNtNtB2t_6future6future6Future4pollB9_
FNDA:917,_RNvXs_NtNtCs39mWnhFxKmJ_10autumn_web10middleware17error_page_filterNtB4_21ErrorPageContextLayerINtCscMAT8yzRe8V_11tower_layer5LayerNtNtNtCs2SFNBOiMNMK_4axum7routing5route5RouteE5layerB8_
FNDA:6,_RNvNtNtNtCs39mWnhFxKmJ_10autumn_web10middleware17error_page_filter5tests28test_router_with_error_pages
FNDA:1,_RNvNtNtNtCs39mWnhFxKmJ_10autumn_web10middleware17error_page_filter5testss_21custom_renderer_works
FNDA:1,_RNvNtNtNtCs39mWnhFxKmJ_10autumn_web10middleware17error_page_filter5testss_24accepts_html_for_browser
FNDA:1,_RNvNtNtNtCs39mWnhFxKmJ_10autumn_web10middleware17error_page_filter5testss_25accepts_html_for_wildcard
FNDA:1,_RNvNtNtNtCs39mWnhFxKmJ_10autumn_web10middleware17error_page_filter5testss_25json_api_gets_json_errors
FNDA:1,_RNvNtNtNtCs39mWnhFxKmJ_10autumn_web10middleware17error_page_filter5testss_25rejects_html_for_json_api
FNDA:1,_RNvNtNtNtCs39mWnhFxKmJ_10autumn_web10middleware17error_page_filter5testss_28html_404_returns_styled_page
FNDA:1,_RNvNtNtNtCs39mWnhFxKmJ_10autumn_web10middleware17error_page_filter5testss_28html_500_returns_styled_page
FNDA:1,_RNvNtNtNtCs39mWnhFxKmJ_10autumn_web10middleware17error_page_filter5testss_28prefers_html_when_html_first
FNDA:1,_RNvNtNtNtCs39mWnhFxKmJ_10autumn_web10middleware17error_page_filter5testss_28prefers_json_when_json_first
FNDA:1,_RNvNtNtNtCs39mWnhFxKmJ_10autumn_web10middleware17error_page_filter5testss_29dev_badge_appears_in_dev_mode
FNDA:1,_RNvNtNtNtCs39mWnhFxKmJ_10autumn_web10middleware17error_page_filter5testss_29dev_badge_hidden_in_prod_mode
FNDA:1,_RNvNtNtNtCs39mWnhFxKmJ_10autumn_web10middleware17error_page_filter5testss_29rejects_html_for_empty_accept
FNDA:1,_RNvNtNtNtCs39mWnhFxKmJ_10autumn_web10middleware17error_page_filter5testss_30success_responses_not_affected
FNDA:1,_RNvNtNtNtCs39mWnhFxKmJ_10autumn_web10middleware17error_page_filter5testss_35fallback_404_handler_with_root_path
FNDA:1,_RNvNtNtNtCs39mWnhFxKmJ_10autumn_web10middleware17error_page_filter5testss_35prefers_html_when_html_has_higher_q
FNDA:1,_RNvNtNtNtCs39mWnhFxKmJ_10autumn_web10middleware17error_page_filter5testss_35prefers_json_when_json_has_higher_q
FNDA:1,_RNvNtNtNtCs39mWnhFxKmJ_10autumn_web10middleware17error_page_filter5testss_41fallback_404_handler_ignores_query_params
FNDA:1,_RNvNtNtNtCs39mWnhFxKmJ_10autumn_web10middleware17error_page_filter5testss_42fallback_404_handler_creates_correct_error
FNDA:1,_RNvNtNtNtCs39mWnhFxKmJ_10autumn_web10middleware17error_page_filter5testss_44custom_renderer_is_ignored_for_json_requests
FNDA:1,_RNvXNCNvNtNtNtCs39mWnhFxKmJ_10autumn_web10middleware17error_page_filter5testss_21custom_renderer_works0NtB2_11CustomPagesNtNtNtBc_11error_pages8renderer17ErrorPageRenderer12render_error
FNDA:0,_RNvXNCNvNtNtNtCs39mWnhFxKmJ_10autumn_web10middleware17error_page_filter5testss_44custom_renderer_is_ignored_for_json_requests0NtB2_15LoudCustomPagesNtNtNtBc_11error_pages8renderer17ErrorPageRenderer12render_error
FNDA:9,_RNvNtNtCs39mWnhFxKmJ_10autumn_web10middleware17error_page_filter20fallback_404_handler
FNDA:10,_RNvXNtNtCs39mWnhFxKmJ_10autumn_web10middleware17error_page_filterNtB2_15ErrorPageFilterNtNtB4_16exception_filter15ExceptionFilter6filter
FNF:57
FNH:53
DA:31,14
DA:34,14
DA:35,14
DA:36,14
DA:37,14
DA:39,14
DA:40,9
DA:41,5
DA:43,5
DA:44,5
DA:45,5
DA:46,5
DA:47,5
DA:48,5
DA:49,5
DA:50,5
DA:52,5
DA:53,5
DA:54,5
DA:55,5
DA:56,5
DA:58,5
DA:59,5
DA:60,5
DA:61,5
DA:62,5
DA:63,5
DA:64,5
DA:65,5
DA:67,5
DA:68,5
DA:69,5
DA:72,5
DA:73,1
DA:74,1
DA:75,1
DA:76,1
DA:77,1
DA:78,1
DA:79,1
DA:80,1
DA:81,1
DA:82,1
DA:83,1
DA:84,1
DA:85,1
DA:86,1
DA:87,1
DA:88,1
DA:89,0
DA:90,0
DA:91,4
DA:93,5
DA:95,5
DA:96,5
DA:97,5
DA:98,5
DA:99,5
DA:100,5
DA:103,5
DA:107,5
DA:108,5
DA:109,5
DA:112,5
DA:113,14
DA:139,1975
DA:140,1975
DA:141,1975
DA:157,93
DA:158,93
DA:159,93
DA:160,93
DA:161,93
DA:162,93
DA:164,93
DA:165,93
DA:166,93
DA:167,93
DA:168,93
DA:169,93
DA:170,93
DA:172,93
DA:173,93
DA:174,93
DA:175,93
DA:176,93
DA:177,93
DA:178,93
DA:197,98
DA:198,98
DA:199,98
DA:200,98
DA:201,98
DA:202,98
DA:203,92
DA:204,92
DA:205,92
DA:206,92
DA:207,92
DA:208,92
DA:209,92
DA:210,92
DA:211,92
DA:213,6
DA:215,98
DA:222,101
DA:223,101
DA:224,101
DA:225,101
DA:226,101
DA:227,101
DA:230,101
DA:231,86
DA:232,15
DA:234,15
DA:235,15
DA:236,15
DA:238,21
DA:239,21
DA:240,21
DA:241,0
DA:242,21
DA:244,21
DA:245,21
DA:247,26
DA:248,26
DA:249,26
DA:250,21
DA:251,21
DA:252,5
DA:254,5
DA:255,5
DA:256,5
DA:257,5
DA:258,0
DA:261,2
DA:262,21
DA:263,11
DA:264,11
DA:265,10
DA:266,7
DA:267,7
DA:268,3
DA:269,2
DA:270,2
DA:271,1
DA:275,15
DA:276,4
DA:277,4
DA:278,2
DA:280,2
DA:283,8
DA:284,3
DA:286,101
DA:292,11
DA:293,11
DA:294,11
DA:303,1
DA:304,1
DA:305,1
DA:306,1
DA:307,1
DA:308,1
DA:309,1
DA:312,1
DA:313,1
DA:314,1
DA:315,1
DA:316,1
DA:317,1
DA:318,1
DA:321,1
DA:322,1
DA:323,1
DA:324,1
DA:327,1
DA:328,1
DA:329,1
DA:330,1
DA:331,1
DA:332,1
DA:333,1
DA:336,1
DA:337,1
DA:338,1
DA:339,1
DA:340,1
DA:341,1
DA:342,1
DA:345,1
DA:346,1
DA:347,1
DA:348,1
DA:349,1
DA:350,1
DA:351,1
DA:354,1
DA:355,1
DA:356,1
DA:357,1
DA:358,1
DA:359,1
DA:360,1
DA:363,1
DA:364,1
DA:365,1
DA:366,1
DA:367,1
DA:368,1
DA:369,1
DA:385,6
DA:386,6
DA:387,6
DA:388,6
DA:389,6
DA:391,6
DA:392,6
DA:393,6
DA:394,6
DA:395,6
DA:397,6
DA:398,6
DA:399,6
DA:400,1
DA:401,1
DA:402,1
DA:403,2
DA:405,6
DA:406,6
DA:407,6
DA:408,6
DA:411,1
DA:412,1
DA:413,1
DA:414,1
DA:415,1
DA:416,1
DA:417,1
DA:418,1
DA:419,1
DA:420,1
DA:421,1
DA:422,1
DA:424,1
DA:426,1
DA:427,1
DA:428,1
DA:429,1
DA:430,1
DA:431,1
DA:432,1
DA:433,1
DA:435,1
DA:436,1
DA:437,1
DA:439,1
DA:440,1
DA:441,1
DA:442,1
DA:443,1
DA:444,1
DA:445,1
DA:446,1
DA:447,1
DA:450,1
DA:451,1
DA:452,1
DA:453,1
DA:454,1
DA:455,1
DA:456,1
DA:457,1
DA:458,1
DA:459,1
DA:460,1
DA:461,1
DA:463,1
DA:464,1
DA:465,1
DA:466,1
DA:467,1
DA:468,1
DA:469,1
DA:470,1
DA:471,1
DA:472,1
DA:473,1
DA:474,1
DA:477,1
DA:478,1
DA:479,1
DA:480,1
DA:481,1
DA:482,1
DA:483,1
DA:484,1
DA:485,1
DA:486,1
DA:487,1
DA:488,1
DA:490,1
DA:491,1
DA:492,1
DA:493,1
DA:494,1
DA:495,1
DA:496,1
DA:497,1
DA:498,1
DA:501,1
DA:502,1
DA:503,1
DA:504,1
DA:505,1
DA:506,1
DA:509,1
DA:510,1
DA:511,1
DA:512,1
DA:513,1
DA:514,1
DA:515,1
DA:516,1
DA:517,1
DA:518,1
DA:519,1
DA:520,1
DA:522,1
DA:523,1
DA:524,1
DA:525,1
DA:526,1
DA:527,1
DA:528,1
DA:529,1
DA:530,1
DA:531,1
DA:534,1
DA:535,1
DA:536,1
DA:537,1
DA:538,1
DA:539,1
DA:540,1
DA:541,1
DA:542,1
DA:543,1
DA:544,1
DA:545,1
DA:547,1
DA:548,1
DA:549,1
DA:550,1
DA:551,1
DA:552,1
DA:553,1
DA:554,1
DA:555,1
DA:558,1
DA:564,1
DA:565,1
DA:566,1
DA:568,1
DA:571,1
DA:572,1
DA:573,1
DA:574,1
DA:575,1
DA:576,1
DA:577,1
DA:579,1
DA:580,1
DA:581,1
DA:582,2
DA:584,1
DA:585,1
DA:587,1
DA:588,1
DA:589,1
DA:590,1
DA:591,1
DA:592,1
DA:593,1
DA:594,1
DA:595,1
DA:596,1
DA:598,1
DA:599,1
DA:600,1
DA:601,1
DA:602,1
DA:603,1
DA:604,1
DA:605,1
DA:606,1
DA:607,1
DA:610,1
DA:616,0
DA:617,0
DA:618,0
DA:620,0
DA:623,1
DA:624,1
DA:625,1
DA:626,1
DA:627,1
DA:628,1
DA:629,1
DA:631,1
DA:632,1
DA:633,1
DA:634,2
DA:636,1
DA:637,1
DA:639,1
DA:640,1
DA:641,1
DA:642,1
DA:643,1
DA:644,1
DA:645,1
DA:646,1
DA:647,1
DA:648,1
DA:650,1
DA:651,1
DA:652,1
DA:653,1
DA:654,1
DA:655,1
DA:656,1
DA:657,1
DA:658,1
DA:662,1
DA:663,1
DA:664,1
DA:665,1
DA:666,1
DA:667,1
DA:668,1
DA:669,1
DA:670,1
DA:673,1
DA:674,1
DA:675,1
DA:676,1
DA:677,1
DA:678,1
DA:679,1
DA:680,1
DA:681,1
DA:682,1
DA:683,1
DA:684,1
DA:686,1
DA:687,1
DA:688,1
DA:689,1
DA:690,1
DA:691,1
DA:694,1
DA:695,1
DA:696,1
DA:698,1
DA:699,1
DA:700,1
DA:703,1
DA:704,1
DA:705,1
DA:707,1
DA:708,1
DA:709,1
DA:712,1
DA:713,1
DA:714,1
DA:716,1
DA:717,1
DA:718,1
BRF:0
BRH:0
LF:523
LH:512
end_of_record
SF:/app/autumn/src/middleware/exception_filter.rs
FN:72,_RNvMNtNtCslNlzF6u6e2e_10autumn_web10middleware16exception_filterNtB2_15AutumnErrorInfo21into_default_response
FN:127,_RNvMs_NtNtCslNlzF6u6e2e_10autumn_web10middleware16exception_filterNtB4_20ExceptionFilterLayer3new
FN:137,_RNvXs0_NtNtCslNlzF6u6e2e_10autumn_web10middleware16exception_filterNtB5_20ExceptionFilterLayerINtCscMAT8yzRe8V_11tower_layer5LayerNtNtNtCs2SFNBOiMNMK_4axum7routing5route5RouteE5layerB9_
FN:160,_RNvXs1_NtNtCslNlzF6u6e2e_10autumn_web10middleware16exception_filterINtB5_22ExceptionFilterServiceNtNtNtCs2SFNBOiMNMK_4axum7routing5route5RouteEINtCs9j4nKNK4ihi_13tower_service7ServiceINtNtCs9nCgvg33Qqo_4http7request7RequestNtNtCsemqjQd4VUoN_9axum_core4body4BodyEE10poll_readyB9_
FN:164,_RNvXs1_NtNtCslNlzF6u6e2e_10autumn_web10middleware16exception_filterINtB5_22ExceptionFilterServiceNtNtNtCs2SFNBOiMNMK_4axum7routing5route5RouteEINtCs9j4nKNK4ihi_13tower_service7ServiceINtNtCs9nCgvg33Qqo_4http7request7RequestNtNtCsemqjQd4VUoN_9axum_core4body4BodyEE4callB9_
FN:187,_RNvXs2_NtNtCslNlzF6u6e2e_10autumn_web10middleware16exception_filterINtB5_21ExceptionFilterFutureINtNtNtCs2SFNBOiMNMK_4axum7routing5route11RouteFutureNtNtCs4kUJL3MZFFz_4core7convert10InfallibleEENtNtNtB2r_6future6future6Future4pollB9_
FN:239,_RNCNCNCNvNtNtNtCs39mWnhFxKmJ_10autumn_web10middleware16exception_filter5testss_26filter_receives_error_info000Bd_
FN:266,_RNCNCNCNvNtNtNtCs39mWnhFxKmJ_10autumn_web10middleware16exception_filter5testss_27filter_can_replace_response000Bd_
FN:329,_RNCNCNCNvNtNtNtCs39mWnhFxKmJ_10autumn_web10middleware16exception_filter5testss_29multiple_filters_run_in_order000Bd_
FN:297,_RNCNCNCNvNtNtNtCs39mWnhFxKmJ_10autumn_web10middleware16exception_filter5testss_32success_responses_bypass_filters000Bd_
FN:241,_RNCNCNvNtNtNtCs39mWnhFxKmJ_10autumn_web10middleware16exception_filter5testss_26filter_receives_error_info00Bb_
FN:266,_RNCNCNvNtNtNtCs39mWnhFxKmJ_10autumn_web10middleware16exception_filter5testss_27filter_can_replace_response00Bb_
FN:329,_RNCNCNvNtNtNtCs39mWnhFxKmJ_10autumn_web10middleware16exception_filter5testss_29multiple_filters_run_in_order00Bb_
FN:297,_RNCNCNvNtNtNtCs39mWnhFxKmJ_10autumn_web10middleware16exception_filter5testss_32success_responses_bypass_filters00Bb_
FN:221,_RNCNvNtNtNtCs39mWnhFxKmJ_10autumn_web10middleware16exception_filter5testss_26filter_receives_error_info0B9_
FN:255,_RNCNvNtNtNtCs39mWnhFxKmJ_10autumn_web10middleware16exception_filter5testss_27filter_can_replace_response0B9_
FN:310,_RNCNvNtNtNtCs39mWnhFxKmJ_10autumn_web10middleware16exception_filter5testss_29multiple_filters_run_in_order0B9_
FN:283,_RNCNvNtNtNtCs39mWnhFxKmJ_10autumn_web10middleware16exception_filter5testss_32success_responses_bypass_filters0B9_
FN:137,_RNvXs0_NtNtCs39mWnhFxKmJ_10autumn_web10middleware16exception_filterNtB5_20ExceptionFilterLayerINtCscMAT8yzRe8V_11tower_layer5LayerNtNtNtCs2SFNBOiMNMK_4axum7routing5route5RouteE5layerB9_
FN:160,_RNvXs1_NtNtCs39mWnhFxKmJ_10autumn_web10middleware16exception_filterINtB5_22ExceptionFilterServiceNtNtNtCs2SFNBOiMNMK_4axum7routing5route5RouteEINtCs9j4nKNK4ihi_13tower_service7ServiceINtNtCs9nCgvg33Qqo_4http7request7RequestNtNtCsemqjQd4VUoN_9axum_core4body4BodyEE10poll_readyB9_
FN:164,_RNvXs1_NtNtCs39mWnhFxKmJ_10autumn_web10middleware16exception_filterINtB5_22ExceptionFilterServiceNtNtNtCs2SFNBOiMNMK_4axum7routing5route5RouteEINtCs9j4nKNK4ihi_13tower_service7ServiceINtNtCs9nCgvg33Qqo_4http7request7RequestNtNtCsemqjQd4VUoN_9axum_core4body4BodyEE4callB9_
FN:187,_RNvXs2_NtNtCs39mWnhFxKmJ_10autumn_web10middleware16exception_filterINtB5_21ExceptionFilterFutureINtNtNtCs2SFNBOiMNMK_4axum7routing5route11RouteFutureNtNtCs4kUJL3MZFFz_4core7convert10InfallibleEENtNtNtB2r_6future6future6Future4pollB9_
FN:72,_RNvMNtNtCs39mWnhFxKmJ_10autumn_web10middleware16exception_filterNtB2_15AutumnErrorInfo21into_default_response
FN:127,_RNvMs_NtNtCs39mWnhFxKmJ_10autumn_web10middleware16exception_filterNtB4_20ExceptionFilterLayer3new
FN:221,_RNvNtNtNtCs39mWnhFxKmJ_10autumn_web10middleware16exception_filter5testss_26filter_receives_error_info
FN:255,_RNvNtNtNtCs39mWnhFxKmJ_10autumn_web10middleware16exception_filter5testss_27filter_can_replace_response
FN:310,_RNvNtNtNtCs39mWnhFxKmJ_10autumn_web10middleware16exception_filter5testss_29multiple_filters_run_in_order
FN:345,_RNvNtNtNtCs39mWnhFxKmJ_10autumn_web10middleware16exception_filter5testss_32error_info_into_default_response
FN:283,_RNvNtNtNtCs39mWnhFxKmJ_10autumn_web10middleware16exception_filter5testss_32success_responses_bypass_filters
FN:228,_RNvXNCNvNtNtNtCs39mWnhFxKmJ_10autumn_web10middleware16exception_filter5testss_26filter_receives_error_info0NtB2_10TestFilterNtB8_15ExceptionFilter6filter
FN:258,_RNvXNCNvNtNtNtCs39mWnhFxKmJ_10autumn_web10middleware16exception_filter5testss_27filter_can_replace_response0NtB2_13ReplaceFilterNtB8_15ExceptionFilter6filter
FN:317,_RNvXNCNvNtNtNtCs39mWnhFxKmJ_10autumn_web10middleware16exception_filter5testss_29multiple_filters_run_in_order0NtB2_11OrderFilterNtB8_15ExceptionFilter6filter
FN:290,_RNvXNCNvNtNtNtCs39mWnhFxKmJ_10autumn_web10middleware16exception_filter5testss_32success_responses_bypass_filters0NtB2_11NeverFilterNtB8_15ExceptionFilter6filter
FNDA:0,_RNvMNtNtCslNlzF6u6e2e_10autumn_web10middleware16exception_filterNtB2_15AutumnErrorInfo21into_default_response
FNDA:33,_RNvMs_NtNtCslNlzF6u6e2e_10autumn_web10middleware16exception_filterNtB4_20ExceptionFilterLayer3new
FNDA:1065,_RNvXs0_NtNtCslNlzF6u6e2e_10autumn_web10middleware16exception_filterNtB5_20ExceptionFilterLayerINtCscMAT8yzRe8V_11tower_layer5LayerNtNtNtCs2SFNBOiMNMK_4axum7routing5route5RouteE5layerB9_
FNDA:56,_RNvXs1_NtNtCslNlzF6u6e2e_10autumn_web10middleware16exception_filterINtB5_22ExceptionFilterServiceNtNtNtCs2SFNBOiMNMK_4axum7routing5route5RouteEINtCs9j4nKNK4ihi_13tower_service7ServiceINtNtCs9nCgvg33Qqo_4http7request7RequestNtNtCsemqjQd4VUoN_9axum_core4body4BodyEE10poll_readyB9_
FNDA:56,_RNvXs1_NtNtCslNlzF6u6e2e_10autumn_web10middleware16exception_filterINtB5_22ExceptionFilterServiceNtNtNtCs2SFNBOiMNMK_4axum7routing5route5RouteEINtCs9j4nKNK4ihi_13tower_service7ServiceINtNtCs9nCgvg33Qqo_4http7request7RequestNtNtCsemqjQd4VUoN_9axum_core4body4BodyEE4callB9_
FNDA:58,_RNvXs2_NtNtCslNlzF6u6e2e_10autumn_web10middleware16exception_filterINtB5_21ExceptionFilterFutureINtNtNtCs2SFNBOiMNMK_4axum7routing5route11RouteFutureNtNtCs4kUJL3MZFFz_4core7convert10InfallibleEENtNtNtB2r_6future6future6Future4pollB9_
FNDA:1,_RNCNCNCNvNtNtNtCs39mWnhFxKmJ_10autumn_web10middleware16exception_filter5testss_26filter_receives_error_info000Bd_
FNDA:1,_RNCNCNCNvNtNtNtCs39mWnhFxKmJ_10autumn_web10middleware16exception_filter5testss_27filter_can_replace_response000Bd_
FNDA:1,_RNCNCNCNvNtNtNtCs39mWnhFxKmJ_10autumn_web10middleware16exception_filter5testss_29multiple_filters_run_in_order000Bd_
FNDA:1,_RNCNCNCNvNtNtNtCs39mWnhFxKmJ_10autumn_web10middleware16exception_filter5testss_32success_responses_bypass_filters000Bd_
FNDA:1,_RNCNCNvNtNtNtCs39mWnhFxKmJ_10autumn_web10middleware16exception_filter5testss_26filter_receives_error_info00Bb_
FNDA:1,_RNCNCNvNtNtNtCs39mWnhFxKmJ_10autumn_web10middleware16exception_filter5testss_27filter_can_replace_response00Bb_
FNDA:1,_RNCNCNvNtNtNtCs39mWnhFxKmJ_10autumn_web10middleware16exception_filter5testss_29multiple_filters_run_in_order00Bb_
FNDA:1,_RNCNCNvNtNtNtCs39mWnhFxKmJ_10autumn_web10middleware16exception_filter5testss_32success_responses_bypass_filters00Bb_
FNDA:1,_RNCNvNtNtNtCs39mWnhFxKmJ_10autumn_web10middleware16exception_filter5testss_26filter_receives_error_info0B9_
FNDA:1,_RNCNvNtNtNtCs39mWnhFxKmJ_10autumn_web10middleware16exception_filter5testss_27filter_can_replace_response0B9_
FNDA:1,_RNCNvNtNtNtCs39mWnhFxKmJ_10autumn_web10middleware16exception_filter5testss_29multiple_filters_run_in_order0B9_
FNDA:1,_RNCNvNtNtNtCs39mWnhFxKmJ_10autumn_web10middleware16exception_filter5testss_32success_responses_bypass_filters0B9_
FNDA:937,_RNvXs0_NtNtCs39mWnhFxKmJ_10autumn_web10middleware16exception_filterNtB5_20ExceptionFilterLayerINtCscMAT8yzRe8V_11tower_layer5LayerNtNtNtCs2SFNBOiMNMK_4axum7routing5route5RouteE5layerB9_
FNDA:43,_RNvXs1_NtNtCs39mWnhFxKmJ_10autumn_web10middleware16exception_filterINtB5_22ExceptionFilterServiceNtNtNtCs2SFNBOiMNMK_4axum7routing5route5RouteEINtCs9j4nKNK4ihi_13tower_service7ServiceINtNtCs9nCgvg33Qqo_4http7request7RequestNtNtCsemqjQd4VUoN_9axum_core4body4BodyEE10poll_readyB9_
FNDA:43,_RNvXs1_NtNtCs39mWnhFxKmJ_10autumn_web10middleware16exception_filterINtB5_22ExceptionFilterServiceNtNtNtCs2SFNBOiMNMK_4axum7routing5route5RouteEINtCs9j4nKNK4ihi_13tower_service7ServiceINtNtCs9nCgvg33Qqo_4http7request7RequestNtNtCsemqjQd4VUoN_9axum_core4body4BodyEE4callB9_
FNDA:46,_RNvXs2_NtNtCs39mWnhFxKmJ_10autumn_web10middleware16exception_filterINtB5_21ExceptionFilterFutureINtNtNtCs2SFNBOiMNMK_4axum7routing5route11RouteFutureNtNtCs4kUJL3MZFFz_4core7convert10InfallibleEENtNtNtB2r_6future6future6Future4pollB9_
FNDA:1,_RNvMNtNtCs39mWnhFxKmJ_10autumn_web10middleware16exception_filterNtB2_15AutumnErrorInfo21into_default_response
FNDA:41,_RNvMs_NtNtCs39mWnhFxKmJ_10autumn_web10middleware16exception_filterNtB4_20ExceptionFilterLayer3new
FNDA:1,_RNvNtNtNtCs39mWnhFxKmJ_10autumn_web10middleware16exception_filter5testss_26filter_receives_error_info
FNDA:1,_RNvNtNtNtCs39mWnhFxKmJ_10autumn_web10middleware16exception_filter5testss_27filter_can_replace_response
FNDA:1,_RNvNtNtNtCs39mWnhFxKmJ_10autumn_web10middleware16exception_filter5testss_29multiple_filters_run_in_order
FNDA:1,_RNvNtNtNtCs39mWnhFxKmJ_10autumn_web10middleware16exception_filter5testss_32error_info_into_default_response
FNDA:1,_RNvNtNtNtCs39mWnhFxKmJ_10autumn_web10middleware16exception_filter5testss_32success_responses_bypass_filters
FNDA:1,_RNvXNCNvNtNtNtCs39mWnhFxKmJ_10autumn_web10middleware16exception_filter5testss_26filter_receives_error_info0NtB2_10TestFilterNtB8_15ExceptionFilter6filter
FNDA:1,_RNvXNCNvNtNtNtCs39mWnhFxKmJ_10autumn_web10middleware16exception_filter5testss_27filter_can_replace_response0NtB2_13ReplaceFilterNtB8_15ExceptionFilter6filter
FNDA:3,_RNvXNCNvNtNtNtCs39mWnhFxKmJ_10autumn_web10middleware16exception_filter5testss_29multiple_filters_run_in_order0NtB2_11OrderFilterNtB8_15ExceptionFilter6filter
FNDA:0,_RNvXNCNvNtNtNtCs39mWnhFxKmJ_10autumn_web10middleware16exception_filter5testss_32success_responses_bypass_filters0NtB2_11NeverFilterNtB8_15ExceptionFilter6filter
FNF:27
FNH:26
DA:72,1
DA:73,1
DA:74,1
DA:75,1
DA:76,1
DA:77,1
DA:80,1
DA:81,1
DA:127,74
DA:128,74
DA:129,74
DA:130,74
DA:131,74
DA:137,2002
DA:138,2002
DA:139,2002
DA:140,2002
DA:141,2002
DA:142,2002
DA:160,99
DA:161,99
DA:162,99
DA:164,99
DA:165,99
DA:166,99
DA:167,99
DA:168,99
DA:169,99
DA:187,104
DA:188,104
DA:189,104
DA:190,98
DA:192,98
DA:193,18
DA:194,18
DA:195,20
DA:196,20
DA:197,20
DA:198,18
DA:200,80
DA:203,0
DA:204,6
DA:206,104
DA:221,1
DA:228,1
DA:229,1
DA:230,1
DA:231,1
DA:232,1
DA:233,1
DA:236,1
DA:237,1
DA:238,1
DA:239,1
DA:240,1
DA:241,2
DA:243,1
DA:245,1
DA:246,1
DA:247,1
DA:248,1
DA:250,1
DA:251,1
DA:252,1
DA:255,1
DA:258,1
DA:259,1
DA:260,1
DA:263,1
DA:264,1
DA:265,1
DA:266,2
DA:268,1
DA:270,1
DA:271,1
DA:272,1
DA:273,1
DA:275,1
DA:276,1
DA:277,1
DA:278,1
DA:279,1
DA:280,1
DA:283,1
DA:290,0
DA:291,0
DA:292,0
DA:293,0
DA:296,1
DA:297,2
DA:298,1
DA:300,1
DA:301,1
DA:302,1
DA:303,1
DA:305,1
DA:306,1
DA:307,1
DA:310,1
DA:317,3
DA:318,3
DA:319,3
DA:320,3
DA:321,3
DA:324,1
DA:326,1
DA:327,1
DA:328,1
DA:329,2
DA:331,1
DA:332,1
DA:333,1
DA:334,1
DA:337,1
DA:338,1
DA:339,1
DA:341,1
DA:342,1
DA:345,1
DA:346,1
DA:347,1
DA:348,1
DA:349,1
DA:350,1
DA:351,1
DA:352,1
DA:353,1
BRF:0
BRH:0
LF:143
LH:138
end_of_record
SF:/app/autumn/src/middleware/metrics.rs
FN:168,_RNCNvMs_NtNtCslNlzF6u6e2e_10autumn_web10middleware7metricsNtB6_16MetricsCollector8snapshot0Ba_
FN:336,_RNvXs2_NtNtCslNlzF6u6e2e_10autumn_web10middleware7metricsNtB5_12MetricsLayerINtCscMAT8yzRe8V_11tower_layer5LayerNtNtNtCs2SFNBOiMNMK_4axum7routing5route5RouteE5layerB9_
FN:359,_RNvXs3_NtNtCslNlzF6u6e2e_10autumn_web10middleware7metricsINtB5_14MetricsServiceNtNtNtCs2SFNBOiMNMK_4axum7routing5route5RouteEINtCs9j4nKNK4ihi_13tower_service7ServiceINtNtCs9nCgvg33Qqo_4http7request7RequestNtNtCsemqjQd4VUoN_9axum_core4body4BodyEE10poll_readyB9_
FN:363,_RNvXs3_NtNtCslNlzF6u6e2e_10autumn_web10middleware7metricsINtB5_14MetricsServiceNtNtNtCs2SFNBOiMNMK_4axum7routing5route5RouteEINtCs9j4nKNK4ihi_13tower_service7ServiceINtNtCs9nCgvg33Qqo_4http7request7RequestNtNtCsemqjQd4VUoN_9axum_core4body4BodyEE4callB9_
FN:406,_RNvXs4_NtNtCslNlzF6u6e2e_10autumn_web10middleware7metricsINtB5_13MetricsFutureINtNtNtCs2SFNBOiMNMK_4axum7routing5route11RouteFutureNtNtCs4kUJL3MZFFz_4core7convert10InfallibleEENtNtNtB29_6future6future6Future4pollB9_
FN:328,_RNvMs1_NtNtCslNlzF6u6e2e_10autumn_web10middleware7metricsNtB5_12MetricsLayer3new
FN:157,_RNvMs_NtNtCslNlzF6u6e2e_10autumn_web10middleware7metricsNtB4_16MetricsCollector16decrement_active
FN:153,_RNvMs_NtNtCslNlzF6u6e2e_10autumn_web10middleware7metricsNtB4_16MetricsCollector16increment_active
FN:79,_RNvMs_NtNtCslNlzF6u6e2e_10autumn_web10middleware7metricsNtB4_16MetricsCollector3new
FN:96,_RNvMs_NtNtCslNlzF6u6e2e_10autumn_web10middleware7metricsNtB4_16MetricsCollector6record
FN:163,_RNvMs_NtNtCslNlzF6u6e2e_10autumn_web10middleware7metricsNtB4_16MetricsCollector8snapshot
FN:286,_RNvNtNtCslNlzF6u6e2e_10autumn_web10middleware7metrics19compute_percentiles
FN:64,_RNvXNtNtCslNlzF6u6e2e_10autumn_web10middleware7metricsNtB2_12RouteMetricsNtNtCs4kUJL3MZFFz_4core7default7Default7default
FN:211,_RNvXs0_NtNtCslNlzF6u6e2e_10autumn_web10middleware7metricsNtB5_16MetricsCollectorNtNtCs4kUJL3MZFFz_4core7default7Default7default
FN:211,_RNvXs0_NtNtCs39mWnhFxKmJ_10autumn_web10middleware7metricsNtB5_16MetricsCollectorNtNtCs4kUJL3MZFFz_4core7default7Default7default
FN:490,_RNCNCNCNvNtNtNtCs39mWnhFxKmJ_10autumn_web10middleware7metrics5testss_30metrics_layer_records_requests000Bd_
FN:490,_RNCNCNvNtNtNtCs39mWnhFxKmJ_10autumn_web10middleware7metrics5testss_30metrics_layer_records_requests00Bb_
FN:513,_RNCNvNtNtNtCs39mWnhFxKmJ_10autumn_web10middleware7metrics5testss_28metrics_layer_handles_errors0B9_
FN:482,_RNCNvNtNtNtCs39mWnhFxKmJ_10autumn_web10middleware7metrics5testss_30metrics_layer_records_requests0B9_
FN:328,_RNvMs1_NtNtCs39mWnhFxKmJ_10autumn_web10middleware7metricsNtB5_12MetricsLayer3new
FN:157,_RNvMs_NtNtCs39mWnhFxKmJ_10autumn_web10middleware7metricsNtB4_16MetricsCollector16decrement_active
FN:153,_RNvMs_NtNtCs39mWnhFxKmJ_10autumn_web10middleware7metricsNtB4_16MetricsCollector16increment_active
FN:79,_RNvMs_NtNtCs39mWnhFxKmJ_10autumn_web10middleware7metricsNtB4_16MetricsCollector3new
FN:96,_RNvMs_NtNtCs39mWnhFxKmJ_10autumn_web10middleware7metricsNtB4_16MetricsCollector6record
FN:163,_RNvMs_NtNtCs39mWnhFxKmJ_10autumn_web10middleware7metricsNtB4_16MetricsCollector8snapshot
FN:286,_RNvNtNtCs39mWnhFxKmJ_10autumn_web10middleware7metrics19compute_percentiles
FN:64,_RNvXNtNtCs39mWnhFxKmJ_10autumn_web10middleware7metricsNtB2_12RouteMetricsNtNtCs4kUJL3MZFFz_4core7default7Default7default
FN:455,_RNvNtNtNtCs39mWnhFxKmJ_10autumn_web10middleware7metrics5testss_24empty_collector_snapshot
FN:440,_RNvNtNtNtCs39mWnhFxKmJ_10autumn_web10middleware7metrics5testss_25collector_records_request
FN:472,_RNvNtNtNtCs39mWnhFxKmJ_10autumn_web10middleware7metrics5testss_26active_connection_tracking
FN:513,_RNvNtNtNtCs39mWnhFxKmJ_10autumn_web10middleware7metrics5testss_28metrics_layer_handles_errors
FN:482,_RNvNtNtNtCs39mWnhFxKmJ_10autumn_web10middleware7metrics5testss_30metrics_layer_records_requests
FN:464,_RNvNtNtNtCs39mWnhFxKmJ_10autumn_web10middleware7metrics5testss_30percentiles_computed_correctly
FN:527,_RNvXNCNvNtNtNtCs39mWnhFxKmJ_10autumn_web10middleware7metrics5testss_28metrics_layer_handles_errors0NtB2_14FailingServiceINtCs9j4nKNK4ihi_13tower_service7ServiceINtNtCs9nCgvg33Qqo_4http7request7RequestNtNtCsemqjQd4VUoN_9axum_core4body4BodyEE10poll_ready
FN:531,_RNvXNCNvNtNtNtCs39mWnhFxKmJ_10autumn_web10middleware7metrics5testss_28metrics_layer_handles_errors0NtB2_14FailingServiceINtCs9j4nKNK4ihi_13tower_service7ServiceINtNtCs9nCgvg33Qqo_4http7request7RequestNtNtCsemqjQd4VUoN_9axum_core4body4BodyEE4call
FN:168,_RNCNvMs_NtNtCs39mWnhFxKmJ_10autumn_web10middleware7metricsNtB6_16MetricsCollector8snapshot0Ba_
FN:336,_RNvXs2_NtNtCs39mWnhFxKmJ_10autumn_web10middleware7metricsNtB5_12MetricsLayerINtCscMAT8yzRe8V_11tower_layer5LayerNtNCNvNtB5_5testss_28metrics_layer_handles_errors014FailingServiceE5layerB9_
FN:336,_RNvXs2_NtNtCs39mWnhFxKmJ_10autumn_web10middleware7metricsNtB5_12MetricsLayerINtCscMAT8yzRe8V_11tower_layer5LayerNtNtNtCs2SFNBOiMNMK_4axum7routing5route5RouteE5layerB9_
FN:359,_RNvXs3_NtNtCs39mWnhFxKmJ_10autumn_web10middleware7metricsINtB5_14MetricsServiceNtNCNvNtB5_5testss_28metrics_layer_handles_errors014FailingServiceEINtCs9j4nKNK4ihi_13tower_service7ServiceINtNtCs9nCgvg33Qqo_4http7request7RequestNtNtCsemqjQd4VUoN_9axum_core4body4BodyEE10poll_readyB9_
FN:363,_RNvXs3_NtNtCs39mWnhFxKmJ_10autumn_web10middleware7metricsINtB5_14MetricsServiceNtNCNvNtB5_5testss_28metrics_layer_handles_errors014FailingServiceEINtCs9j4nKNK4ihi_13tower_service7ServiceINtNtCs9nCgvg33Qqo_4http7request7RequestNtNtCsemqjQd4VUoN_9axum_core4body4BodyEE4callB9_
FN:359,_RNvXs3_NtNtCs39mWnhFxKmJ_10autumn_web10middleware7metricsINtB5_14MetricsServiceNtNtNtCs2SFNBOiMNMK_4axum7routing5route5RouteEINtCs9j4nKNK4ihi_13tower_service7ServiceINtNtCs9nCgvg33Qqo_4http7request7RequestNtNtCsemqjQd4VUoN_9axum_core4body4BodyEE10poll_readyB9_
FN:363,_RNvXs3_NtNtCs39mWnhFxKmJ_10autumn_web10middleware7metricsINtB5_14MetricsServiceNtNtNtCs2SFNBOiMNMK_4axum7routing5route5RouteEINtCs9j4nKNK4ihi_13tower_service7ServiceINtNtCs9nCgvg33Qqo_4http7request7RequestNtNtCsemqjQd4VUoN_9axum_core4body4BodyEE4callB9_
FN:406,_RNvXs4_NtNtCs39mWnhFxKmJ_10autumn_web10middleware7metricsINtB5_13MetricsFutureINtNtNtCs2SFNBOiMNMK_4axum7routing5route11RouteFutureNtNtCs4kUJL3MZFFz_4core7convert10InfallibleEENtNtNtB29_6future6future6Future4pollB9_
FN:406,_RNvXs4_NtNtCs39mWnhFxKmJ_10autumn_web10middleware7metricsINtB5_13MetricsFutureINtNtNtCs4kUJL3MZFFz_4core6future5ready5ReadyINtNtB1l_6result6ResultINtNtCs9nCgvg33Qqo_4http8response8ResponseNtNtCsemqjQd4VUoN_9axum_core4body4BodyENtNtNtCsaa59N1qzrfe_3std2io5error5ErrorEEENtNtB1j_6future6Future4pollB9_
FN:336,_RNvXs2_NtNtCslNlzF6u6e2e_10autumn_web10middleware7metricsNtB5_12MetricsLayerINtCscMAT8yzRe8V_11tower_layer5LayerNtCs9ZEODoY2FYF_18chaos_metrics_leak14PendingServiceE5layerB1O_
FN:359,_RNvXs3_NtNtCslNlzF6u6e2e_10autumn_web10middleware7metricsINtB5_14MetricsServiceNtCs9ZEODoY2FYF_18chaos_metrics_leak14PendingServiceEINtCs9j4nKNK4ihi_13tower_service7ServiceINtNtCs9nCgvg33Qqo_4http7request7RequestNtNtCsemqjQd4VUoN_9axum_core4body4BodyEE10poll_readyB1h_
FN:363,_RNvXs3_NtNtCslNlzF6u6e2e_10autumn_web10middleware7metricsINtB5_14MetricsServiceNtCs9ZEODoY2FYF_18chaos_metrics_leak14PendingServiceEINtCs9j4nKNK4ihi_13tower_service7ServiceINtNtCs9nCgvg33Qqo_4http7request7RequestNtNtCsemqjQd4VUoN_9axum_core4body4BodyEE4callB1h_
FNDA:3,_RNCNvMs_NtNtCslNlzF6u6e2e_10autumn_web10middleware7metricsNtB6_16MetricsCollector8snapshot0Ba_
FNDA:1058,_RNvXs2_NtNtCslNlzF6u6e2e_10autumn_web10middleware7metricsNtB5_12MetricsLayerINtCscMAT8yzRe8V_11tower_layer5LayerNtNtNtCs2SFNBOiMNMK_4axum7routing5route5RouteE5layerB9_
FNDA:54,_RNvXs3_NtNtCslNlzF6u6e2e_10autumn_web10middleware7metricsINtB5_14MetricsServiceNtNtNtCs2SFNBOiMNMK_4axum7routing5route5RouteEINtCs9j4nKNK4ihi_13tower_service7ServiceINtNtCs9nCgvg33Qqo_4http7request7RequestNtNtCsemqjQd4VUoN_9axum_core4body4BodyEE10poll_readyB9_
FNDA:54,_RNvXs3_NtNtCslNlzF6u6e2e_10autumn_web10middleware7metricsINtB5_14MetricsServiceNtNtNtCs2SFNBOiMNMK_4axum7routing5route5RouteEINtCs9j4nKNK4ihi_13tower_service7ServiceINtNtCs9nCgvg33Qqo_4http7request7RequestNtNtCsemqjQd4VUoN_9axum_core4body4BodyEE4callB9_
FNDA:56,_RNvXs4_NtNtCslNlzF6u6e2e_10autumn_web10middleware7metricsINtB5_13MetricsFutureINtNtNtCs2SFNBOiMNMK_4axum7routing5route11RouteFutureNtNtCs4kUJL3MZFFz_4core7convert10InfallibleEENtNtNtB29_6future6future6Future4pollB9_
FNDA:33,_RNvMs1_NtNtCslNlzF6u6e2e_10autumn_web10middleware7metricsNtB5_12MetricsLayer3new
FNDA:55,_RNvMs_NtNtCslNlzF6u6e2e_10autumn_web10middleware7metricsNtB4_16MetricsCollector16decrement_active
FNDA:55,_RNvMs_NtNtCslNlzF6u6e2e_10autumn_web10middleware7metricsNtB4_16MetricsCollector16increment_active
FNDA:42,_RNvMs_NtNtCslNlzF6u6e2e_10autumn_web10middleware7metricsNtB4_16MetricsCollector3new
FNDA:53,_RNvMs_NtNtCslNlzF6u6e2e_10autumn_web10middleware7metricsNtB4_16MetricsCollector6record
FNDA:3,_RNvMs_NtNtCslNlzF6u6e2e_10autumn_web10middleware7metricsNtB4_16MetricsCollector8snapshot
FNDA:3,_RNvNtNtCslNlzF6u6e2e_10autumn_web10middleware7metrics19compute_percentiles
FNDA:40,_RNvXNtNtCslNlzF6u6e2e_10autumn_web10middleware7metricsNtB2_12RouteMetricsNtNtCs4kUJL3MZFFz_4core7default7Default7default
FNDA:0,_RNvXs0_NtNtCslNlzF6u6e2e_10autumn_web10middleware7metricsNtB5_16MetricsCollectorNtNtCs4kUJL3MZFFz_4core7default7Default7default
FNDA:0,_RNvXs0_NtNtCs39mWnhFxKmJ_10autumn_web10middleware7metricsNtB5_16MetricsCollectorNtNtCs4kUJL3MZFFz_4core7default7Default7default
FNDA:1,_RNCNCNCNvNtNtNtCs39mWnhFxKmJ_10autumn_web10middleware7metrics5testss_30metrics_layer_records_requests000Bd_
FNDA:1,_RNCNCNvNtNtNtCs39mWnhFxKmJ_10autumn_web10middleware7metrics5testss_30metrics_layer_records_requests00Bb_
FNDA:1,_RNCNvNtNtNtCs39mWnhFxKmJ_10autumn_web10middleware7metrics5testss_28metrics_layer_handles_errors0B9_
FNDA:1,_RNCNvNtNtNtCs39mWnhFxKmJ_10autumn_web10middleware7metrics5testss_30metrics_layer_records_requests0B9_
FNDA:31,_RNvMs1_NtNtCs39mWnhFxKmJ_10autumn_web10middleware7metricsNtB5_12MetricsLayer3new
FNDA:34,_RNvMs_NtNtCs39mWnhFxKmJ_10autumn_web10middleware7metricsNtB4_16MetricsCollector16decrement_active
FNDA:35,_RNvMs_NtNtCs39mWnhFxKmJ_10autumn_web10middleware7metricsNtB4_16MetricsCollector16increment_active
FNDA:98,_RNvMs_NtNtCs39mWnhFxKmJ_10autumn_web10middleware7metricsNtB4_16MetricsCollector3new
FNDA:39,_RNvMs_NtNtCs39mWnhFxKmJ_10autumn_web10middleware7metricsNtB4_16MetricsCollector6record
FNDA:8,_RNvMs_NtNtCs39mWnhFxKmJ_10autumn_web10middleware7metricsNtB4_16MetricsCollector8snapshot
FNDA:16,_RNvNtNtCs39mWnhFxKmJ_10autumn_web10middleware7metrics19compute_percentiles
FNDA:38,_RNvXNtNtCs39mWnhFxKmJ_10autumn_web10middleware7metricsNtB2_12RouteMetricsNtNtCs4kUJL3MZFFz_4core7default7Default7default
FNDA:1,_RNvNtNtNtCs39mWnhFxKmJ_10autumn_web10middleware7metrics5testss_24empty_collector_snapshot
FNDA:1,_RNvNtNtNtCs39mWnhFxKmJ_10autumn_web10middleware7metrics5testss_25collector_records_request
FNDA:1,_RNvNtNtNtCs39mWnhFxKmJ_10autumn_web10middleware7metrics5testss_26active_connection_tracking
FNDA:1,_RNvNtNtNtCs39mWnhFxKmJ_10autumn_web10middleware7metrics5testss_28metrics_layer_handles_errors
FNDA:1,_RNvNtNtNtCs39mWnhFxKmJ_10autumn_web10middleware7metrics5testss_30metrics_layer_records_requests
FNDA:1,_RNvNtNtNtCs39mWnhFxKmJ_10autumn_web10middleware7metrics5testss_30percentiles_computed_correctly
FNDA:1,_RNvXNCNvNtNtNtCs39mWnhFxKmJ_10autumn_web10middleware7metrics5testss_28metrics_layer_handles_errors0NtB2_14FailingServiceINtCs9j4nKNK4ihi_13tower_service7ServiceINtNtCs9nCgvg33Qqo_4http7request7RequestNtNtCsemqjQd4VUoN_9axum_core4body4BodyEE10poll_ready
FNDA:1,_RNvXNCNvNtNtNtCs39mWnhFxKmJ_10autumn_web10middleware7metrics5testss_28metrics_layer_handles_errors0NtB2_14FailingServiceINtCs9j4nKNK4ihi_13tower_service7ServiceINtNtCs9nCgvg33Qqo_4http7request7RequestNtNtCsemqjQd4VUoN_9axum_core4body4BodyEE4call
FNDA:8,_RNCNvMs_NtNtCs39mWnhFxKmJ_10autumn_web10middleware7metricsNtB6_16MetricsCollector8snapshot0Ba_
FNDA:1,_RNvXs2_NtNtCs39mWnhFxKmJ_10autumn_web10middleware7metricsNtB5_12MetricsLayerINtCscMAT8yzRe8V_11tower_layer5LayerNtNCNvNtB5_5testss_28metrics_layer_handles_errors014FailingServiceE5layerB9_
FNDA:888,_RNvXs2_NtNtCs39mWnhFxKmJ_10autumn_web10middleware7metricsNtB5_12MetricsLayerINtCscMAT8yzRe8V_11tower_layer5LayerNtNtNtCs2SFNBOiMNMK_4axum7routing5route5RouteE5layerB9_
FNDA:1,_RNvXs3_NtNtCs39mWnhFxKmJ_10autumn_web10middleware7metricsINtB5_14MetricsServiceNtNCNvNtB5_5testss_28metrics_layer_handles_errors014FailingServiceEINtCs9j4nKNK4ihi_13tower_service7ServiceINtNtCs9nCgvg33Qqo_4http7request7RequestNtNtCsemqjQd4VUoN_9axum_core4body4BodyEE10poll_readyB9_
FNDA:1,_RNvXs3_NtNtCs39mWnhFxKmJ_10autumn_web10middleware7metricsINtB5_14MetricsServiceNtNCNvNtB5_5testss_28metrics_layer_handles_errors014FailingServiceEINtCs9j4nKNK4ihi_13tower_service7ServiceINtNtCs9nCgvg33Qqo_4http7request7RequestNtNtCsemqjQd4VUoN_9axum_core4body4BodyEE4callB9_
FNDA:32,_RNvXs3_NtNtCs39mWnhFxKmJ_10autumn_web10middleware7metricsINtB5_14MetricsServiceNtNtNtCs2SFNBOiMNMK_4axum7routing5route5RouteEINtCs9j4nKNK4ihi_13tower_service7ServiceINtNtCs9nCgvg33Qqo_4http7request7RequestNtNtCsemqjQd4VUoN_9axum_core4body4BodyEE10poll_readyB9_
FNDA:32,_RNvXs3_NtNtCs39mWnhFxKmJ_10autumn_web10middleware7metricsINtB5_14MetricsServiceNtNtNtCs2SFNBOiMNMK_4axum7routing5route5RouteEINtCs9j4nKNK4ihi_13tower_service7ServiceINtNtCs9nCgvg33Qqo_4http7request7RequestNtNtCsemqjQd4VUoN_9axum_core4body4BodyEE4callB9_
FNDA:35,_RNvXs4_NtNtCs39mWnhFxKmJ_10autumn_web10middleware7metricsINtB5_13MetricsFutureINtNtNtCs2SFNBOiMNMK_4axum7routing5route11RouteFutureNtNtCs4kUJL3MZFFz_4core7convert10InfallibleEENtNtNtB29_6future6future6Future4pollB9_
FNDA:1,_RNvXs4_NtNtCs39mWnhFxKmJ_10autumn_web10middleware7metricsINtB5_13MetricsFutureINtNtNtCs4kUJL3MZFFz_4core6future5ready5ReadyINtNtB1l_6result6ResultINtNtCs9nCgvg33Qqo_4http8response8ResponseNtNtCsemqjQd4VUoN_9axum_core4body4BodyENtNtNtCsaa59N1qzrfe_3std2io5error5ErrorEEENtNtB1j_6future6Future4pollB9_
FNDA:1,_RNvXs2_NtNtCslNlzF6u6e2e_10autumn_web10middleware7metricsNtB5_12MetricsLayerINtCscMAT8yzRe8V_11tower_layer5LayerNtCs9ZEODoY2FYF_18chaos_metrics_leak14PendingServiceE5layerB1O_
FNDA:1,_RNvXs3_NtNtCslNlzF6u6e2e_10autumn_web10middleware7metricsINtB5_14MetricsServiceNtCs9ZEODoY2FYF_18chaos_metrics_leak14PendingServiceEINtCs9j4nKNK4ihi_13tower_service7ServiceINtNtCs9nCgvg33Qqo_4http7request7RequestNtNtCsemqjQd4VUoN_9axum_core4body4BodyEE10poll_readyB1h_
FNDA:1,_RNvXs3_NtNtCslNlzF6u6e2e_10autumn_web10middleware7metricsINtB5_14MetricsServiceNtCs9ZEODoY2FYF_18chaos_metrics_leak14PendingServiceEINtCs9j4nKNK4ihi_13tower_service7ServiceINtNtCs9nCgvg33Qqo_4http7request7RequestNtNtCsemqjQd4VUoN_9axum_core4body4BodyEE4callB1h_
FNF:26
FNH:25
DA:64,78
DA:65,78
DA:66,78
DA:67,78
DA:68,78
DA:69,78
DA:79,140
DA:80,140
DA:81,2240
DA:82,2240
DA:83,2240
DA:84,140
DA:85,140
DA:86,140
DA:87,140
DA:88,140
DA:89,140
DA:90,140
DA:91,140
DA:92,140
DA:93,140
DA:96,92
DA:97,92
DA:100,92
DA:101,79
DA:102,79
DA:103,79
DA:104,79
DA:105,79
DA:106,0
DA:107,0
DA:108,0
DA:109,0
DA:110,0
DA:111,10
DA:112,10
DA:113,10
DA:114,10
DA:115,10
DA:116,3
DA:117,3
DA:118,3
DA:119,3
DA:120,3
DA:121,0
DA:126,92
DA:127,92
DA:128,0
DA:129,92
DA:130,92
DA:131,0
DA:135,92
DA:136,92
DA:138,92
DA:140,92
DA:142,92
DA:143,92
DA:144,92
DA:145,92
DA:146,0
DA:147,92
DA:148,92
DA:149,0
DA:151,92
DA:153,90
DA:154,90
DA:155,90
DA:157,89
DA:158,89
DA:159,89
DA:163,11
DA:164,11
DA:165,11
DA:166,11
DA:167,11
DA:168,11
DA:169,11
DA:171,11
DA:172,176
DA:173,176
DA:174,176
DA:175,7
DA:176,7
DA:177,7
DA:178,7
DA:179,7
DA:180,7
DA:181,7
DA:182,7
DA:183,7
DA:184,7
DA:185,7
DA:186,0
DA:189,11
DA:190,11
DA:191,11
DA:192,11
DA:193,11
DA:194,11
DA:195,11
DA:196,11
DA:197,11
DA:198,11
DA:199,11
DA:200,11
DA:201,11
DA:202,11
DA:203,11
DA:204,11
DA:205,11
DA:206,11
DA:207,11
DA:211,0
DA:212,0
DA:213,0
DA:286,19
DA:287,19
DA:288,19
DA:289,7
DA:290,12
DA:293,12
DA:294,12
DA:295,12
DA:296,12
DA:298,12
DA:299,12
DA:300,12
DA:303,12
DA:306,12
DA:309,12
DA:311,12
DA:312,19
DA:328,64
DA:329,64
DA:330,64
DA:336,1948
DA:337,1948
DA:338,1948
DA:339,1948
DA:340,1948
DA:341,1948
DA:359,88
DA:360,88
DA:361,88
DA:363,88
DA:364,88
DA:365,88
DA:367,88
DA:369,88
DA:370,88
DA:371,88
DA:372,88
DA:373,88
DA:374,88
DA:375,88
DA:376,88
DA:406,92
DA:407,92
DA:408,92
DA:409,85
DA:410,85
DA:411,85
DA:412,85
DA:413,85
DA:414,85
DA:415,85
DA:416,85
DA:417,85
DA:418,85
DA:419,85
DA:420,85
DA:421,85
DA:422,85
DA:424,1
DA:425,1
DA:426,1
DA:427,1
DA:428,1
DA:430,6
DA:432,92
DA:440,1
DA:441,1
DA:442,1
DA:443,1
DA:444,1
DA:446,1
DA:447,1
DA:448,1
DA:449,1
DA:450,1
DA:451,1
DA:452,1
DA:455,1
DA:456,1
DA:457,1
DA:458,1
DA:459,1
DA:460,1
DA:461,1
DA:464,1
DA:465,1
DA:466,1
DA:467,1
DA:468,1
DA:469,1
DA:472,1
DA:473,1
DA:474,1
DA:475,1
DA:476,1
DA:477,1
DA:478,1
DA:479,1
DA:482,1
DA:488,1
DA:489,1
DA:490,2
DA:491,1
DA:493,1
DA:494,1
DA:495,1
DA:496,1
DA:497,1
DA:499,1
DA:500,1
DA:502,1
DA:503,1
DA:504,1
DA:505,1
DA:507,1
DA:508,1
DA:509,1
DA:510,1
DA:513,1
DA:527,1
DA:528,1
DA:529,1
DA:531,1
DA:532,1
DA:533,1
DA:536,1
DA:537,1
DA:540,1
DA:542,1
DA:543,1
DA:544,1
DA:545,1
DA:546,1
DA:549,1
DA:550,1
DA:553,1
DA:554,1
BRF:0
BRH:0
LF:259
LH:240
end_of_record
SF:/app/autumn/src/middleware/request_id.rs
FN:94,_RNvXs0_NtNtCslNlzF6u6e2e_10autumn_web10middleware10request_idNtB5_14RequestIdLayerINtCscMAT8yzRe8V_11tower_layer5LayerNtNtNtCs2SFNBOiMNMK_4axum7routing5route5RouteE5layerB9_
FN:118,_RNvXs1_NtNtCslNlzF6u6e2e_10autumn_web10middleware10request_idINtB5_16RequestIdServiceNtNtNtCs2SFNBOiMNMK_4axum7routing5route5RouteEINtCs9j4nKNK4ihi_13tower_service7ServiceINtNtCs9nCgvg33Qqo_4http7request7RequestNtNtCsemqjQd4VUoN_9axum_core4body4BodyEE10poll_readyB9_
FN:122,_RNvXs1_NtNtCslNlzF6u6e2e_10autumn_web10middleware10request_idINtB5_16RequestIdServiceNtNtNtCs2SFNBOiMNMK_4axum7routing5route5RouteEINtCs9j4nKNK4ihi_13tower_service7ServiceINtNtCs9nCgvg33Qqo_4http7request7RequestNtNtCsemqjQd4VUoN_9axum_core4body4BodyEE4callB9_
FN:148,_RNvXs2_NtNtCslNlzF6u6e2e_10autumn_web10middleware10request_idINtB5_15RequestIdFutureINtNtNtCs2SFNBOiMNMK_4axum7routing5route11RouteFutureNtNtCs4kUJL3MZFFz_4core7convert10InfallibleEENtNtNtB2f_6future6future6Future4pollB9_
FN:65,_RNvMNtNtCslNlzF6u6e2e_10autumn_web10middleware10request_idNtB2_9RequestId7as_uuid
FN:71,_RNvXs_NtNtCslNlzF6u6e2e_10autumn_web10middleware10request_idNtB4_9RequestIdNtNtCs4kUJL3MZFFz_4core3fmt7Display3fmt
FN:65,_RNvMNtNtCs39mWnhFxKmJ_10autumn_web10middleware10request_idNtB2_9RequestId7as_uuid
FN:197,_RNCNCNCNvNtNtNtCs39mWnhFxKmJ_10autumn_web10middleware10request_id5testss_27each_request_gets_unique_id000Bd_
FN:180,_RNCNCNCNvNtNtNtCs39mWnhFxKmJ_10autumn_web10middleware10request_id5testss_30response_has_request_id_header000Bd_
FN:197,_RNCNCNvNtNtNtCs39mWnhFxKmJ_10autumn_web10middleware10request_id5testss_27each_request_gets_unique_id00Bb_
FN:180,_RNCNCNvNtNtNtCs39mWnhFxKmJ_10autumn_web10middleware10request_id5testss_30response_has_request_id_header00Bb_
FN:217,_RNCNvNCNvNtNtNtCs39mWnhFxKmJ_10autumn_web10middleware10request_id5testss_34request_id_available_in_extensions07handler0Bd_
FN:195,_RNCNvNtNtNtCs39mWnhFxKmJ_10autumn_web10middleware10request_id5testss_27each_request_gets_unique_id0B9_
FN:178,_RNCNvNtNtNtCs39mWnhFxKmJ_10autumn_web10middleware10request_id5testss_30response_has_request_id_header0B9_
FN:216,_RNCNvNtNtNtCs39mWnhFxKmJ_10autumn_web10middleware10request_id5testss_34request_id_available_in_extensions0B9_
FN:217,_RNvNCNvNtNtNtCs39mWnhFxKmJ_10autumn_web10middleware10request_id5testss_34request_id_available_in_extensions07handler
FN:239,_RNvNtNtNtCs39mWnhFxKmJ_10autumn_web10middleware10request_id5testss_18request_id_display
FN:195,_RNvNtNtNtCs39mWnhFxKmJ_10autumn_web10middleware10request_id5testss_27each_request_gets_unique_id
FN:178,_RNvNtNtNtCs39mWnhFxKmJ_10autumn_web10middleware10request_id5testss_30response_has_request_id_header
FN:216,_RNvNtNtNtCs39mWnhFxKmJ_10autumn_web10middleware10request_id5testss_34request_id_available_in_extensions
FN:94,_RNvXs0_NtNtCs39mWnhFxKmJ_10autumn_web10middleware10request_idNtB5_14RequestIdLayerINtCscMAT8yzRe8V_11tower_layer5LayerNtNtNtCs2SFNBOiMNMK_4axum7routing5route5RouteE5layerB9_
FN:118,_RNvXs1_NtNtCs39mWnhFxKmJ_10autumn_web10middleware10request_idINtB5_16RequestIdServiceNtNtNtCs2SFNBOiMNMK_4axum7routing5route5RouteEINtCs9j4nKNK4ihi_13tower_service7ServiceINtNtCs9nCgvg33Qqo_4http7request7RequestNtNtCsemqjQd4VUoN_9axum_core4body4BodyEE10poll_readyB9_
FN:122,_RNvXs1_NtNtCs39mWnhFxKmJ_10autumn_web10middleware10request_idINtB5_16RequestIdServiceNtNtNtCs2SFNBOiMNMK_4axum7routing5route5RouteEINtCs9j4nKNK4ihi_13tower_service7ServiceINtNtCs9nCgvg33Qqo_4http7request7RequestNtNtCsemqjQd4VUoN_9axum_core4body4BodyEE4callB9_
FN:148,_RNvXs2_NtNtCs39mWnhFxKmJ_10autumn_web10middleware10request_idINtB5_15RequestIdFutureINtNtNtCs2SFNBOiMNMK_4axum7routing5route11RouteFutureNtNtCs4kUJL3MZFFz_4core7convert10InfallibleEENtNtNtB2f_6future6future6Future4pollB9_
FN:71,_RNvXs_NtNtCs39mWnhFxKmJ_10autumn_web10middleware10request_idNtB4_9RequestIdNtNtCs4kUJL3MZFFz_4core3fmt7Display3fmt
FNDA:1058,_RNvXs0_NtNtCslNlzF6u6e2e_10autumn_web10middleware10request_idNtB5_14RequestIdLayerINtCscMAT8yzRe8V_11tower_layer5LayerNtNtNtCs2SFNBOiMNMK_4axum7routing5route5RouteE5layerB9_
FNDA:54,_RNvXs1_NtNtCslNlzF6u6e2e_10autumn_web10middleware10request_idINtB5_16RequestIdServiceNtNtNtCs2SFNBOiMNMK_4axum7routing5route5RouteEINtCs9j4nKNK4ihi_13tower_service7ServiceINtNtCs9nCgvg33Qqo_4http7request7RequestNtNtCsemqjQd4VUoN_9axum_core4body4BodyEE10poll_readyB9_
FNDA:54,_RNvXs1_NtNtCslNlzF6u6e2e_10autumn_web10middleware10request_idINtB5_16RequestIdServiceNtNtNtCs2SFNBOiMNMK_4axum7routing5route5RouteEINtCs9j4nKNK4ihi_13tower_service7ServiceINtNtCs9nCgvg33Qqo_4http7request7RequestNtNtCsemqjQd4VUoN_9axum_core4body4BodyEE4callB9_
FNDA:56,_RNvXs2_NtNtCslNlzF6u6e2e_10autumn_web10middleware10request_idINtB5_15RequestIdFutureINtNtNtCs2SFNBOiMNMK_4axum7routing5route11RouteFutureNtNtCs4kUJL3MZFFz_4core7convert10InfallibleEENtNtNtB2f_6future6future6Future4pollB9_
FNDA:0,_RNvMNtNtCslNlzF6u6e2e_10autumn_web10middleware10request_idNtB2_9RequestId7as_uuid
FNDA:1,_RNvXs_NtNtCslNlzF6u6e2e_10autumn_web10middleware10request_idNtB4_9RequestIdNtNtCs4kUJL3MZFFz_4core3fmt7Display3fmt
FNDA:0,_RNvMNtNtCs39mWnhFxKmJ_10autumn_web10middleware10request_idNtB2_9RequestId7as_uuid
FNDA:2,_RNCNCNCNvNtNtNtCs39mWnhFxKmJ_10autumn_web10middleware10request_id5testss_27each_request_gets_unique_id000Bd_
FNDA:1,_RNCNCNCNvNtNtNtCs39mWnhFxKmJ_10autumn_web10middleware10request_id5testss_30response_has_request_id_header000Bd_
FNDA:2,_RNCNCNvNtNtNtCs39mWnhFxKmJ_10autumn_web10middleware10request_id5testss_27each_request_gets_unique_id00Bb_
FNDA:1,_RNCNCNvNtNtNtCs39mWnhFxKmJ_10autumn_web10middleware10request_id5testss_30response_has_request_id_header00Bb_
FNDA:1,_RNCNvNCNvNtNtNtCs39mWnhFxKmJ_10autumn_web10middleware10request_id5testss_34request_id_available_in_extensions07handler0Bd_
FNDA:1,_RNCNvNtNtNtCs39mWnhFxKmJ_10autumn_web10middleware10request_id5testss_27each_request_gets_unique_id0B9_
FNDA:1,_RNCNvNtNtNtCs39mWnhFxKmJ_10autumn_web10middleware10request_id5testss_30response_has_request_id_header0B9_
FNDA:1,_RNCNvNtNtNtCs39mWnhFxKmJ_10autumn_web10middleware10request_id5testss_34request_id_available_in_extensions0B9_
FNDA:1,_RNvNCNvNtNtNtCs39mWnhFxKmJ_10autumn_web10middleware10request_id5testss_34request_id_available_in_extensions07handler
FNDA:1,_RNvNtNtNtCs39mWnhFxKmJ_10autumn_web10middleware10request_id5testss_18request_id_display
FNDA:1,_RNvNtNtNtCs39mWnhFxKmJ_10autumn_web10middleware10request_id5testss_27each_request_gets_unique_id
FNDA:1,_RNvNtNtNtCs39mWnhFxKmJ_10autumn_web10middleware10request_id5testss_30response_has_request_id_header
FNDA:1,_RNvNtNtNtCs39mWnhFxKmJ_10autumn_web10middleware10request_id5testss_34request_id_available_in_extensions
FNDA:925,_RNvXs0_NtNtCs39mWnhFxKmJ_10autumn_web10middleware10request_idNtB5_14RequestIdLayerINtCscMAT8yzRe8V_11tower_layer5LayerNtNtNtCs2SFNBOiMNMK_4axum7routing5route5RouteE5layerB9_
FNDA:35,_RNvXs1_NtNtCs39mWnhFxKmJ_10autumn_web10middleware10request_idINtB5_16RequestIdServiceNtNtNtCs2SFNBOiMNMK_4axum7routing5route5RouteEINtCs9j4nKNK4ihi_13tower_service7ServiceINtNtCs9nCgvg33Qqo_4http7request7RequestNtNtCsemqjQd4VUoN_9axum_core4body4BodyEE10poll_readyB9_
FNDA:35,_RNvXs1_NtNtCs39mWnhFxKmJ_10autumn_web10middleware10request_idINtB5_16RequestIdServiceNtNtNtCs2SFNBOiMNMK_4axum7routing5route5RouteEINtCs9j4nKNK4ihi_13tower_service7ServiceINtNtCs9nCgvg33Qqo_4http7request7RequestNtNtCsemqjQd4VUoN_9axum_core4body4BodyEE4callB9_
FNDA:38,_RNvXs2_NtNtCs39mWnhFxKmJ_10autumn_web10middleware10request_idINtB5_15RequestIdFutureINtNtNtCs2SFNBOiMNMK_4axum7routing5route11RouteFutureNtNtCs4kUJL3MZFFz_4core7convert10InfallibleEENtNtNtB2f_6future6future6Future4pollB9_
FNDA:2,_RNvXs_NtNtCs39mWnhFxKmJ_10autumn_web10middleware10request_idNtB4_9RequestIdNtNtCs4kUJL3MZFFz_4core3fmt7Display3fmt
FNF:19
FNH:18
DA:65,0
DA:66,0
DA:67,0
DA:71,3
DA:72,3
DA:73,3
DA:94,1983
DA:95,1983
DA:96,1983
DA:118,89
DA:119,89
DA:120,89
DA:122,89
DA:123,89
DA:124,89
DA:126,89
DA:127,89
DA:128,89
DA:129,89
DA:130,89
DA:148,94
DA:149,94
DA:150,94
DA:151,88
DA:152,88
DA:154,88
DA:155,88
DA:156,88
DA:157,88
DA:158,88
DA:159,0
DA:160,88
DA:162,0
DA:163,6
DA:165,94
DA:178,1
DA:179,1
DA:180,2
DA:181,1
DA:183,1
DA:184,1
DA:185,1
DA:186,1
DA:188,1
DA:190,1
DA:191,1
DA:192,1
DA:195,1
DA:196,1
DA:197,4
DA:198,1
DA:200,1
DA:201,1
DA:202,1
DA:203,1
DA:204,1
DA:205,1
DA:206,1
DA:207,1
DA:208,1
DA:210,1
DA:211,1
DA:212,1
DA:213,1
DA:216,1
DA:217,1
DA:218,1
DA:219,1
DA:221,1
DA:223,1
DA:224,1
DA:225,1
DA:226,1
DA:228,1
DA:231,1
DA:232,1
DA:233,1
DA:234,1
DA:235,1
DA:236,1
DA:239,1
DA:240,1
DA:241,1
DA:242,1
BRF:0
BRH:0
LF:95
LH:90
end_of_record
SF:/app/autumn/src/migrate.rs
FN:75,_RNCNvNtCslNlzF6u6e2e_10autumn_web7migrate11run_pending0B5_
FN:84,_RNCNvNtCslNlzF6u6e2e_10autumn_web7migrate11run_pendings0_0B5_
FN:81,_RNCNvNtCslNlzF6u6e2e_10autumn_web7migrate11run_pendings_0B5_
FN:99,_RNCNvNtCslNlzF6u6e2e_10autumn_web7migrate18pending_migrations0B5_
FN:107,_RNCNvNtCslNlzF6u6e2e_10autumn_web7migrate18pending_migrationss0_0B5_
FN:103,_RNCNvNtCslNlzF6u6e2e_10autumn_web7migrate18pending_migrationss_0B5_
FN:70,_RNvNtCslNlzF6u6e2e_10autumn_web7migrate11run_pending
FN:127,_RNvNtCslNlzF6u6e2e_10autumn_web7migrate12auto_migrate
FN:111,_RNvNtCslNlzF6u6e2e_10autumn_web7migrate17should_auto_apply
FN:94,_RNvNtCslNlzF6u6e2e_10autumn_web7migrate18pending_migrations
FN:198,_RNvNtNtCs39mWnhFxKmJ_10autumn_web7migrate5testss_22migration_result_debug
FN:223,_RNvNtNtCs39mWnhFxKmJ_10autumn_web7migrate5testss_30profile_aliases_are_recognized
FN:215,_RNvNtNtCs39mWnhFxKmJ_10autumn_web7migrate5testss_33migration_error_display_migration
FN:207,_RNvNtNtCs39mWnhFxKmJ_10autumn_web7migrate5testss_34migration_error_display_connection
FN:75,_RNCNvNtCs39mWnhFxKmJ_10autumn_web7migrate11run_pending0B5_
FN:84,_RNCNvNtCs39mWnhFxKmJ_10autumn_web7migrate11run_pendings0_0B5_
FN:81,_RNCNvNtCs39mWnhFxKmJ_10autumn_web7migrate11run_pendings_0B5_
FN:99,_RNCNvNtCs39mWnhFxKmJ_10autumn_web7migrate18pending_migrations0B5_
FN:107,_RNCNvNtCs39mWnhFxKmJ_10autumn_web7migrate18pending_migrationss0_0B5_
FN:103,_RNCNvNtCs39mWnhFxKmJ_10autumn_web7migrate18pending_migrationss_0B5_
FN:70,_RNvNtCs39mWnhFxKmJ_10autumn_web7migrate11run_pending
FN:127,_RNvNtCs39mWnhFxKmJ_10autumn_web7migrate12auto_migrate
FN:94,_RNvNtCs39mWnhFxKmJ_10autumn_web7migrate18pending_migrations
FN:111,_RNvNtCs39mWnhFxKmJ_10autumn_web7migrate17should_auto_apply
FNDA:0,_RNCNvNtCslNlzF6u6e2e_10autumn_web7migrate11run_pending0B5_
FNDA:0,_RNCNvNtCslNlzF6u6e2e_10autumn_web7migrate11run_pendings0_0B5_
FNDA:0,_RNCNvNtCslNlzF6u6e2e_10autumn_web7migrate11run_pendings_0B5_
FNDA:0,_RNCNvNtCslNlzF6u6e2e_10autumn_web7migrate18pending_migrations0B5_
FNDA:0,_RNCNvNtCslNlzF6u6e2e_10autumn_web7migrate18pending_migrationss0_0B5_
FNDA:0,_RNCNvNtCslNlzF6u6e2e_10autumn_web7migrate18pending_migrationss_0B5_
FNDA:0,_RNvNtCslNlzF6u6e2e_10autumn_web7migrate11run_pending
FNDA:0,_RNvNtCslNlzF6u6e2e_10autumn_web7migrate12auto_migrate
FNDA:0,_RNvNtCslNlzF6u6e2e_10autumn_web7migrate17should_auto_apply
FNDA:0,_RNvNtCslNlzF6u6e2e_10autumn_web7migrate18pending_migrations
FNDA:1,_RNvNtNtCs39mWnhFxKmJ_10autumn_web7migrate5testss_22migration_result_debug
FNDA:1,_RNvNtNtCs39mWnhFxKmJ_10autumn_web7migrate5testss_30profile_aliases_are_recognized
FNDA:1,_RNvNtNtCs39mWnhFxKmJ_10autumn_web7migrate5testss_33migration_error_display_migration
FNDA:1,_RNvNtNtCs39mWnhFxKmJ_10autumn_web7migrate5testss_34migration_error_display_connection
FNDA:0,_RNCNvNtCs39mWnhFxKmJ_10autumn_web7migrate11run_pending0B5_
FNDA:0,_RNCNvNtCs39mWnhFxKmJ_10autumn_web7migrate11run_pendings0_0B5_
FNDA:0,_RNCNvNtCs39mWnhFxKmJ_10autumn_web7migrate11run_pendings_0B5_
FNDA:0,_RNCNvNtCs39mWnhFxKmJ_10autumn_web7migrate18pending_migrations0B5_
FNDA:0,_RNCNvNtCs39mWnhFxKmJ_10autumn_web7migrate18pending_migrationss0_0B5_
FNDA:0,_RNCNvNtCs39mWnhFxKmJ_10autumn_web7migrate18pending_migrationss_0B5_
FNDA:0,_RNvNtCs39mWnhFxKmJ_10autumn_web7migrate11run_pending
FNDA:0,_RNvNtCs39mWnhFxKmJ_10autumn_web7migrate12auto_migrate
FNDA:0,_RNvNtCs39mWnhFxKmJ_10autumn_web7migrate18pending_migrations
FNDA:7,_RNvNtCs39mWnhFxKmJ_10autumn_web7migrate17should_auto_apply
FNF:14
FNH:5
DA:70,0
DA:71,0
DA:72,0
DA:73,0
DA:74,0
DA:75,0
DA:77,0
DA:79,0
DA:80,0
DA:81,0
DA:84,0
DA:86,0
DA:94,0
DA:95,0
DA:96,0
DA:97,0
DA:98,0
DA:99,0
DA:101,0
DA:102,0
DA:103,0
DA:105,0
DA:106,0
DA:107,0
DA:108,0
DA:109,0
DA:111,7
DA:112,7
DA:113,7
DA:114,5
DA:115,7
DA:127,0
DA:128,0
DA:129,0
DA:130,0
DA:131,0
DA:132,0
DA:133,0
DA:134,0
DA:135,0
DA:136,0
DA:138,0
DA:139,0
DA:140,0
DA:142,0
DA:147,0
DA:148,0
DA:149,0
DA:151,0
DA:152,0
DA:153,0
DA:155,0
DA:156,0
DA:160,0
DA:161,0
DA:162,0
DA:167,0
DA:168,0
DA:169,0
DA:171,0
DA:172,0
DA:173,0
DA:177,0
DA:178,0
DA:179,0
DA:182,0
DA:183,0
DA:186,0
DA:187,0
DA:191,0
DA:198,1
DA:199,1
DA:200,1
DA:201,1
DA:202,1
DA:203,1
DA:204,1
DA:207,1
DA:208,1
DA:209,1
DA:210,1
DA:211,1
DA:212,1
DA:215,1
DA:216,1
DA:217,1
DA:218,1
DA:219,1
DA:220,1
DA:223,1
DA:224,1
DA:225,1
DA:226,1
DA:227,1
DA:228,1
DA:229,1
DA:230,1
DA:231,1
BRF:0
BRH:0
LF:104
LH:33
end_of_record
SF:/app/autumn/src/plugin.rs
FN:111,_RNvXININtCslNlzF6u6e2e_10autumn_web6plugin0pEpNtB5_7Plugins5applyB7_
FN:120,_RNvXININtCslNlzF6u6e2e_10autumn_web6plugins0_0ppETppENtB5_7Plugins5applyB7_
FN:120,_RNvXININtCslNlzF6u6e2e_10autumn_web6plugins1_0pppETpppENtB5_7Plugins5applyB7_
FN:120,_RNvXININtCslNlzF6u6e2e_10autumn_web6plugins2_0ppppETppppENtB5_7Plugins5applyB7_
FN:120,_RNvXININtCslNlzF6u6e2e_10autumn_web6plugins3_0pppppETpppppENtB5_7Plugins5applyB7_
FN:120,_RNvXININtCslNlzF6u6e2e_10autumn_web6plugins4_0ppppppETppppppENtB5_7Plugins5applyB7_
FN:120,_RNvXININtCslNlzF6u6e2e_10autumn_web6plugins5_0pppppppETpppppppENtB5_7Plugins5applyB7_
FN:120,_RNvXININtCslNlzF6u6e2e_10autumn_web6plugins6_0ppppppppETppppppppENtB5_7Plugins5applyB7_
FN:120,_RNvXININtCslNlzF6u6e2e_10autumn_web6plugins_0pETpENtB5_7Plugins5applyB7_
FN:78,_RNvYpNtNtCslNlzF6u6e2e_10autumn_web6plugin6Plugin4nameB7_
FN:111,_RNvXININtCs39mWnhFxKmJ_10autumn_web6plugin0pEpNtB5_7Plugins5applyB7_
FN:120,_RNvXININtCs39mWnhFxKmJ_10autumn_web6plugins1_0pppETpppENtB5_7Plugins5applyB7_
FN:120,_RNvXININtCs39mWnhFxKmJ_10autumn_web6plugins2_0ppppETppppENtB5_7Plugins5applyB7_
FN:120,_RNvXININtCs39mWnhFxKmJ_10autumn_web6plugins3_0pppppETpppppENtB5_7Plugins5applyB7_
FN:120,_RNvXININtCs39mWnhFxKmJ_10autumn_web6plugins4_0ppppppETppppppENtB5_7Plugins5applyB7_
FN:120,_RNvXININtCs39mWnhFxKmJ_10autumn_web6plugins5_0pppppppETpppppppENtB5_7Plugins5applyB7_
FN:120,_RNvXININtCs39mWnhFxKmJ_10autumn_web6plugins6_0ppppppppETppppppppENtB5_7Plugins5applyB7_
FN:120,_RNvXININtCs39mWnhFxKmJ_10autumn_web6plugins_0pETpENtB5_7Plugins5applyB7_
FN:154,_RNvMNtNtCs39mWnhFxKmJ_10autumn_web6plugin5testsNtB2_8Recorder3new
FN:162,_RNvMNtNtCs39mWnhFxKmJ_10autumn_web6plugin5testsNtB2_8Recorder4push
FN:158,_RNvMNtNtCs39mWnhFxKmJ_10autumn_web6plugin5testsNtB2_8Recorder6events
FN:206,_RNvNtNtCs39mWnhFxKmJ_10autumn_web6plugin5testss_25single_plugin_builds_once
FN:235,_RNvNtNtCs39mWnhFxKmJ_10autumn_web6plugin5testss_45tuple_of_plugins_applies_in_declaration_order
FN:218,_RNvNtNtCs39mWnhFxKmJ_10autumn_web6plugin5testss_46duplicate_named_plugin_is_skipped_with_warning
FN:188,_RNvXs0_NtNtCs39mWnhFxKmJ_10autumn_web6plugin5testsNtB5_10ColaPluginNtB7_6Plugin5build
FN:199,_RNvXs1_NtNtCs39mWnhFxKmJ_10autumn_web6plugin5testsNtB5_11PepsiPluginNtB7_6Plugin5build
FN:173,_RNvXs_NtNtCs39mWnhFxKmJ_10autumn_web6plugin5testsNtB4_15RecordingPluginNtB6_6Plugin4name
FN:177,_RNvXs_NtNtCs39mWnhFxKmJ_10autumn_web6plugin5testsNtB4_15RecordingPluginNtB6_6Plugin5build
FN:120,_RNvXs0_NtCs39mWnhFxKmJ_10autumn_web6pluginTNtNtB5_5tests10ColaPluginNtBH_11PepsiPluginENtB5_7Plugins5applyB7_
FN:78,_RNvYNtNtNtCs39mWnhFxKmJ_10autumn_web6plugin5tests10ColaPluginNtB6_6Plugin4nameB8_
FN:78,_RNvYNtNtNtCs39mWnhFxKmJ_10autumn_web6plugin5tests11PepsiPluginNtB6_6Plugin4nameB8_
FNDA:0,_RNvXININtCslNlzF6u6e2e_10autumn_web6plugin0pEpNtB5_7Plugins5applyB7_
FNDA:0,_RNvXININtCslNlzF6u6e2e_10autumn_web6plugins0_0ppETppENtB5_7Plugins5applyB7_
FNDA:0,_RNvXININtCslNlzF6u6e2e_10autumn_web6plugins1_0pppETpppENtB5_7Plugins5applyB7_
FNDA:0,_RNvXININtCslNlzF6u6e2e_10autumn_web6plugins2_0ppppETppppENtB5_7Plugins5applyB7_
FNDA:0,_RNvXININtCslNlzF6u6e2e_10autumn_web6plugins3_0pppppETpppppENtB5_7Plugins5applyB7_
FNDA:0,_RNvXININtCslNlzF6u6e2e_10autumn_web6plugins4_0ppppppETppppppENtB5_7Plugins5applyB7_
FNDA:0,_RNvXININtCslNlzF6u6e2e_10autumn_web6plugins5_0pppppppETpppppppENtB5_7Plugins5applyB7_
FNDA:0,_RNvXININtCslNlzF6u6e2e_10autumn_web6plugins6_0ppppppppETppppppppENtB5_7Plugins5applyB7_
FNDA:0,_RNvXININtCslNlzF6u6e2e_10autumn_web6plugins_0pETpENtB5_7Plugins5applyB7_
FNDA:0,_RNvYpNtNtCslNlzF6u6e2e_10autumn_web6plugin6Plugin4nameB7_
FNDA:0,_RNvXININtCs39mWnhFxKmJ_10autumn_web6plugin0pEpNtB5_7Plugins5applyB7_
FNDA:0,_RNvXININtCs39mWnhFxKmJ_10autumn_web6plugins1_0pppETpppENtB5_7Plugins5applyB7_
FNDA:0,_RNvXININtCs39mWnhFxKmJ_10autumn_web6plugins2_0ppppETppppENtB5_7Plugins5applyB7_
FNDA:0,_RNvXININtCs39mWnhFxKmJ_10autumn_web6plugins3_0pppppETpppppENtB5_7Plugins5applyB7_
FNDA:0,_RNvXININtCs39mWnhFxKmJ_10autumn_web6plugins4_0ppppppETppppppENtB5_7Plugins5applyB7_
FNDA:0,_RNvXININtCs39mWnhFxKmJ_10autumn_web6plugins5_0pppppppETpppppppENtB5_7Plugins5applyB7_
FNDA:0,_RNvXININtCs39mWnhFxKmJ_10autumn_web6plugins6_0ppppppppETppppppppENtB5_7Plugins5applyB7_
FNDA:0,_RNvXININtCs39mWnhFxKmJ_10autumn_web6plugins_0pETpENtB5_7Plugins5applyB7_
FNDA:3,_RNvMNtNtCs39mWnhFxKmJ_10autumn_web6plugin5testsNtB2_8Recorder3new
FNDA:4,_RNvMNtNtCs39mWnhFxKmJ_10autumn_web6plugin5testsNtB2_8Recorder4push
FNDA:3,_RNvMNtNtCs39mWnhFxKmJ_10autumn_web6plugin5testsNtB2_8Recorder6events
FNDA:1,_RNvNtNtCs39mWnhFxKmJ_10autumn_web6plugin5testss_25single_plugin_builds_once
FNDA:1,_RNvNtNtCs39mWnhFxKmJ_10autumn_web6plugin5testss_45tuple_of_plugins_applies_in_declaration_order
FNDA:1,_RNvNtNtCs39mWnhFxKmJ_10autumn_web6plugin5testss_46duplicate_named_plugin_is_skipped_with_warning
FNDA:1,_RNvXs0_NtNtCs39mWnhFxKmJ_10autumn_web6plugin5testsNtB5_10ColaPluginNtB7_6Plugin5build
FNDA:1,_RNvXs1_NtNtCs39mWnhFxKmJ_10autumn_web6plugin5testsNtB5_11PepsiPluginNtB7_6Plugin5build
FNDA:3,_RNvXs_NtNtCs39mWnhFxKmJ_10autumn_web6plugin5testsNtB4_15RecordingPluginNtB6_6Plugin4name
FNDA:2,_RNvXs_NtNtCs39mWnhFxKmJ_10autumn_web6plugin5testsNtB4_15RecordingPluginNtB6_6Plugin5build
FNDA:1,_RNvXs0_NtCs39mWnhFxKmJ_10autumn_web6pluginTNtNtB5_5tests10ColaPluginNtBH_11PepsiPluginENtB5_7Plugins5applyB7_
FNDA:1,_RNvYNtNtNtCs39mWnhFxKmJ_10autumn_web6plugin5tests10ColaPluginNtB6_6Plugin4nameB8_
FNDA:1,_RNvYNtNtNtCs39mWnhFxKmJ_10autumn_web6plugin5tests11PepsiPluginNtB6_6Plugin4nameB8_
FNF:13
FNH:12
DA:78,2
DA:79,2
DA:80,2
DA:111,0
DA:112,0
DA:113,0
DA:120,1
DA:121,1
DA:122,1
DA:123,1
DA:124,1
DA:125,1
DA:154,3
DA:155,3
DA:156,3
DA:158,3
DA:159,3
DA:160,3
DA:162,4
DA:163,4
DA:164,4
DA:173,3
DA:174,3
DA:175,3
DA:177,2
DA:178,2
DA:179,2
DA:180,2
DA:188,1
DA:189,1
DA:190,1
DA:191,1
DA:199,1
DA:200,1
DA:201,1
DA:202,1
DA:206,1
DA:207,1
DA:208,1
DA:209,1
DA:210,1
DA:211,1
DA:213,1
DA:214,1
DA:215,1
DA:218,1
DA:219,1
DA:220,1
DA:221,1
DA:222,1
DA:223,1
DA:224,1
DA:225,1
DA:226,1
DA:227,1
DA:228,1
DA:230,1
DA:231,1
DA:232,1
DA:235,1
DA:236,1
DA:237,1
DA:238,1
DA:239,1
DA:240,1
DA:241,1
DA:242,1
DA:243,1
DA:244,1
DA:246,1
DA:247,1
BRF:0
BRH:0
LF:71
LH:68
end_of_record
SF:/app/autumn/src/prelude.rs
FN:99,_RNvNtNtCs39mWnhFxKmJ_10autumn_web7prelude5testss_28prelude_types_are_accessible
FN:141,_RNvNtNtCs39mWnhFxKmJ_10autumn_web7prelude5testss_31json_type_works_through_prelude
FN:155,_RNvNtNtCs39mWnhFxKmJ_10autumn_web7prelude5testss_31maud_types_work_through_prelude
FN:147,_RNvNtNtCs39mWnhFxKmJ_10autumn_web7prelude5testss_32error_types_work_through_prelude
FNDA:1,_RNvNtNtCs39mWnhFxKmJ_10autumn_web7prelude5testss_28prelude_types_are_accessible
FNDA:1,_RNvNtNtCs39mWnhFxKmJ_10autumn_web7prelude5testss_31json_type_works_through_prelude
FNDA:1,_RNvNtNtCs39mWnhFxKmJ_10autumn_web7prelude5testss_31maud_types_work_through_prelude
FNDA:1,_RNvNtNtCs39mWnhFxKmJ_10autumn_web7prelude5testss_32error_types_work_through_prelude
FNF:4
FNH:4
DA:99,1
DA:101,1
DA:102,1
DA:103,1
DA:104,1
DA:105,1
DA:106,1
DA:107,1
DA:108,1
DA:109,1
DA:110,1
DA:111,1
DA:112,1
DA:113,1
DA:114,1
DA:115,1
DA:116,1
DA:117,1
DA:118,1
DA:137,1
DA:138,1
DA:141,1
DA:142,1
DA:143,1
DA:144,1
DA:147,1
DA:148,1
DA:149,1
DA:150,1
DA:151,1
DA:155,1
DA:156,1
DA:157,1
DA:158,1
BRF:0
BRH:0
LF:34
LH:34
end_of_record
SF:/app/autumn/src/probe.rs
FN:69,_RNvYpNtNtCslNlzF6u6e2e_10autumn_web5probe17ProvideProbeState21mark_startup_completeB7_
FN:240,_RINvNtCslNlzF6u6e2e_10autumn_web5probe12live_handlerNtNtB4_5state8AppStateEB4_
FN:247,_RINvNtCslNlzF6u6e2e_10autumn_web5probe13ready_handlerNtNtB4_5state8AppStateEB4_
FN:197,_RINvNtCslNlzF6u6e2e_10autumn_web5probe14probe_responseNtNtB4_5state8AppStateEB4_
FN:254,_RINvNtCslNlzF6u6e2e_10autumn_web5probe15startup_handlerNtNtB4_5state8AppStateEB4_
FN:261,_RINvNtCslNlzF6u6e2e_10autumn_web5probe18readiness_responseNtNtB4_5state8AppStateEB4_
FN:174,_RINvNtCslNlzF6u6e2e_10autumn_web5probe20dependency_readinessNtNtB4_5state8AppStateEB4_
FN:242,_RNCINvNtCslNlzF6u6e2e_10autumn_web5probe12live_handlerNtNtB6_5state8AppStateE0B6_
FN:249,_RNCINvNtCslNlzF6u6e2e_10autumn_web5probe13ready_handlerNtNtB6_5state8AppStateE0B6_
FN:256,_RNCINvNtCslNlzF6u6e2e_10autumn_web5probe15startup_handlerNtNtB6_5state8AppStateE0B6_
FN:123,_RNvMNtCslNlzF6u6e2e_10autumn_web5probeNtB2_10ProbeState12set_draining
FN:118,_RNvMNtCslNlzF6u6e2e_10autumn_web5probeNtB2_10ProbeState14begin_draining
FN:113,_RNvMNtCslNlzF6u6e2e_10autumn_web5probeNtB2_10ProbeState14begin_shutdown
FN:96,_RNvMNtCslNlzF6u6e2e_10autumn_web5probeNtB2_10ProbeState14ready_for_test
FN:84,_RNvMNtCslNlzF6u6e2e_10autumn_web5probeNtB2_10ProbeState15pending_startup
FN:135,_RNvMNtCslNlzF6u6e2e_10autumn_web5probeNtB2_10ProbeState16is_shutting_down
FN:129,_RNvMNtCslNlzF6u6e2e_10autumn_web5probeNtB2_10ProbeState19is_startup_complete
FN:108,_RNvMNtCslNlzF6u6e2e_10autumn_web5probeNtB2_10ProbeState20set_startup_complete
FN:103,_RNvMNtCslNlzF6u6e2e_10autumn_web5probeNtB2_10ProbeState21mark_startup_complete
FN:141,_RNvMNtCslNlzF6u6e2e_10autumn_web5probeNtB2_10ProbeState8draining
FN:90,_RNvMNtCslNlzF6u6e2e_10autumn_web5probeNtB2_10ProbeState8starting
FN:123,_RNvMNtCs39mWnhFxKmJ_10autumn_web5probeNtB2_10ProbeState12set_draining
FN:118,_RNvMNtCs39mWnhFxKmJ_10autumn_web5probeNtB2_10ProbeState14begin_draining
FN:113,_RNvMNtCs39mWnhFxKmJ_10autumn_web5probeNtB2_10ProbeState14begin_shutdown
FN:96,_RNvMNtCs39mWnhFxKmJ_10autumn_web5probeNtB2_10ProbeState14ready_for_test
FN:84,_RNvMNtCs39mWnhFxKmJ_10autumn_web5probeNtB2_10ProbeState15pending_startup
FN:135,_RNvMNtCs39mWnhFxKmJ_10autumn_web5probeNtB2_10ProbeState16is_shutting_down
FN:129,_RNvMNtCs39mWnhFxKmJ_10autumn_web5probeNtB2_10ProbeState19is_startup_complete
FN:108,_RNvMNtCs39mWnhFxKmJ_10autumn_web5probeNtB2_10ProbeState20set_startup_complete
FN:103,_RNvMNtCs39mWnhFxKmJ_10autumn_web5probeNtB2_10ProbeState21mark_startup_complete
FN:141,_RNvMNtCs39mWnhFxKmJ_10autumn_web5probeNtB2_10ProbeState8draining
FN:90,_RNvMNtCs39mWnhFxKmJ_10autumn_web5probeNtB2_10ProbeState8starting
FN:240,_RINvNtCs39mWnhFxKmJ_10autumn_web5probe12live_handlerNtNtB4_5state8AppStateEB4_
FN:247,_RINvNtCs39mWnhFxKmJ_10autumn_web5probe13ready_handlerNtNtB4_5state8AppStateEB4_
FN:197,_RINvNtCs39mWnhFxKmJ_10autumn_web5probe14probe_responseNtNtB2_5tests14TestProbeStateEB4_
FN:197,_RINvNtCs39mWnhFxKmJ_10autumn_web5probe14probe_responseNtNtB4_5state8AppStateEB4_
FN:254,_RINvNtCs39mWnhFxKmJ_10autumn_web5probe15startup_handlerNtNtB4_5state8AppStateEB4_
FN:261,_RINvNtCs39mWnhFxKmJ_10autumn_web5probe18readiness_responseNtNtB4_5state8AppStateEB4_
FN:174,_RINvNtCs39mWnhFxKmJ_10autumn_web5probe20dependency_readinessNtNtB2_5tests14TestProbeStateEB4_
FN:174,_RINvNtCs39mWnhFxKmJ_10autumn_web5probe20dependency_readinessNtNtB4_5state8AppStateEB4_
FN:242,_RNCINvNtCs39mWnhFxKmJ_10autumn_web5probe12live_handlerNtNtB6_5state8AppStateE0B6_
FN:249,_RNCINvNtCs39mWnhFxKmJ_10autumn_web5probe13ready_handlerNtNtB6_5state8AppStateE0B6_
FN:256,_RNCINvNtCs39mWnhFxKmJ_10autumn_web5probe15startup_handlerNtNtB6_5state8AppStateE0B6_
FN:304,_RNvMs_NtNtCs39mWnhFxKmJ_10autumn_web5probe5testsNtB4_14TestProbeState3new
FN:400,_RNvNtNtCs39mWnhFxKmJ_10autumn_web5probe5testss_19test_begin_draining
FN:382,_RNvNtNtCs39mWnhFxKmJ_10autumn_web5probe5testss_19test_ready_for_test
FN:388,_RNvNtNtCs39mWnhFxKmJ_10autumn_web5probe5testss_26test_health_detailed_false
FN:314,_RNvNtNtCs39mWnhFxKmJ_10autumn_web5probe5testss_28test_live_handler_returns_ok
FN:322,_RNvNtNtCs39mWnhFxKmJ_10autumn_web5probe5testss_28test_startup_handler_pending
FN:366,_RNvNtNtCs39mWnhFxKmJ_10autumn_web5probe5testss_29test_probe_state_set_draining
FN:330,_RNvNtNtCs39mWnhFxKmJ_10autumn_web5probe5testss_29test_startup_handler_complete
FN:356,_RNvNtNtCs39mWnhFxKmJ_10autumn_web5probe5testss_32test_ready_handler_shutting_down
FN:339,_RNvNtNtCs39mWnhFxKmJ_10autumn_web5probe5testss_34test_ready_handler_pending_startup
FN:347,_RNvNtNtCs39mWnhFxKmJ_10autumn_web5probe5testss_35test_ready_handler_complete_startup
FN:374,_RNvNtNtCs39mWnhFxKmJ_10autumn_web5probe5testss_37test_probe_state_set_startup_complete
FN:290,_RNvXNtNtCs39mWnhFxKmJ_10autumn_web5probe5testsNtB2_14TestProbeStateNtB4_17ProvideProbeState14uptime_display
FN:282,_RNvXNtNtCs39mWnhFxKmJ_10autumn_web5probe5testsNtB2_14TestProbeStateNtB4_17ProvideProbeState15health_detailed
FN:295,_RNvXNtNtCs39mWnhFxKmJ_10autumn_web5probe5testsNtB2_14TestProbeStateNtB4_17ProvideProbeState4pool
FN:278,_RNvXNtNtCs39mWnhFxKmJ_10autumn_web5probe5testsNtB2_14TestProbeStateNtB4_17ProvideProbeState6probes
FN:286,_RNvXNtNtCs39mWnhFxKmJ_10autumn_web5probe5testsNtB2_14TestProbeStateNtB4_17ProvideProbeState7profile
FN:400,_RNCNvNtNtCs39mWnhFxKmJ_10autumn_web5probe5testss_19test_begin_draining0B7_
FN:382,_RNCNvNtNtCs39mWnhFxKmJ_10autumn_web5probe5testss_19test_ready_for_test0B7_
FN:388,_RNCNvNtNtCs39mWnhFxKmJ_10autumn_web5probe5testss_26test_health_detailed_false0B7_
FN:322,_RNCNvNtNtCs39mWnhFxKmJ_10autumn_web5probe5testss_28test_startup_handler_pending0B7_
FN:366,_RNCNvNtNtCs39mWnhFxKmJ_10autumn_web5probe5testss_29test_probe_state_set_draining0B7_
FN:330,_RNCNvNtNtCs39mWnhFxKmJ_10autumn_web5probe5testss_29test_startup_handler_complete0B7_
FN:356,_RNCNvNtNtCs39mWnhFxKmJ_10autumn_web5probe5testss_32test_ready_handler_shutting_down0B7_
FN:339,_RNCNvNtNtCs39mWnhFxKmJ_10autumn_web5probe5testss_34test_ready_handler_pending_startup0B7_
FN:347,_RNCNvNtNtCs39mWnhFxKmJ_10autumn_web5probe5testss_35test_ready_handler_complete_startup0B7_
FN:374,_RNCNvNtNtCs39mWnhFxKmJ_10autumn_web5probe5testss_37test_probe_state_set_startup_complete0B7_
FN:69,_RNvYNtNtNtCs39mWnhFxKmJ_10autumn_web5probe5tests14TestProbeStateNtB6_17ProvideProbeState21mark_startup_completeB8_
FNDA:0,_RNvYpNtNtCslNlzF6u6e2e_10autumn_web5probe17ProvideProbeState21mark_startup_completeB7_
FNDA:0,_RINvNtCslNlzF6u6e2e_10autumn_web5probe12live_handlerNtNtB4_5state8AppStateEB4_
FNDA:0,_RINvNtCslNlzF6u6e2e_10autumn_web5probe13ready_handlerNtNtB4_5state8AppStateEB4_
FNDA:0,_RINvNtCslNlzF6u6e2e_10autumn_web5probe14probe_responseNtNtB4_5state8AppStateEB4_
FNDA:0,_RINvNtCslNlzF6u6e2e_10autumn_web5probe15startup_handlerNtNtB4_5state8AppStateEB4_
FNDA:0,_RINvNtCslNlzF6u6e2e_10autumn_web5probe18readiness_responseNtNtB4_5state8AppStateEB4_
FNDA:0,_RINvNtCslNlzF6u6e2e_10autumn_web5probe20dependency_readinessNtNtB4_5state8AppStateEB4_
FNDA:0,_RNCINvNtCslNlzF6u6e2e_10autumn_web5probe12live_handlerNtNtB6_5state8AppStateE0B6_
FNDA:0,_RNCINvNtCslNlzF6u6e2e_10autumn_web5probe13ready_handlerNtNtB6_5state8AppStateE0B6_
FNDA:0,_RNCINvNtCslNlzF6u6e2e_10autumn_web5probe15startup_handlerNtNtB6_5state8AppStateE0B6_
FNDA:0,_RNvMNtCslNlzF6u6e2e_10autumn_web5probeNtB2_10ProbeState12set_draining
FNDA:0,_RNvMNtCslNlzF6u6e2e_10autumn_web5probeNtB2_10ProbeState14begin_draining
FNDA:0,_RNvMNtCslNlzF6u6e2e_10autumn_web5probeNtB2_10ProbeState14begin_shutdown
FNDA:41,_RNvMNtCslNlzF6u6e2e_10autumn_web5probeNtB2_10ProbeState14ready_for_test
FNDA:41,_RNvMNtCslNlzF6u6e2e_10autumn_web5probeNtB2_10ProbeState15pending_startup
FNDA:0,_RNvMNtCslNlzF6u6e2e_10autumn_web5probeNtB2_10ProbeState16is_shutting_down
FNDA:0,_RNvMNtCslNlzF6u6e2e_10autumn_web5probeNtB2_10ProbeState19is_startup_complete
FNDA:0,_RNvMNtCslNlzF6u6e2e_10autumn_web5probeNtB2_10ProbeState20set_startup_complete
FNDA:41,_RNvMNtCslNlzF6u6e2e_10autumn_web5probeNtB2_10ProbeState21mark_startup_complete
FNDA:0,_RNvMNtCslNlzF6u6e2e_10autumn_web5probeNtB2_10ProbeState8draining
FNDA:0,_RNvMNtCslNlzF6u6e2e_10autumn_web5probeNtB2_10ProbeState8starting
FNDA:1,_RNvMNtCs39mWnhFxKmJ_10autumn_web5probeNtB2_10ProbeState12set_draining
FNDA:1,_RNvMNtCs39mWnhFxKmJ_10autumn_web5probeNtB2_10ProbeState14begin_draining
FNDA:2,_RNvMNtCs39mWnhFxKmJ_10autumn_web5probeNtB2_10ProbeState14begin_shutdown
FNDA:95,_RNvMNtCs39mWnhFxKmJ_10autumn_web5probeNtB2_10ProbeState14ready_for_test
FNDA:104,_RNvMNtCs39mWnhFxKmJ_10autumn_web5probeNtB2_10ProbeState15pending_startup
FNDA:18,_RNvMNtCs39mWnhFxKmJ_10autumn_web5probeNtB2_10ProbeState16is_shutting_down
FNDA:40,_RNvMNtCs39mWnhFxKmJ_10autumn_web5probeNtB2_10ProbeState19is_startup_complete
FNDA:2,_RNvMNtCs39mWnhFxKmJ_10autumn_web5probeNtB2_10ProbeState20set_startup_complete
FNDA:98,_RNvMNtCs39mWnhFxKmJ_10autumn_web5probeNtB2_10ProbeState21mark_startup_complete
FNDA:4,_RNvMNtCs39mWnhFxKmJ_10autumn_web5probeNtB2_10ProbeState8draining
FNDA:2,_RNvMNtCs39mWnhFxKmJ_10autumn_web5probeNtB2_10ProbeState8starting
FNDA:0,_RINvNtCs39mWnhFxKmJ_10autumn_web5probe12live_handlerNtNtB4_5state8AppStateEB4_
FNDA:0,_RINvNtCs39mWnhFxKmJ_10autumn_web5probe13ready_handlerNtNtB4_5state8AppStateEB4_
FNDA:7,_RINvNtCs39mWnhFxKmJ_10autumn_web5probe14probe_responseNtNtB2_5tests14TestProbeStateEB4_
FNDA:7,_RINvNtCs39mWnhFxKmJ_10autumn_web5probe14probe_responseNtNtB4_5state8AppStateEB4_
FNDA:0,_RINvNtCs39mWnhFxKmJ_10autumn_web5probe15startup_handlerNtNtB4_5state8AppStateEB4_
FNDA:7,_RINvNtCs39mWnhFxKmJ_10autumn_web5probe18readiness_responseNtNtB4_5state8AppStateEB4_
FNDA:7,_RINvNtCs39mWnhFxKmJ_10autumn_web5probe20dependency_readinessNtNtB2_5tests14TestProbeStateEB4_
FNDA:7,_RINvNtCs39mWnhFxKmJ_10autumn_web5probe20dependency_readinessNtNtB4_5state8AppStateEB4_
FNDA:0,_RNCINvNtCs39mWnhFxKmJ_10autumn_web5probe12live_handlerNtNtB6_5state8AppStateE0B6_
FNDA:0,_RNCINvNtCs39mWnhFxKmJ_10autumn_web5probe13ready_handlerNtNtB6_5state8AppStateE0B6_
FNDA:0,_RNCINvNtCs39mWnhFxKmJ_10autumn_web5probe15startup_handlerNtNtB6_5state8AppStateE0B6_
FNDA:7,_RNvMs_NtNtCs39mWnhFxKmJ_10autumn_web5probe5testsNtB4_14TestProbeState3new
FNDA:1,_RNvNtNtCs39mWnhFxKmJ_10autumn_web5probe5testss_19test_begin_draining
FNDA:1,_RNvNtNtCs39mWnhFxKmJ_10autumn_web5probe5testss_19test_ready_for_test
FNDA:1,_RNvNtNtCs39mWnhFxKmJ_10autumn_web5probe5testss_26test_health_detailed_false
FNDA:1,_RNvNtNtCs39mWnhFxKmJ_10autumn_web5probe5testss_28test_live_handler_returns_ok
FNDA:1,_RNvNtNtCs39mWnhFxKmJ_10autumn_web5probe5testss_28test_startup_handler_pending
FNDA:1,_RNvNtNtCs39mWnhFxKmJ_10autumn_web5probe5testss_29test_probe_state_set_draining
FNDA:1,_RNvNtNtCs39mWnhFxKmJ_10autumn_web5probe5testss_29test_startup_handler_complete
FNDA:1,_RNvNtNtCs39mWnhFxKmJ_10autumn_web5probe5testss_32test_ready_handler_shutting_down
FNDA:1,_RNvNtNtCs39mWnhFxKmJ_10autumn_web5probe5testss_34test_ready_handler_pending_startup
FNDA:1,_RNvNtNtCs39mWnhFxKmJ_10autumn_web5probe5testss_35test_ready_handler_complete_startup
FNDA:1,_RNvNtNtCs39mWnhFxKmJ_10autumn_web5probe5testss_37test_probe_state_set_startup_complete
FNDA:6,_RNvXNtNtCs39mWnhFxKmJ_10autumn_web5probe5testsNtB2_14TestProbeStateNtB4_17ProvideProbeState14uptime_display
FNDA:7,_RNvXNtNtCs39mWnhFxKmJ_10autumn_web5probe5testsNtB2_14TestProbeStateNtB4_17ProvideProbeState15health_detailed
FNDA:7,_RNvXNtNtCs39mWnhFxKmJ_10autumn_web5probe5testsNtB2_14TestProbeStateNtB4_17ProvideProbeState4pool
FNDA:18,_RNvXNtNtCs39mWnhFxKmJ_10autumn_web5probe5testsNtB2_14TestProbeStateNtB4_17ProvideProbeState6probes
FNDA:6,_RNvXNtNtCs39mWnhFxKmJ_10autumn_web5probe5testsNtB2_14TestProbeStateNtB4_17ProvideProbeState7profile
FNDA:1,_RNCNvNtNtCs39mWnhFxKmJ_10autumn_web5probe5testss_19test_begin_draining0B7_
FNDA:1,_RNCNvNtNtCs39mWnhFxKmJ_10autumn_web5probe5testss_19test_ready_for_test0B7_
FNDA:1,_RNCNvNtNtCs39mWnhFxKmJ_10autumn_web5probe5testss_26test_health_detailed_false0B7_
FNDA:1,_RNCNvNtNtCs39mWnhFxKmJ_10autumn_web5probe5testss_28test_startup_handler_pending0B7_
FNDA:1,_RNCNvNtNtCs39mWnhFxKmJ_10autumn_web5probe5testss_29test_probe_state_set_draining0B7_
FNDA:1,_RNCNvNtNtCs39mWnhFxKmJ_10autumn_web5probe5testss_29test_startup_handler_complete0B7_
FNDA:1,_RNCNvNtNtCs39mWnhFxKmJ_10autumn_web5probe5testss_32test_ready_handler_shutting_down0B7_
FNDA:1,_RNCNvNtNtCs39mWnhFxKmJ_10autumn_web5probe5testss_34test_ready_handler_pending_startup0B7_
FNDA:1,_RNCNvNtNtCs39mWnhFxKmJ_10autumn_web5probe5testss_35test_ready_handler_complete_startup0B7_
FNDA:1,_RNCNvNtNtCs39mWnhFxKmJ_10autumn_web5probe5testss_37test_probe_state_set_startup_complete0B7_
FNDA:3,_RNvYNtNtNtCs39mWnhFxKmJ_10autumn_web5probe5tests14TestProbeStateNtB6_17ProvideProbeState21mark_startup_completeB8_
FNF:48
FNH:42
DA:69,3
DA:70,3
DA:71,3
DA:84,145
DA:85,145
DA:86,145
DA:90,2
DA:91,2
DA:92,2
DA:96,136
DA:97,136
DA:98,136
DA:99,136
DA:100,136
DA:103,139
DA:104,139
DA:105,139
DA:108,2
DA:109,2
DA:110,2
DA:113,2
DA:114,2
DA:115,2
DA:118,1
DA:119,1
DA:120,1
DA:123,1
DA:124,1
DA:125,1
DA:129,40
DA:130,40
DA:131,40
DA:135,18
DA:136,18
DA:137,18
DA:141,4
DA:142,4
DA:143,4
DA:174,14
DA:177,14
DA:178,1
DA:179,1
DA:180,1
DA:181,1
DA:184,1
DA:185,1
DA:186,1
DA:187,1
DA:188,1
DA:189,1
DA:191,13
DA:194,13
DA:195,14
DA:197,14
DA:198,14
DA:199,14
DA:200,14
DA:201,14
DA:202,14
DA:203,14
DA:205,14
DA:206,2
DA:207,1
DA:208,1
DA:209,10
DA:210,8
DA:212,2
DA:215,14
DA:216,14
DA:217,14
DA:218,14
DA:219,12
DA:221,2
DA:223,14
DA:224,12
DA:226,2
DA:228,14
DA:229,12
DA:231,2
DA:233,14
DA:236,14
DA:237,14
DA:240,0
DA:241,0
DA:242,0
DA:243,0
DA:244,0
DA:247,0
DA:248,0
DA:249,0
DA:250,0
DA:251,0
DA:254,0
DA:255,0
DA:256,0
DA:257,0
DA:258,0
DA:261,7
DA:262,7
DA:263,7
DA:264,7
DA:265,7
DA:278,18
DA:279,18
DA:280,18
DA:282,7
DA:283,7
DA:284,7
DA:286,6
DA:287,6
DA:288,6
DA:290,6
DA:291,6
DA:292,6
DA:295,7
DA:296,7
DA:297,7
DA:299,7
DA:300,7
DA:304,7
DA:305,7
DA:306,7
DA:307,7
DA:308,7
DA:309,7
DA:310,7
DA:314,1
DA:315,1
DA:316,1
DA:317,1
DA:318,1
DA:319,1
DA:322,1
DA:323,1
DA:324,1
DA:325,1
DA:326,1
DA:327,1
DA:330,1
DA:331,1
DA:332,1
DA:333,1
DA:334,1
DA:335,1
DA:336,1
DA:339,1
DA:340,1
DA:341,1
DA:342,1
DA:343,1
DA:344,1
DA:347,1
DA:348,1
DA:349,1
DA:350,1
DA:351,1
DA:352,1
DA:353,1
DA:356,1
DA:357,1
DA:358,1
DA:359,1
DA:360,1
DA:361,1
DA:362,1
DA:363,1
DA:366,1
DA:367,1
DA:368,1
DA:369,1
DA:370,1
DA:371,1
DA:374,1
DA:375,1
DA:376,1
DA:377,1
DA:378,1
DA:379,1
DA:382,1
DA:383,1
DA:384,1
DA:385,1
DA:388,1
DA:389,1
DA:390,1
DA:392,1
DA:393,1
DA:394,1
DA:395,1
DA:396,1
DA:397,1
DA:400,1
DA:401,1
DA:402,1
DA:403,1
DA:404,1
DA:405,1
BRF:0
BRH:0
LF:220
LH:202
end_of_record
SF:/app/autumn/src/router.rs
FN:746,_RNvMNtCslNlzF6u6e2e_10autumn_web6routerNtB2_19StartupBarrierState11allows_path
FN:722,_RNvMNtCslNlzF6u6e2e_10autumn_web6routerNtB2_19StartupBarrierState11from_config
FN:863,_RNvNtCslNlzF6u6e2e_10autumn_web6router12htmx_handler
FN:781,_RNvNtCslNlzF6u6e2e_10autumn_web6router15startup_barrier
FN:456,_RNvNtCslNlzF6u6e2e_10autumn_web6router16apply_middleware
FN:810,_RNvNtCslNlzF6u6e2e_10autumn_web6router16build_cors_layer
FN:389,_RNvNtCslNlzF6u6e2e_10autumn_web6router17mount_raw_routers
FN:366,_RNvNtCslNlzF6u6e2e_10autumn_web6router19mount_scoped_groups
FN:409,_RNvNtCslNlzF6u6e2e_10autumn_web6router21apply_cors_middleware
FN:426,_RNvNtCslNlzF6u6e2e_10autumn_web6router21apply_csrf_middleware
FN:759,_RNvNtCslNlzF6u6e2e_10autumn_web6router21apply_startup_barrier
FN:293,_RNvNtCslNlzF6u6e2e_10autumn_web6router21mount_probe_endpoints
FN:227,_RNvNtCslNlzF6u6e2e_10autumn_web6router22group_and_mount_routes
FN:258,_RNvNtCslNlzF6u6e2e_10autumn_web6router22mount_framework_routes
FN:182,_RNvNtCslNlzF6u6e2e_10autumn_web6router22try_build_router_inner
FN:335,_RNvNtCslNlzF6u6e2e_10autumn_web6router24mount_actuator_endpoints
FN:800,_RNvNtCslNlzF6u6e2e_10autumn_web6router25path_matches_route_prefix
FN:439,_RNvNtCslNlzF6u6e2e_10autumn_web6router27apply_rate_limit_middleware
FN:601,_RNvNtCslNlzF6u6e2e_10autumn_web6router34try_build_router_with_static_inner
FN:61,_RNCNvNtCslNlzF6u6e2e_10autumn_web6router12build_router0B5_
FN:142,_RNCNvNtCslNlzF6u6e2e_10autumn_web6router19build_router_merged0B5_
FN:567,_RNCNvNtCslNlzF6u6e2e_10autumn_web6router24build_router_with_static0B5_
FN:55,_RNvNtCslNlzF6u6e2e_10autumn_web6router12build_router
FN:96,_RNvNtCslNlzF6u6e2e_10autumn_web6router16try_build_router
FN:134,_RNvNtCslNlzF6u6e2e_10autumn_web6router19build_router_merged
FN:153,_RNvNtCslNlzF6u6e2e_10autumn_web6router23try_build_router_merged
FN:560,_RNvNtCslNlzF6u6e2e_10autumn_web6router24build_router_with_static
FN:578,_RNvNtCslNlzF6u6e2e_10autumn_web6router28try_build_router_with_static
FN:672,_RNCNCNvNtCslNlzF6u6e2e_10autumn_web6router34try_build_router_with_static_inners_00B7_
FN:751,_RNCNvMNtCslNlzF6u6e2e_10autumn_web6routerNtB4_19StartupBarrierState11allows_path0B6_
FN:755,_RNCNvMNtCslNlzF6u6e2e_10autumn_web6routerNtB4_19StartupBarrierState11allows_paths_0B6_
FN:863,_RNCNvNtCslNlzF6u6e2e_10autumn_web6router12htmx_handler0B5_
FN:785,_RNCNvNtCslNlzF6u6e2e_10autumn_web6router15startup_barrier0B5_
FN:506,_RNCNvNtCslNlzF6u6e2e_10autumn_web6router16apply_middleware0B5_
FN:814,_RNCNvNtCslNlzF6u6e2e_10autumn_web6router16build_cors_layer0B5_
FN:834,_RNCNvNtCslNlzF6u6e2e_10autumn_web6router16build_cors_layers0_0B5_
FN:846,_RNCNvNtCslNlzF6u6e2e_10autumn_web6router16build_cors_layers1_0B5_
FN:820,_RNCNvNtCslNlzF6u6e2e_10autumn_web6router16build_cors_layers_0B5_
FN:245,_RNCNvNtCslNlzF6u6e2e_10autumn_web6router22group_and_mount_routes0B5_
FN:346,_RNCNvNtCslNlzF6u6e2e_10autumn_web6router24mount_actuator_endpoints0B5_
FN:804,_RNCNvNtCslNlzF6u6e2e_10autumn_web6router25path_matches_route_prefix0B5_
FN:638,_RNCNvNtCslNlzF6u6e2e_10autumn_web6router34try_build_router_with_static_inner0B5_
FN:670,_RNCNvNtCslNlzF6u6e2e_10autumn_web6router34try_build_router_with_static_inners_0B5_
FN:142,_RNCNvNtCs39mWnhFxKmJ_10autumn_web6router19build_router_merged0B5_
FN:134,_RNvNtCs39mWnhFxKmJ_10autumn_web6router19build_router_merged
FN:153,_RNvNtCs39mWnhFxKmJ_10autumn_web6router23try_build_router_merged
FN:885,_RNvNtNtCs39mWnhFxKmJ_10autumn_web6router5tests10test_state
FN:1093,_RNvNtNtCs39mWnhFxKmJ_10autumn_web6router5testss_43apply_csrf_middleware_skipped_when_disabled
FN:988,_RNvNtNtCs39mWnhFxKmJ_10autumn_web6router5testss_45apply_cors_middleware_skipped_when_no_origins
FN:1048,_RNvNtNtCs39mWnhFxKmJ_10autumn_web6router5testss_47apply_cors_middleware_handles_preflight_request
FN:1117,_RNvNtNtCs39mWnhFxKmJ_10autumn_web6router5testss_49apply_rate_limit_middleware_skipped_when_disabled
FN:908,_RNvNtNtCs39mWnhFxKmJ_10autumn_web6router5testss_49build_router_mounts_actuator_at_configured_prefix
FN:1018,_RNvNtNtCs39mWnhFxKmJ_10autumn_web6router5testss_53apply_cors_middleware_present_when_origins_configured
FN:1137,_RNvNtNtCs39mWnhFxKmJ_10autumn_web6router5testss_54apply_rate_limit_middleware_returns_429_when_exhausted
FN:1176,_RNvNtNtCs39mWnhFxKmJ_10autumn_web6router5testss_55apply_csrf_middleware_blocks_without_token_when_enabled
FN:940,_RNvNtNtCs39mWnhFxKmJ_10autumn_web6router5testss_55try_build_router_rejects_invalid_session_backend_config
FN:972,_RNvNtNtCs39mWnhFxKmJ_10autumn_web6router5testss_62try_build_router_returns_error_for_probe_actuator_path_overlap
FN:956,_RNvNtNtCs39mWnhFxKmJ_10autumn_web6router5testss_67try_build_router_with_static_rejects_invalid_session_backend_config
FN:672,_RNCNCNvNtCs39mWnhFxKmJ_10autumn_web6router34try_build_router_with_static_inners_00B7_
FN:751,_RNCNvMNtCs39mWnhFxKmJ_10autumn_web6routerNtB4_19StartupBarrierState11allows_path0B6_
FN:755,_RNCNvMNtCs39mWnhFxKmJ_10autumn_web6routerNtB4_19StartupBarrierState11allows_paths_0B6_
FN:61,_RNCNvNtCs39mWnhFxKmJ_10autumn_web6router12build_router0B5_
FN:863,_RNCNvNtCs39mWnhFxKmJ_10autumn_web6router12htmx_handler0B5_
FN:785,_RNCNvNtCs39mWnhFxKmJ_10autumn_web6router15startup_barrier0B5_
FN:506,_RNCNvNtCs39mWnhFxKmJ_10autumn_web6router16apply_middleware0B5_
FN:814,_RNCNvNtCs39mWnhFxKmJ_10autumn_web6router16build_cors_layer0B5_
FN:834,_RNCNvNtCs39mWnhFxKmJ_10autumn_web6router16build_cors_layers0_0B5_
FN:846,_RNCNvNtCs39mWnhFxKmJ_10autumn_web6router16build_cors_layers1_0B5_
FN:820,_RNCNvNtCs39mWnhFxKmJ_10autumn_web6router16build_cors_layers_0B5_
FN:245,_RNCNvNtCs39mWnhFxKmJ_10autumn_web6router22group_and_mount_routes0B5_
FN:567,_RNCNvNtCs39mWnhFxKmJ_10autumn_web6router24build_router_with_static0B5_
FN:346,_RNCNvNtCs39mWnhFxKmJ_10autumn_web6router24mount_actuator_endpoints0B5_
FN:804,_RNCNvNtCs39mWnhFxKmJ_10autumn_web6router25path_matches_route_prefix0B5_
FN:638,_RNCNvNtCs39mWnhFxKmJ_10autumn_web6router34try_build_router_with_static_inner0B5_
FN:670,_RNCNvNtCs39mWnhFxKmJ_10autumn_web6router34try_build_router_with_static_inners_0B5_
FN:746,_RNvMNtCs39mWnhFxKmJ_10autumn_web6routerNtB2_19StartupBarrierState11allows_path
FN:722,_RNvMNtCs39mWnhFxKmJ_10autumn_web6routerNtB2_19StartupBarrierState11from_config
FN:55,_RNvNtCs39mWnhFxKmJ_10autumn_web6router12build_router
FN:863,_RNvNtCs39mWnhFxKmJ_10autumn_web6router12htmx_handler
FN:781,_RNvNtCs39mWnhFxKmJ_10autumn_web6router15startup_barrier
FN:456,_RNvNtCs39mWnhFxKmJ_10autumn_web6router16apply_middleware
FN:810,_RNvNtCs39mWnhFxKmJ_10autumn_web6router16build_cors_layer
FN:96,_RNvNtCs39mWnhFxKmJ_10autumn_web6router16try_build_router
FN:389,_RNvNtCs39mWnhFxKmJ_10autumn_web6router17mount_raw_routers
FN:366,_RNvNtCs39mWnhFxKmJ_10autumn_web6router19mount_scoped_groups
FN:409,_RNvNtCs39mWnhFxKmJ_10autumn_web6router21apply_cors_middleware
FN:426,_RNvNtCs39mWnhFxKmJ_10autumn_web6router21apply_csrf_middleware
FN:759,_RNvNtCs39mWnhFxKmJ_10autumn_web6router21apply_startup_barrier
FN:293,_RNvNtCs39mWnhFxKmJ_10autumn_web6router21mount_probe_endpoints
FN:227,_RNvNtCs39mWnhFxKmJ_10autumn_web6router22group_and_mount_routes
FN:258,_RNvNtCs39mWnhFxKmJ_10autumn_web6router22mount_framework_routes
FN:182,_RNvNtCs39mWnhFxKmJ_10autumn_web6router22try_build_router_inner
FN:560,_RNvNtCs39mWnhFxKmJ_10autumn_web6router24build_router_with_static
FN:335,_RNvNtCs39mWnhFxKmJ_10autumn_web6router24mount_actuator_endpoints
FN:800,_RNvNtCs39mWnhFxKmJ_10autumn_web6router25path_matches_route_prefix
FN:439,_RNvNtCs39mWnhFxKmJ_10autumn_web6router27apply_rate_limit_middleware
FN:578,_RNvNtCs39mWnhFxKmJ_10autumn_web6router28try_build_router_with_static
FN:601,_RNvNtCs39mWnhFxKmJ_10autumn_web6router34try_build_router_with_static_inner
FN:1098,_RNCNCNCNvNtNtCs39mWnhFxKmJ_10autumn_web6router5testss_43apply_csrf_middleware_skipped_when_disabled000Bb_
FN:993,_RNCNCNCNvNtNtCs39mWnhFxKmJ_10autumn_web6router5testss_45apply_cors_middleware_skipped_when_no_origins000Bb_
FN:1053,_RNCNCNCNvNtNtCs39mWnhFxKmJ_10autumn_web6router5testss_47apply_cors_middleware_handles_preflight_request000Bb_
FN:1122,_RNCNCNCNvNtNtCs39mWnhFxKmJ_10autumn_web6router5testss_49apply_rate_limit_middleware_skipped_when_disabled000Bb_
FN:1023,_RNCNCNCNvNtNtCs39mWnhFxKmJ_10autumn_web6router5testss_53apply_cors_middleware_present_when_origins_configured000Bb_
FN:1145,_RNCNCNCNvNtNtCs39mWnhFxKmJ_10autumn_web6router5testss_54apply_rate_limit_middleware_returns_429_when_exhausted000Bb_
FN:1181,_RNCNCNCNvNtNtCs39mWnhFxKmJ_10autumn_web6router5testss_55apply_csrf_middleware_blocks_without_token_when_enabled000Bb_
FN:1098,_RNCNCNvNtNtCs39mWnhFxKmJ_10autumn_web6router5testss_43apply_csrf_middleware_skipped_when_disabled00B9_
FN:993,_RNCNCNvNtNtCs39mWnhFxKmJ_10autumn_web6router5testss_45apply_cors_middleware_skipped_when_no_origins00B9_
FN:1053,_RNCNCNvNtNtCs39mWnhFxKmJ_10autumn_web6router5testss_47apply_cors_middleware_handles_preflight_request00B9_
FN:1074,_RNCNCNvNtNtCs39mWnhFxKmJ_10autumn_web6router5testss_47apply_cors_middleware_handles_preflight_request0s_0B9_
FN:1122,_RNCNCNvNtNtCs39mWnhFxKmJ_10autumn_web6router5testss_49apply_rate_limit_middleware_skipped_when_disabled00B9_
FN:1023,_RNCNCNvNtNtCs39mWnhFxKmJ_10autumn_web6router5testss_53apply_cors_middleware_present_when_origins_configured00B9_
FN:1145,_RNCNCNvNtNtCs39mWnhFxKmJ_10autumn_web6router5testss_54apply_rate_limit_middleware_returns_429_when_exhausted00B9_
FN:1181,_RNCNCNvNtNtCs39mWnhFxKmJ_10autumn_web6router5testss_55apply_csrf_middleware_blocks_without_token_when_enabled00B9_
FN:1093,_RNCNvNtNtCs39mWnhFxKmJ_10autumn_web6router5testss_43apply_csrf_middleware_skipped_when_disabled0B7_
FN:988,_RNCNvNtNtCs39mWnhFxKmJ_10autumn_web6router5testss_45apply_cors_middleware_skipped_when_no_origins0B7_
FN:1048,_RNCNvNtNtCs39mWnhFxKmJ_10autumn_web6router5testss_47apply_cors_middleware_handles_preflight_request0B7_
FN:1117,_RNCNvNtNtCs39mWnhFxKmJ_10autumn_web6router5testss_49apply_rate_limit_middleware_skipped_when_disabled0B7_
FN:908,_RNCNvNtNtCs39mWnhFxKmJ_10autumn_web6router5testss_49build_router_mounts_actuator_at_configured_prefix0B7_
FN:1018,_RNCNvNtNtCs39mWnhFxKmJ_10autumn_web6router5testss_53apply_cors_middleware_present_when_origins_configured0B7_
FN:1137,_RNCNvNtNtCs39mWnhFxKmJ_10autumn_web6router5testss_54apply_rate_limit_middleware_returns_429_when_exhausted0B7_
FN:1176,_RNCNvNtNtCs39mWnhFxKmJ_10autumn_web6router5testss_55apply_csrf_middleware_blocks_without_token_when_enabled0B7_
FN:976,_RNCNvNtNtCs39mWnhFxKmJ_10autumn_web6router5testss_62try_build_router_returns_error_for_probe_actuator_path_overlap0B7_
FNDA:0,_RNvMNtCslNlzF6u6e2e_10autumn_web6routerNtB2_19StartupBarrierState11allows_path
FNDA:0,_RNvMNtCslNlzF6u6e2e_10autumn_web6routerNtB2_19StartupBarrierState11from_config
FNDA:0,_RNvNtCslNlzF6u6e2e_10autumn_web6router12htmx_handler
FNDA:0,_RNvNtCslNlzF6u6e2e_10autumn_web6router15startup_barrier
FNDA:32,_RNvNtCslNlzF6u6e2e_10autumn_web6router16apply_middleware
FNDA:0,_RNvNtCslNlzF6u6e2e_10autumn_web6router16build_cors_layer
FNDA:33,_RNvNtCslNlzF6u6e2e_10autumn_web6router17mount_raw_routers
FNDA:33,_RNvNtCslNlzF6u6e2e_10autumn_web6router19mount_scoped_groups
FNDA:32,_RNvNtCslNlzF6u6e2e_10autumn_web6router21apply_cors_middleware
FNDA:32,_RNvNtCslNlzF6u6e2e_10autumn_web6router21apply_csrf_middleware
FNDA:0,_RNvNtCslNlzF6u6e2e_10autumn_web6router21apply_startup_barrier
FNDA:33,_RNvNtCslNlzF6u6e2e_10autumn_web6router21mount_probe_endpoints
FNDA:33,_RNvNtCslNlzF6u6e2e_10autumn_web6router22group_and_mount_routes
FNDA:33,_RNvNtCslNlzF6u6e2e_10autumn_web6router22mount_framework_routes
FNDA:33,_RNvNtCslNlzF6u6e2e_10autumn_web6router22try_build_router_inner
FNDA:33,_RNvNtCslNlzF6u6e2e_10autumn_web6router24mount_actuator_endpoints
FNDA:0,_RNvNtCslNlzF6u6e2e_10autumn_web6router25path_matches_route_prefix
FNDA:32,_RNvNtCslNlzF6u6e2e_10autumn_web6router27apply_rate_limit_middleware
FNDA:0,_RNvNtCslNlzF6u6e2e_10autumn_web6router34try_build_router_with_static_inner
FNDA:0,_RNCNvNtCslNlzF6u6e2e_10autumn_web6router12build_router0B5_
FNDA:0,_RNCNvNtCslNlzF6u6e2e_10autumn_web6router19build_router_merged0B5_
FNDA:0,_RNCNvNtCslNlzF6u6e2e_10autumn_web6router24build_router_with_static0B5_
FNDA:0,_RNvNtCslNlzF6u6e2e_10autumn_web6router12build_router
FNDA:0,_RNvNtCslNlzF6u6e2e_10autumn_web6router16try_build_router
FNDA:0,_RNvNtCslNlzF6u6e2e_10autumn_web6router19build_router_merged
FNDA:0,_RNvNtCslNlzF6u6e2e_10autumn_web6router23try_build_router_merged
FNDA:0,_RNvNtCslNlzF6u6e2e_10autumn_web6router24build_router_with_static
FNDA:0,_RNvNtCslNlzF6u6e2e_10autumn_web6router28try_build_router_with_static
FNDA:0,_RNCNCNvNtCslNlzF6u6e2e_10autumn_web6router34try_build_router_with_static_inners_00B7_
FNDA:0,_RNCNvMNtCslNlzF6u6e2e_10autumn_web6routerNtB4_19StartupBarrierState11allows_path0B6_
FNDA:0,_RNCNvMNtCslNlzF6u6e2e_10autumn_web6routerNtB4_19StartupBarrierState11allows_paths_0B6_
FNDA:0,_RNCNvNtCslNlzF6u6e2e_10autumn_web6router12htmx_handler0B5_
FNDA:0,_RNCNvNtCslNlzF6u6e2e_10autumn_web6router15startup_barrier0B5_
FNDA:29,_RNCNvNtCslNlzF6u6e2e_10autumn_web6router16apply_middleware0B5_
FNDA:0,_RNCNvNtCslNlzF6u6e2e_10autumn_web6router16build_cors_layer0B5_
FNDA:0,_RNCNvNtCslNlzF6u6e2e_10autumn_web6router16build_cors_layers0_0B5_
FNDA:0,_RNCNvNtCslNlzF6u6e2e_10autumn_web6router16build_cors_layers1_0B5_
FNDA:0,_RNCNvNtCslNlzF6u6e2e_10autumn_web6router16build_cors_layers_0B5_
FNDA:26,_RNCNvNtCslNlzF6u6e2e_10autumn_web6router22group_and_mount_routes0B5_
FNDA:165,_RNCNvNtCslNlzF6u6e2e_10autumn_web6router24mount_actuator_endpoints0B5_
FNDA:0,_RNCNvNtCslNlzF6u6e2e_10autumn_web6router25path_matches_route_prefix0B5_
FNDA:0,_RNCNvNtCslNlzF6u6e2e_10autumn_web6router34try_build_router_with_static_inner0B5_
FNDA:0,_RNCNvNtCslNlzF6u6e2e_10autumn_web6router34try_build_router_with_static_inners_0B5_
FNDA:0,_RNCNvNtCs39mWnhFxKmJ_10autumn_web6router19build_router_merged0B5_
FNDA:0,_RNvNtCs39mWnhFxKmJ_10autumn_web6router19build_router_merged
FNDA:0,_RNvNtCs39mWnhFxKmJ_10autumn_web6router23try_build_router_merged
FNDA:11,_RNvNtNtCs39mWnhFxKmJ_10autumn_web6router5tests10test_state
FNDA:1,_RNvNtNtCs39mWnhFxKmJ_10autumn_web6router5testss_43apply_csrf_middleware_skipped_when_disabled
FNDA:1,_RNvNtNtCs39mWnhFxKmJ_10autumn_web6router5testss_45apply_cors_middleware_skipped_when_no_origins
FNDA:1,_RNvNtNtCs39mWnhFxKmJ_10autumn_web6router5testss_47apply_cors_middleware_handles_preflight_request
FNDA:1,_RNvNtNtCs39mWnhFxKmJ_10autumn_web6router5testss_49apply_rate_limit_middleware_skipped_when_disabled
FNDA:1,_RNvNtNtCs39mWnhFxKmJ_10autumn_web6router5testss_49build_router_mounts_actuator_at_configured_prefix
FNDA:1,_RNvNtNtCs39mWnhFxKmJ_10autumn_web6router5testss_53apply_cors_middleware_present_when_origins_configured
FNDA:1,_RNvNtNtCs39mWnhFxKmJ_10autumn_web6router5testss_54apply_rate_limit_middleware_returns_429_when_exhausted
FNDA:1,_RNvNtNtCs39mWnhFxKmJ_10autumn_web6router5testss_55apply_csrf_middleware_blocks_without_token_when_enabled
FNDA:1,_RNvNtNtCs39mWnhFxKmJ_10autumn_web6router5testss_55try_build_router_rejects_invalid_session_backend_config
FNDA:1,_RNvNtNtCs39mWnhFxKmJ_10autumn_web6router5testss_62try_build_router_returns_error_for_probe_actuator_path_overlap
FNDA:1,_RNvNtNtCs39mWnhFxKmJ_10autumn_web6router5testss_67try_build_router_with_static_rejects_invalid_session_backend_config
FNDA:1,_RNCNCNvNtCs39mWnhFxKmJ_10autumn_web6router34try_build_router_with_static_inners_00B7_
FNDA:0,_RNCNvMNtCs39mWnhFxKmJ_10autumn_web6routerNtB4_19StartupBarrierState11allows_path0B6_
FNDA:0,_RNCNvMNtCs39mWnhFxKmJ_10autumn_web6routerNtB4_19StartupBarrierState11allows_paths_0B6_
FNDA:0,_RNCNvNtCs39mWnhFxKmJ_10autumn_web6router12build_router0B5_
FNDA:2,_RNCNvNtCs39mWnhFxKmJ_10autumn_web6router12htmx_handler0B5_
FNDA:25,_RNCNvNtCs39mWnhFxKmJ_10autumn_web6router15startup_barrier0B5_
FNDA:7,_RNCNvNtCs39mWnhFxKmJ_10autumn_web6router16apply_middleware0B5_
FNDA:5,_RNCNvNtCs39mWnhFxKmJ_10autumn_web6router16build_cors_layer0B5_
FNDA:30,_RNCNvNtCs39mWnhFxKmJ_10autumn_web6router16build_cors_layers0_0B5_
FNDA:10,_RNCNvNtCs39mWnhFxKmJ_10autumn_web6router16build_cors_layers1_0B5_
FNDA:4,_RNCNvNtCs39mWnhFxKmJ_10autumn_web6router16build_cors_layers_0B5_
FNDA:1,_RNCNvNtCs39mWnhFxKmJ_10autumn_web6router22group_and_mount_routes0B5_
FNDA:0,_RNCNvNtCs39mWnhFxKmJ_10autumn_web6router24build_router_with_static0B5_
FNDA:162,_RNCNvNtCs39mWnhFxKmJ_10autumn_web6router24mount_actuator_endpoints0B5_
FNDA:0,_RNCNvNtCs39mWnhFxKmJ_10autumn_web6router25path_matches_route_prefix0B5_
FNDA:1,_RNCNvNtCs39mWnhFxKmJ_10autumn_web6router34try_build_router_with_static_inner0B5_
FNDA:1,_RNCNvNtCs39mWnhFxKmJ_10autumn_web6router34try_build_router_with_static_inners_0B5_
FNDA:0,_RNvMNtCs39mWnhFxKmJ_10autumn_web6routerNtB2_19StartupBarrierState11allows_path
FNDA:22,_RNvMNtCs39mWnhFxKmJ_10autumn_web6routerNtB2_19StartupBarrierState11from_config
FNDA:19,_RNvNtCs39mWnhFxKmJ_10autumn_web6router12build_router
FNDA:2,_RNvNtCs39mWnhFxKmJ_10autumn_web6router12htmx_handler
FNDA:25,_RNvNtCs39mWnhFxKmJ_10autumn_web6router15startup_barrier
FNDA:31,_RNvNtCs39mWnhFxKmJ_10autumn_web6router16apply_middleware
FNDA:5,_RNvNtCs39mWnhFxKmJ_10autumn_web6router16build_cors_layer
FNDA:21,_RNvNtCs39mWnhFxKmJ_10autumn_web6router16try_build_router
FNDA:31,_RNvNtCs39mWnhFxKmJ_10autumn_web6router17mount_raw_routers
FNDA:31,_RNvNtCs39mWnhFxKmJ_10autumn_web6router19mount_scoped_groups
FNDA:34,_RNvNtCs39mWnhFxKmJ_10autumn_web6router21apply_cors_middleware
FNDA:33,_RNvNtCs39mWnhFxKmJ_10autumn_web6router21apply_csrf_middleware
FNDA:22,_RNvNtCs39mWnhFxKmJ_10autumn_web6router21apply_startup_barrier
FNDA:32,_RNvNtCs39mWnhFxKmJ_10autumn_web6router21mount_probe_endpoints
FNDA:32,_RNvNtCs39mWnhFxKmJ_10autumn_web6router22group_and_mount_routes
FNDA:32,_RNvNtCs39mWnhFxKmJ_10autumn_web6router22mount_framework_routes
FNDA:32,_RNvNtCs39mWnhFxKmJ_10autumn_web6router22try_build_router_inner
FNDA:3,_RNvNtCs39mWnhFxKmJ_10autumn_web6router24build_router_with_static
FNDA:32,_RNvNtCs39mWnhFxKmJ_10autumn_web6router24mount_actuator_endpoints
FNDA:0,_RNvNtCs39mWnhFxKmJ_10autumn_web6router25path_matches_route_prefix
FNDA:33,_RNvNtCs39mWnhFxKmJ_10autumn_web6router27apply_rate_limit_middleware
FNDA:4,_RNvNtCs39mWnhFxKmJ_10autumn_web6router28try_build_router_with_static
FNDA:4,_RNvNtCs39mWnhFxKmJ_10autumn_web6router34try_build_router_with_static_inner
FNDA:1,_RNCNCNCNvNtNtCs39mWnhFxKmJ_10autumn_web6router5testss_43apply_csrf_middleware_skipped_when_disabled000Bb_
FNDA:1,_RNCNCNCNvNtNtCs39mWnhFxKmJ_10autumn_web6router5testss_45apply_cors_middleware_skipped_when_no_origins000Bb_
FNDA:0,_RNCNCNCNvNtNtCs39mWnhFxKmJ_10autumn_web6router5testss_47apply_cors_middleware_handles_preflight_request000Bb_
FNDA:5,_RNCNCNCNvNtNtCs39mWnhFxKmJ_10autumn_web6router5testss_49apply_rate_limit_middleware_skipped_when_disabled000Bb_
FNDA:1,_RNCNCNCNvNtNtCs39mWnhFxKmJ_10autumn_web6router5testss_53apply_cors_middleware_present_when_origins_configured000Bb_
FNDA:1,_RNCNCNCNvNtNtCs39mWnhFxKmJ_10autumn_web6router5testss_54apply_rate_limit_middleware_returns_429_when_exhausted000Bb_
FNDA:0,_RNCNCNCNvNtNtCs39mWnhFxKmJ_10autumn_web6router5testss_55apply_csrf_middleware_blocks_without_token_when_enabled000Bb_
FNDA:1,_RNCNCNvNtNtCs39mWnhFxKmJ_10autumn_web6router5testss_43apply_csrf_middleware_skipped_when_disabled00B9_
FNDA:1,_RNCNCNvNtNtCs39mWnhFxKmJ_10autumn_web6router5testss_45apply_cors_middleware_skipped_when_no_origins00B9_
FNDA:0,_RNCNCNvNtNtCs39mWnhFxKmJ_10autumn_web6router5testss_47apply_cors_middleware_handles_preflight_request00B9_
FNDA:1,_RNCNCNvNtNtCs39mWnhFxKmJ_10autumn_web6router5testss_47apply_cors_middleware_handles_preflight_request0s_0B9_
FNDA:5,_RNCNCNvNtNtCs39mWnhFxKmJ_10autumn_web6router5testss_49apply_rate_limit_middleware_skipped_when_disabled00B9_
FNDA:1,_RNCNCNvNtNtCs39mWnhFxKmJ_10autumn_web6router5testss_53apply_cors_middleware_present_when_origins_configured00B9_
FNDA:1,_RNCNCNvNtNtCs39mWnhFxKmJ_10autumn_web6router5testss_54apply_rate_limit_middleware_returns_429_when_exhausted00B9_
FNDA:0,_RNCNCNvNtNtCs39mWnhFxKmJ_10autumn_web6router5testss_55apply_csrf_middleware_blocks_without_token_when_enabled00B9_
FNDA:1,_RNCNvNtNtCs39mWnhFxKmJ_10autumn_web6router5testss_43apply_csrf_middleware_skipped_when_disabled0B7_
FNDA:1,_RNCNvNtNtCs39mWnhFxKmJ_10autumn_web6router5testss_45apply_cors_middleware_skipped_when_no_origins0B7_
FNDA:1,_RNCNvNtNtCs39mWnhFxKmJ_10autumn_web6router5testss_47apply_cors_middleware_handles_preflight_request0B7_
FNDA:1,_RNCNvNtNtCs39mWnhFxKmJ_10autumn_web6router5testss_49apply_rate_limit_middleware_skipped_when_disabled0B7_
FNDA:1,_RNCNvNtNtCs39mWnhFxKmJ_10autumn_web6router5testss_49build_router_mounts_actuator_at_configured_prefix0B7_
FNDA:1,_RNCNvNtNtCs39mWnhFxKmJ_10autumn_web6router5testss_53apply_cors_middleware_present_when_origins_configured0B7_
FNDA:1,_RNCNvNtNtCs39mWnhFxKmJ_10autumn_web6router5testss_54apply_rate_limit_middleware_returns_429_when_exhausted0B7_
FNDA:1,_RNCNvNtNtCs39mWnhFxKmJ_10autumn_web6router5testss_55apply_csrf_middleware_blocks_without_token_when_enabled0B7_
FNDA:1,_RNCNvNtNtCs39mWnhFxKmJ_10autumn_web6router5testss_62try_build_router_returns_error_for_probe_actuator_path_overlap0B7_
FNF:79
FNH:65
DA:55,19
DA:56,19
DA:57,19
DA:58,19
DA:59,19
DA:60,19
DA:61,19
DA:62,19
DA:96,21
DA:97,21
DA:98,21
DA:99,21
DA:100,21
DA:101,21
DA:102,21
DA:103,21
DA:104,21
DA:105,21
DA:106,21
DA:107,21
DA:108,21
DA:109,21
DA:110,21
DA:111,21
DA:112,21
DA:113,21
DA:114,21
DA:115,2
DA:116,19
DA:117,19
DA:118,19
DA:119,19
DA:120,19
DA:121,21
DA:134,0
DA:135,0
DA:136,0
DA:137,0
DA:138,0
DA:139,0
DA:140,0
DA:141,0
DA:142,0
DA:143,0
DA:153,0
DA:154,0
DA:155,0
DA:156,0
DA:157,0
DA:158,0
DA:159,0
DA:160,0
DA:161,0
DA:162,0
DA:163,0
DA:164,0
DA:165,0
DA:166,0
DA:167,0
DA:168,0
DA:169,0
DA:170,0
DA:171,0
DA:172,0
DA:173,0
DA:174,0
DA:175,0
DA:176,0
DA:177,0
DA:178,0
DA:179,0
DA:180,0
DA:182,65
DA:183,65
DA:184,65
DA:185,65
DA:186,65
DA:187,65
DA:188,65
DA:190,65
DA:192,65
DA:194,65
DA:195,65
DA:197,65
DA:200,64
DA:201,64
DA:202,64
DA:204,64
DA:206,64
DA:208,64
DA:209,64
DA:210,64
DA:211,64
DA:212,64
DA:213,64
DA:214,64
DA:215,64
DA:216,2
DA:218,62
DA:219,7
DA:220,7
DA:221,7
DA:222,55
DA:224,62
DA:225,65
DA:227,65
DA:232,65
DA:233,65
DA:234,160
DA:235,160
DA:242,160
DA:243,160
DA:244,160
DA:245,160
DA:246,27
DA:247,27
DA:248,160
DA:251,65
DA:252,133
DA:253,133
DA:254,133
DA:255,65
DA:256,65
DA:258,65
DA:259,65
DA:260,65
DA:261,65
DA:265,65
DA:266,65
DA:269,0
DA:274,65
DA:275,7
DA:276,7
DA:277,7
DA:279,7
DA:280,7
DA:281,7
DA:283,7
DA:288,58
DA:290,65
DA:291,65
DA:293,65
DA:294,65
DA:295,65
DA:296,65
DA:298,65
DA:300,65
DA:301,65
DA:302,65
DA:303,65
DA:304,65
DA:305,65
DA:306,65
DA:307,65
DA:308,65
DA:309,65
DA:310,65
DA:311,65
DA:312,65
DA:313,65
DA:314,65
DA:315,65
DA:316,65
DA:317,65
DA:318,65
DA:319,65
DA:320,65
DA:321,65
DA:322,65
DA:323,65
DA:324,65
DA:332,65
DA:333,65
DA:335,65
DA:336,65
DA:337,65
DA:338,65
DA:339,65
DA:341,65
DA:342,65
DA:343,65
DA:344,65
DA:345,65
DA:346,327
DA:348,1
DA:349,1
DA:350,1
DA:351,1
DA:352,1
DA:353,64
DA:354,64
DA:355,64
DA:356,64
DA:358,64
DA:363,64
DA:364,65
DA:366,64
DA:367,64
DA:368,64
DA:369,64
DA:371,64
DA:372,0
DA:373,0
DA:374,0
DA:381,0
DA:383,0
DA:384,0
DA:386,64
DA:387,64
DA:389,64
DA:390,64
DA:391,64
DA:392,64
DA:393,64
DA:396,64
DA:397,6
DA:398,6
DA:402,64
DA:403,4
DA:404,4
DA:406,64
DA:407,64
DA:409,66
DA:410,66
DA:411,66
DA:412,66
DA:414,66
DA:415,5
DA:416,5
DA:421,5
DA:422,61
DA:423,66
DA:424,66
DA:426,65
DA:427,65
DA:428,65
DA:429,65
DA:431,65
DA:432,1
DA:433,1
DA:434,1
DA:435,64
DA:436,65
DA:437,65
DA:439,65
DA:440,65
DA:441,65
DA:442,65
DA:444,65
DA:445,3
DA:446,3
DA:451,3
DA:452,62
DA:453,65
DA:454,65
DA:456,63
DA:457,63
DA:458,63
DA:459,63
DA:460,63
DA:461,63
DA:462,63
DA:463,63
DA:464,63
DA:465,63
DA:466,63
DA:467,63
DA:470,63
DA:471,63
DA:472,63
DA:475,63
DA:482,63
DA:483,63
DA:484,3
DA:485,3
DA:486,63
DA:487,3
DA:488,60
DA:492,63
DA:493,63
DA:494,63
DA:495,63
DA:496,63
DA:497,63
DA:498,2
DA:499,61
DA:503,61
DA:504,61
DA:505,61
DA:506,61
DA:507,61
DA:508,61
DA:509,61
DA:513,61
DA:514,61
DA:516,61
DA:517,61
DA:530,61
DA:531,61
DA:532,61
DA:533,61
DA:535,61
DA:536,63
DA:560,3
DA:561,3
DA:562,3
DA:563,3
DA:564,3
DA:565,3
DA:566,3
DA:567,3
DA:568,3
DA:578,4
DA:579,4
DA:580,4
DA:581,4
DA:582,4
DA:583,4
DA:584,4
DA:585,4
DA:586,4
DA:587,4
DA:588,4
DA:589,4
DA:590,4
DA:591,4
DA:592,4
DA:593,4
DA:594,4
DA:595,4
DA:596,4
DA:597,4
DA:599,4
DA:601,4
DA:602,4
DA:603,4
DA:604,4
DA:605,4
DA:606,4
DA:607,4
DA:608,4
DA:609,4
DA:611,3
DA:612,1
DA:613,1
DA:614,1
DA:615,1
DA:616,1
DA:619,2
DA:620,1
DA:621,0
DA:624,1
DA:625,1
DA:626,1
DA:627,1
DA:628,1
DA:634,1
DA:635,1
DA:636,1
DA:637,1
DA:638,1
DA:639,1
DA:640,0
DA:642,1
DA:645,1
DA:646,1
DA:655,1
DA:668,1
DA:669,1
DA:670,1
DA:671,1
DA:672,1
DA:673,1
DA:674,1
DA:675,1
DA:676,1
DA:678,1
DA:679,1
DA:681,0
DA:683,1
DA:684,1
DA:685,1
DA:686,0
DA:688,1
DA:690,1
DA:691,1
DA:692,1
DA:693,1
DA:694,1
DA:695,0
DA:696,0
DA:697,0
DA:698,0
DA:699,1
DA:700,1
DA:703,1
DA:704,1
DA:705,1
DA:706,1
DA:707,1
DA:708,4
DA:722,22
DA:723,22
DA:724,1
DA:725,1
DA:726,1
DA:729,21
DA:732,22
DA:733,22
DA:734,22
DA:735,22
DA:736,22
DA:737,22
DA:738,22
DA:739,22
DA:740,22
DA:741,22
DA:742,22
DA:743,22
DA:744,22
DA:746,0
DA:747,0
DA:748,0
DA:749,0
DA:750,0
DA:751,0
DA:752,0
DA:753,0
DA:754,0
DA:755,0
DA:756,0
DA:759,22
DA:760,22
DA:761,22
DA:762,22
DA:763,22
DA:764,22
DA:765,22
DA:766,22
DA:778,22
DA:779,22
DA:781,25
DA:782,25
DA:783,25
DA:784,25
DA:785,25
DA:786,25
DA:787,23
DA:788,0
DA:790,25
DA:792,0
DA:793,0
DA:794,0
DA:795,0
DA:796,0
DA:798,25
DA:800,0
DA:801,0
DA:802,0
DA:803,0
DA:804,0
DA:805,0
DA:810,5
DA:814,5
DA:815,1
DA:817,4
DA:818,4
DA:819,4
DA:820,4
DA:821,4
DA:822,0
DA:823,0
DA:824,0
DA:826,4
DA:827,4
DA:828,4
DA:831,5
DA:832,5
DA:833,5
DA:834,30
DA:835,30
DA:836,0
DA:837,0
DA:838,0
DA:840,30
DA:841,5
DA:843,5
DA:844,5
DA:845,5
DA:846,10
DA:847,10
DA:848,0
DA:849,0
DA:850,0
DA:852,10
DA:853,5
DA:855,5
DA:856,5
DA:857,5
DA:858,5
DA:859,5
DA:860,5
DA:863,2
DA:865,2
DA:866,2
DA:867,2
DA:868,2
DA:869,2
DA:870,2
DA:871,2
DA:872,2
DA:873,2
DA:874,2
DA:875,2
DA:876,2
DA:885,11
DA:886,11
DA:887,11
DA:888,11
DA:889,11
DA:890,11
DA:891,11
DA:892,11
DA:893,11
DA:894,11
DA:895,11
DA:896,11
DA:897,11
DA:898,11
DA:899,11
DA:900,11
DA:901,11
DA:902,11
DA:903,11
DA:904,11
DA:905,11
DA:908,1
DA:909,1
DA:910,1
DA:911,1
DA:913,1
DA:915,1
DA:916,1
DA:917,1
DA:918,1
DA:919,1
DA:920,1
DA:921,1
DA:922,1
DA:923,1
DA:924,1
DA:925,1
DA:927,1
DA:928,1
DA:929,1
DA:930,1
DA:931,1
DA:932,1
DA:933,1
DA:934,1
DA:935,1
DA:936,1
DA:937,1
DA:940,1
DA:941,1
DA:942,1
DA:944,1
DA:945,1
DA:947,1
DA:948,1
DA:953,1
DA:956,1
DA:957,1
DA:958,1
DA:960,1
DA:961,1
DA:963,1
DA:964,1
DA:969,1
DA:972,1
DA:973,1
DA:974,1
DA:976,1
DA:977,1
DA:978,1
DA:980,1
DA:981,1
DA:982,1
DA:985,1
DA:988,1
DA:989,1
DA:990,1
DA:992,1
DA:993,2
DA:994,1
DA:996,1
DA:997,1
DA:998,1
DA:999,1
DA:1000,1
DA:1001,1
DA:1002,1
DA:1003,1
DA:1004,1
DA:1005,1
DA:1007,1
DA:1008,1
DA:1009,1
DA:1010,1
DA:1011,1
DA:1012,1
DA:1013,1
DA:1014,1
DA:1015,1
DA:1018,1
DA:1019,1
DA:1020,1
DA:1022,1
DA:1023,2
DA:1024,1
DA:1026,1
DA:1027,1
DA:1028,1
DA:1029,1
DA:1030,1
DA:1031,1
DA:1032,1
DA:1033,1
DA:1034,1
DA:1035,1
DA:1037,1
DA:1038,1
DA:1039,1
DA:1040,1
DA:1041,1
DA:1042,1
DA:1043,1
DA:1044,1
DA:1045,1
DA:1048,1
DA:1049,1
DA:1050,1
DA:1052,1
DA:1053,1
DA:1054,1
DA:1056,1
DA:1057,1
DA:1058,1
DA:1059,1
DA:1060,1
DA:1061,1
DA:1062,1
DA:1063,1
DA:1064,1
DA:1065,1
DA:1066,1
DA:1067,1
DA:1068,1
DA:1070,1
DA:1071,1
DA:1072,1
DA:1073,1
DA:1074,1
DA:1078,1
DA:1079,1
DA:1082,1
DA:1083,1
DA:1086,1
DA:1087,1
DA:1088,1
DA:1089,1
DA:1090,1
DA:1093,1
DA:1094,1
DA:1095,1
DA:1097,1
DA:1098,2
DA:1099,1
DA:1102,1
DA:1103,1
DA:1104,1
DA:1105,1
DA:1106,1
DA:1107,1
DA:1108,1
DA:1109,1
DA:1110,1
DA:1111,1
DA:1113,1
DA:1114,1
DA:1117,1
DA:1118,1
DA:1119,1
DA:1121,1
DA:1122,10
DA:1123,1
DA:1126,1
DA:1127,5
DA:1128,5
DA:1129,5
DA:1130,5
DA:1131,5
DA:1132,5
DA:1133,1
DA:1134,1
DA:1137,1
DA:1138,1
DA:1139,1
DA:1140,1
DA:1141,1
DA:1142,1
DA:1144,1
DA:1145,2
DA:1146,1
DA:1148,1
DA:1149,1
DA:1150,1
DA:1151,1
DA:1152,1
DA:1153,1
DA:1154,1
DA:1155,1
DA:1156,1
DA:1157,1
DA:1158,1
DA:1159,1
DA:1161,1
DA:1162,1
DA:1163,1
DA:1164,1
DA:1165,1
DA:1166,1
DA:1167,1
DA:1168,1
DA:1169,1
DA:1170,1
DA:1171,1
DA:1172,1
DA:1173,1
DA:1176,1
DA:1177,1
DA:1178,1
DA:1180,1
DA:1181,1
DA:1182,1
DA:1185,1
DA:1186,1
DA:1187,1
DA:1188,1
DA:1189,1
DA:1190,1
DA:1191,1
DA:1192,1
DA:1193,1
DA:1194,1
DA:1196,1
DA:1197,1
DA:1198,1
DA:1199,1
DA:1200,1
DA:1201,1
BRF:0
BRH:0
LF:825
LH:729
end_of_record
SF:/app/autumn/src/security/config.rs
FN:402,_RNvNtNtCslNlzF6u6e2e_10autumn_web8security6config11default_rps
FN:334,_RNvNtNtCslNlzF6u6e2e_10autumn_web8security6config12default_true
FN:406,_RNvNtNtCslNlzF6u6e2e_10autumn_web8security6config13default_burst
FN:385,_RNvNtNtCslNlzF6u6e2e_10autumn_web8security6config18default_csrf_field
FN:389,_RNvNtNtCslNlzF6u6e2e_10autumn_web8security6config19default_csrf_cookie
FN:381,_RNvNtNtCslNlzF6u6e2e_10autumn_web8security6config19default_csrf_header
FN:342,_RNvNtNtCslNlzF6u6e2e_10autumn_web8security6config20default_hsts_max_age
FN:393,_RNvNtNtCslNlzF6u6e2e_10autumn_web8security6config20default_safe_methods
FN:346,_RNvNtNtCslNlzF6u6e2e_10autumn_web8security6config23default_referrer_policy
FN:338,_RNvNtNtCslNlzF6u6e2e_10autumn_web8security6config23default_x_frame_options
FN:369,_RNvNtNtCslNlzF6u6e2e_10autumn_web8security6config31default_content_security_policy
FN:170,_RNvXNtNtCslNlzF6u6e2e_10autumn_web8security6configNtB2_13HeadersConfigNtNtCs4kUJL3MZFFz_4core7default7Default7default
FN:322,_RNvXs0_NtNtCslNlzF6u6e2e_10autumn_web8security6configNtB5_15RateLimitConfigNtNtCs4kUJL3MZFFz_4core7default7Default7default
FN:252,_RNvXs_NtNtCslNlzF6u6e2e_10autumn_web8security6configNtB4_10CsrfConfigNtNtCs4kUJL3MZFFz_4core7default7Default7default
FN:474,_RNvNtNtNtCs39mWnhFxKmJ_10autumn_web8security6config5testss_20csrf_config_defaults
FN:500,_RNvNtNtNtCs39mWnhFxKmJ_10autumn_web8security6config5testss_23csrf_config_deserialize
FN:415,_RNvNtNtNtCs39mWnhFxKmJ_10autumn_web8security6config5testss_24security_config_defaults
FN:484,_RNvNtNtNtCs39mWnhFxKmJ_10autumn_web8security6config5testss_26headers_config_deserialize
FN:512,_RNvNtNtNtCs39mWnhFxKmJ_10autumn_web8security6config5testss_26rate_limit_config_defaults
FN:521,_RNvNtNtNtCs39mWnhFxKmJ_10autumn_web8security6config5testss_29rate_limit_config_deserialize
FN:465,_RNvNtNtNtCs39mWnhFxKmJ_10autumn_web8security6config5testss_30csp_can_be_overridden_via_toml
FN:546,_RNvNtNtNtCs39mWnhFxKmJ_10autumn_web8security6config5testss_32full_security_config_deserialize
FN:443,_RNvNtNtNtCs39mWnhFxKmJ_10autumn_web8security6config5testss_38default_csp_does_not_allow_unsafe_eval
FN:456,_RNvNtNtNtCs39mWnhFxKmJ_10autumn_web8security6config5testss_41csp_can_be_disabled_via_toml_empty_string
FN:536,_RNvNtNtNtCs39mWnhFxKmJ_10autumn_web8security6config5testss_51rate_limit_config_partial_deserialize_uses_defaults
FN:402,_RNvNtNtCs39mWnhFxKmJ_10autumn_web8security6config11default_rps
FN:334,_RNvNtNtCs39mWnhFxKmJ_10autumn_web8security6config12default_true
FN:406,_RNvNtNtCs39mWnhFxKmJ_10autumn_web8security6config13default_burst
FN:385,_RNvNtNtCs39mWnhFxKmJ_10autumn_web8security6config18default_csrf_field
FN:389,_RNvNtNtCs39mWnhFxKmJ_10autumn_web8security6config19default_csrf_cookie
FN:381,_RNvNtNtCs39mWnhFxKmJ_10autumn_web8security6config19default_csrf_header
FN:342,_RNvNtNtCs39mWnhFxKmJ_10autumn_web8security6config20default_hsts_max_age
FN:393,_RNvNtNtCs39mWnhFxKmJ_10autumn_web8security6config20default_safe_methods
FN:346,_RNvNtNtCs39mWnhFxKmJ_10autumn_web8security6config23default_referrer_policy
FN:338,_RNvNtNtCs39mWnhFxKmJ_10autumn_web8security6config23default_x_frame_options
FN:369,_RNvNtNtCs39mWnhFxKmJ_10autumn_web8security6config31default_content_security_policy
FN:170,_RNvXNtNtCs39mWnhFxKmJ_10autumn_web8security6configNtB2_13HeadersConfigNtNtCs4kUJL3MZFFz_4core7default7Default7default
FN:322,_RNvXs0_NtNtCs39mWnhFxKmJ_10autumn_web8security6configNtB5_15RateLimitConfigNtNtCs4kUJL3MZFFz_4core7default7Default7default
FN:252,_RNvXs_NtNtCs39mWnhFxKmJ_10autumn_web8security6configNtB4_10CsrfConfigNtNtCs4kUJL3MZFFz_4core7default7Default7default
FNDA:37,_RNvNtNtCslNlzF6u6e2e_10autumn_web8security6config11default_rps
FNDA:0,_RNvNtNtCslNlzF6u6e2e_10autumn_web8security6config12default_true
FNDA:37,_RNvNtNtCslNlzF6u6e2e_10autumn_web8security6config13default_burst
FNDA:46,_RNvNtNtCslNlzF6u6e2e_10autumn_web8security6config18default_csrf_field
FNDA:46,_RNvNtNtCslNlzF6u6e2e_10autumn_web8security6config19default_csrf_cookie
FNDA:46,_RNvNtNtCslNlzF6u6e2e_10autumn_web8security6config19default_csrf_header
FNDA:42,_RNvNtNtCslNlzF6u6e2e_10autumn_web8security6config20default_hsts_max_age
FNDA:46,_RNvNtNtCslNlzF6u6e2e_10autumn_web8security6config20default_safe_methods
FNDA:42,_RNvNtNtCslNlzF6u6e2e_10autumn_web8security6config23default_referrer_policy
FNDA:42,_RNvNtNtCslNlzF6u6e2e_10autumn_web8security6config23default_x_frame_options
FNDA:42,_RNvNtNtCslNlzF6u6e2e_10autumn_web8security6config31default_content_security_policy
FNDA:42,_RNvXNtNtCslNlzF6u6e2e_10autumn_web8security6configNtB2_13HeadersConfigNtNtCs4kUJL3MZFFz_4core7default7Default7default
FNDA:37,_RNvXs0_NtNtCslNlzF6u6e2e_10autumn_web8security6configNtB5_15RateLimitConfigNtNtCs4kUJL3MZFFz_4core7default7Default7default
FNDA:46,_RNvXs_NtNtCslNlzF6u6e2e_10autumn_web8security6configNtB4_10CsrfConfigNtNtCs4kUJL3MZFFz_4core7default7Default7default
FNDA:1,_RNvNtNtNtCs39mWnhFxKmJ_10autumn_web8security6config5testss_20csrf_config_defaults
FNDA:1,_RNvNtNtNtCs39mWnhFxKmJ_10autumn_web8security6config5testss_23csrf_config_deserialize
FNDA:1,_RNvNtNtNtCs39mWnhFxKmJ_10autumn_web8security6config5testss_24security_config_defaults
FNDA:1,_RNvNtNtNtCs39mWnhFxKmJ_10autumn_web8security6config5testss_26headers_config_deserialize
FNDA:1,_RNvNtNtNtCs39mWnhFxKmJ_10autumn_web8security6config5testss_26rate_limit_config_defaults
FNDA:1,_RNvNtNtNtCs39mWnhFxKmJ_10autumn_web8security6config5testss_29rate_limit_config_deserialize
FNDA:1,_RNvNtNtNtCs39mWnhFxKmJ_10autumn_web8security6config5testss_30csp_can_be_overridden_via_toml
FNDA:1,_RNvNtNtNtCs39mWnhFxKmJ_10autumn_web8security6config5testss_32full_security_config_deserialize
FNDA:1,_RNvNtNtNtCs39mWnhFxKmJ_10autumn_web8security6config5testss_38default_csp_does_not_allow_unsafe_eval
FNDA:1,_RNvNtNtNtCs39mWnhFxKmJ_10autumn_web8security6config5testss_41csp_can_be_disabled_via_toml_empty_string
FNDA:1,_RNvNtNtNtCs39mWnhFxKmJ_10autumn_web8security6config5testss_51rate_limit_config_partial_deserialize_uses_defaults
FNDA:148,_RNvNtNtCs39mWnhFxKmJ_10autumn_web8security6config11default_rps
FNDA:15,_RNvNtNtCs39mWnhFxKmJ_10autumn_web8security6config12default_true
FNDA:148,_RNvNtNtCs39mWnhFxKmJ_10autumn_web8security6config13default_burst
FNDA:167,_RNvNtNtCs39mWnhFxKmJ_10autumn_web8security6config18default_csrf_field
FNDA:167,_RNvNtNtCs39mWnhFxKmJ_10autumn_web8security6config19default_csrf_cookie
FNDA:166,_RNvNtNtCs39mWnhFxKmJ_10autumn_web8security6config19default_csrf_header
FNDA:162,_RNvNtNtCs39mWnhFxKmJ_10autumn_web8security6config20default_hsts_max_age
FNDA:167,_RNvNtNtCs39mWnhFxKmJ_10autumn_web8security6config20default_safe_methods
FNDA:162,_RNvNtNtCs39mWnhFxKmJ_10autumn_web8security6config23default_referrer_policy
FNDA:160,_RNvNtNtCs39mWnhFxKmJ_10autumn_web8security6config23default_x_frame_options
FNDA:160,_RNvNtNtCs39mWnhFxKmJ_10autumn_web8security6config31default_content_security_policy
FNDA:157,_RNvXNtNtCs39mWnhFxKmJ_10autumn_web8security6configNtB2_13HeadersConfigNtNtCs4kUJL3MZFFz_4core7default7Default7default
FNDA:147,_RNvXs0_NtNtCs39mWnhFxKmJ_10autumn_web8security6configNtB5_15RateLimitConfigNtNtCs4kUJL3MZFFz_4core7default7Default7default
FNDA:164,_RNvXs_NtNtCs39mWnhFxKmJ_10autumn_web8security6configNtB4_10CsrfConfigNtNtCs4kUJL3MZFFz_4core7default7Default7default
FNF:25
FNH:25
DA:170,199
DA:171,199
DA:172,199
DA:173,199
DA:174,199
DA:175,199
DA:176,199
DA:177,199
DA:178,199
DA:179,199
DA:180,199
DA:181,199
DA:182,199
DA:252,210
DA:253,210
DA:254,210
DA:255,210
DA:256,210
DA:257,210
DA:258,210
DA:259,210
DA:260,210
DA:261,210
DA:322,184
DA:323,184
DA:324,184
DA:325,184
DA:326,184
DA:327,184
DA:328,184
DA:329,184
DA:334,15
DA:335,15
DA:336,15
DA:338,202
DA:339,202
DA:340,202
DA:342,204
DA:343,204
DA:344,204
DA:346,204
DA:347,204
DA:348,204
DA:369,202
DA:370,202
DA:371,202
DA:372,202
DA:373,202
DA:374,202
DA:375,202
DA:376,202
DA:377,202
DA:378,202
DA:379,202
DA:381,212
DA:382,212
DA:383,212
DA:385,213
DA:386,213
DA:387,213
DA:389,213
DA:390,213
DA:391,213
DA:393,213
DA:394,213
DA:395,213
DA:396,213
DA:397,213
DA:398,213
DA:400,213
DA:402,185
DA:403,185
DA:404,185
DA:406,185
DA:407,185
DA:408,185
DA:415,1
DA:416,1
DA:417,1
DA:418,1
DA:419,1
DA:420,1
DA:421,1
DA:423,1
DA:424,1
DA:425,1
DA:426,1
DA:427,1
DA:428,1
DA:430,1
DA:431,1
DA:432,1
DA:433,1
DA:434,1
DA:436,1
DA:440,1
DA:443,1
DA:447,1
DA:448,1
DA:449,1
DA:450,1
DA:453,1
DA:456,1
DA:457,1
DA:458,1
DA:459,1
DA:460,1
DA:461,1
DA:462,1
DA:465,1
DA:466,1
DA:467,1
DA:468,1
DA:469,1
DA:470,1
DA:471,1
DA:474,1
DA:475,1
DA:476,1
DA:477,1
DA:478,1
DA:479,1
DA:480,1
DA:481,1
DA:484,1
DA:485,1
DA:486,1
DA:487,1
DA:488,1
DA:489,1
DA:490,1
DA:491,1
DA:492,1
DA:493,1
DA:495,1
DA:496,1
DA:497,1
DA:500,1
DA:501,1
DA:502,1
DA:503,1
DA:504,1
DA:505,1
DA:506,1
DA:507,1
DA:508,1
DA:509,1
DA:512,1
DA:513,1
DA:514,1
DA:515,1
DA:516,1
DA:517,1
DA:518,1
DA:521,1
DA:522,1
DA:523,1
DA:524,1
DA:525,1
DA:526,1
DA:527,1
DA:528,1
DA:529,1
DA:530,1
DA:531,1
DA:532,1
DA:533,1
DA:536,1
DA:537,1
DA:538,1
DA:539,1
DA:540,1
DA:541,1
DA:542,1
DA:543,1
DA:546,1
DA:547,1
DA:548,1
DA:549,1
DA:550,1
DA:551,1
DA:552,1
DA:553,1
DA:554,1
DA:555,1
DA:556,1
DA:557,1
DA:558,1
DA:559,1
DA:560,1
DA:561,1
DA:562,1
DA:563,1
DA:564,1
DA:565,1
DA:566,1
DA:567,1
BRF:0
BRH:0
LF:197
LH:197
end_of_record
SF:/app/autumn/src/security/csrf.rs
FN:110,_RNCNvXININtNtCslNlzF6u6e2e_10autumn_web8security4csrfs0_0pENtB7_9CsrfTokenINtNtCsemqjQd4VUoN_9axum_core7extract16FromRequestPartspE18from_request_parts0Bb_
FN:107,_RNvXININtNtCslNlzF6u6e2e_10autumn_web8security4csrfs0_0pENtB5_9CsrfTokenINtNtCsemqjQd4VUoN_9axum_core7extract16FromRequestPartspE18from_request_partsB9_
FN:90,_RNvMNtNtCslNlzF6u6e2e_10autumn_web8security4csrfNtB2_9CsrfToken5token
FN:139,_RNvMs1_NtNtCslNlzF6u6e2e_10autumn_web8security4csrfNtB5_9CsrfLayer11from_config
FN:189,_RNvNtNtCslNlzF6u6e2e_10autumn_web8security4csrf16constant_time_eq
FN:311,_RNvNtNtCslNlzF6u6e2e_10autumn_web8security4csrf17verify_csrf_token
FN:212,_RNvNtNtCslNlzF6u6e2e_10autumn_web8security4csrf20extract_cookie_token
FN:96,_RNvXs_NtNtCslNlzF6u6e2e_10autumn_web8security4csrfNtB4_9CsrfTokenNtNtCs4kUJL3MZFFz_4core3fmt7Display3fmt
FN:322,_RNCNCNvNtNtCslNlzF6u6e2e_10autumn_web8security4csrf17verify_csrf_token00B9_
FN:351,_RNCNCNvNtNtCslNlzF6u6e2e_10autumn_web8security4csrf17verify_csrf_token0s0_0B9_
FN:338,_RNCNCNvNtNtCslNlzF6u6e2e_10autumn_web8security4csrf17verify_csrf_token0s_0B9_
FN:143,_RNCNvMs1_NtNtCslNlzF6u6e2e_10autumn_web8security4csrfNtB7_9CsrfLayer11from_config0Bb_
FN:149,_RNCNvMs1_NtNtCslNlzF6u6e2e_10autumn_web8security4csrfNtB7_9CsrfLayer11from_configs_0Bb_
FN:315,_RNCNvNtNtCslNlzF6u6e2e_10autumn_web8security4csrf17verify_csrf_token0B7_
FN:258,_RNCNvXs3_NtNtCslNlzF6u6e2e_10autumn_web8security4csrfINtB7_11CsrfServiceNtNtNtCs2SFNBOiMNMK_4axum7routing5route5RouteEINtCs9j4nKNK4ihi_13tower_service7ServiceINtNtCs9nCgvg33Qqo_4http7request7RequestNtNtCsemqjQd4VUoN_9axum_core4body4BodyEE4call0Bb_
FN:286,_RNCNvXs3_NtNtCslNlzF6u6e2e_10autumn_web8security4csrfINtB7_11CsrfServiceNtNtNtCs2SFNBOiMNMK_4axum7routing5route5RouteEINtCs9j4nKNK4ihi_13tower_service7ServiceINtNtCs9nCgvg33Qqo_4http7request7RequestNtNtCsemqjQd4VUoN_9axum_core4body4BodyEE4calls0_0Bb_
FN:265,_RNCNvXs3_NtNtCslNlzF6u6e2e_10autumn_web8security4csrfINtB7_11CsrfServiceNtNtNtCs2SFNBOiMNMK_4axum7routing5route5RouteEINtCs9j4nKNK4ihi_13tower_service7ServiceINtNtCs9nCgvg33Qqo_4http7request7RequestNtNtCsemqjQd4VUoN_9axum_core4body4BodyEE4calls_0Bb_
FN:166,_RNvXs2_NtNtCslNlzF6u6e2e_10autumn_web8security4csrfNtB5_9CsrfLayerINtCscMAT8yzRe8V_11tower_layer5LayerNtNtNtCs2SFNBOiMNMK_4axum7routing5route5RouteE5layerB9_
FN:248,_RNvXs3_NtNtCslNlzF6u6e2e_10autumn_web8security4csrfINtB5_11CsrfServiceNtNtNtCs2SFNBOiMNMK_4axum7routing5route5RouteEINtCs9j4nKNK4ihi_13tower_service7ServiceINtNtCs9nCgvg33Qqo_4http7request7RequestNtNtCsemqjQd4VUoN_9axum_core4body4BodyEE10poll_readyB9_
FN:252,_RNvXs3_NtNtCslNlzF6u6e2e_10autumn_web8security4csrfINtB5_11CsrfServiceNtNtNtCs2SFNBOiMNMK_4axum7routing5route5RouteEINtCs9j4nKNK4ihi_13tower_service7ServiceINtNtCs9nCgvg33Qqo_4http7request7RequestNtNtCsemqjQd4VUoN_9axum_core4body4BodyEE4callB9_
FN:96,_RNvXs_NtNtCs39mWnhFxKmJ_10autumn_web8security4csrfNtB4_9CsrfTokenNtNtCs4kUJL3MZFFz_4core3fmt7Display3fmt
FN:580,_RNvNCNvNtNtNtCs39mWnhFxKmJ_10autumn_web8security4csrf5testss_26csrf_token_extractor_works07handler
FN:382,_RNvNtNtNtCs39mWnhFxKmJ_10autumn_web8security4csrf5tests19default_csrf_config
FN:656,_RNvNtNtNtCs39mWnhFxKmJ_10autumn_web8security4csrf5testss_21test_constant_time_eq
FN:579,_RNvNtNtNtCs39mWnhFxKmJ_10autumn_web8security4csrf5testss_26csrf_token_extractor_works
FN:602,_RNvNtNtNtCs39mWnhFxKmJ_10autumn_web8security4csrf5testss_26extract_cookie_from_header
FN:615,_RNvNtNtNtCs39mWnhFxKmJ_10autumn_web8security4csrf5testss_27missing_cookie_returns_none
FN:532,_RNvNtNtNtCs39mWnhFxKmJ_10autumn_web8security4csrf5testss_28post_with_valid_token_passes
FN:410,_RNvNtNtNtCs39mWnhFxKmJ_10autumn_web8security4csrf5testss_28safe_method_sets_csrf_cookie
FN:437,_RNvNtNtNtCs39mWnhFxKmJ_10autumn_web8security4csrf5testss_30post_without_token_returns_403
FN:758,_RNvNtNtNtCs39mWnhFxKmJ_10autumn_web8security4csrf5testss_31post_with_large_body_fails_csrf
FN:390,_RNvNtNtNtCs39mWnhFxKmJ_10autumn_web8security4csrf5testss_32safe_method_passes_without_token
FN:492,_RNvNtNtNtCs39mWnhFxKmJ_10autumn_web8security4csrf5testss_33exempt_path_skips_csrf_validation
FN:785,_RNvNtNtNtCs39mWnhFxKmJ_10autumn_web8security4csrf5testss_34post_with_empty_tokens_returns_403
FN:835,_RNvNtNtNtCs39mWnhFxKmJ_10autumn_web8security4csrf5testss_35from_config_filters_invalid_methods
FN:555,_RNvNtNtNtCs39mWnhFxKmJ_10autumn_web8security4csrf5testss_38post_with_mismatched_token_returns_403
FN:621,_RNvNtNtNtCs39mWnhFxKmJ_10autumn_web8security4csrf5testss_39extract_cookie_rejects_multiple_cookies
FN:457,_RNvNtNtNtCs39mWnhFxKmJ_10autumn_web8security4csrf5testss_39forbidden_response_has_clear_error_body
FN:851,_RNvNtNtNtCs39mWnhFxKmJ_10autumn_web8security4csrf5testss_39from_config_handles_invalid_header_name
FN:666,_RNvNtNtNtCs39mWnhFxKmJ_10autumn_web8security4csrf5testss_39post_with_empty_cookie_but_valid_header
FN:810,_RNvNtNtNtCs39mWnhFxKmJ_10autumn_web8security4csrf5testss_39post_with_empty_form_tokens_returns_403
FN:689,_RNvNtNtNtCs39mWnhFxKmJ_10autumn_web8security4csrf5testss_39post_with_valid_cookie_but_empty_header
FN:638,_RNvNtNtNtCs39mWnhFxKmJ_10autumn_web8security4csrf5testss_40extract_cookie_ignores_malformed_cookies
FN:712,_RNvNtNtNtCs39mWnhFxKmJ_10autumn_web8security4csrf5testss_43post_with_empty_cookie_but_valid_form_field
FN:735,_RNvNtNtNtCs39mWnhFxKmJ_10autumn_web8security4csrf5testss_43post_with_valid_cookie_but_empty_form_field
FN:322,_RNCNCNvNtNtCs39mWnhFxKmJ_10autumn_web8security4csrf17verify_csrf_token00B9_
FN:351,_RNCNCNvNtNtCs39mWnhFxKmJ_10autumn_web8security4csrf17verify_csrf_token0s0_0B9_
FN:338,_RNCNCNvNtNtCs39mWnhFxKmJ_10autumn_web8security4csrf17verify_csrf_token0s_0B9_
FN:143,_RNCNvMs1_NtNtCs39mWnhFxKmJ_10autumn_web8security4csrfNtB7_9CsrfLayer11from_config0Bb_
FN:149,_RNCNvMs1_NtNtCs39mWnhFxKmJ_10autumn_web8security4csrfNtB7_9CsrfLayer11from_configs_0Bb_
FN:315,_RNCNvNtNtCs39mWnhFxKmJ_10autumn_web8security4csrf17verify_csrf_token0B7_
FN:110,_RNCNvXs0_NtNtCs39mWnhFxKmJ_10autumn_web8security4csrfNtB7_9CsrfTokenINtNtCsemqjQd4VUoN_9axum_core7extract16FromRequestPartsuE18from_request_parts0Bb_
FN:258,_RNCNvXs3_NtNtCs39mWnhFxKmJ_10autumn_web8security4csrfINtB7_11CsrfServiceNtNtNtCs2SFNBOiMNMK_4axum7routing5route5RouteEINtCs9j4nKNK4ihi_13tower_service7ServiceINtNtCs9nCgvg33Qqo_4http7request7RequestNtNtCsemqjQd4VUoN_9axum_core4body4BodyEE4call0Bb_
FN:286,_RNCNvXs3_NtNtCs39mWnhFxKmJ_10autumn_web8security4csrfINtB7_11CsrfServiceNtNtNtCs2SFNBOiMNMK_4axum7routing5route5RouteEINtCs9j4nKNK4ihi_13tower_service7ServiceINtNtCs9nCgvg33Qqo_4http7request7RequestNtNtCsemqjQd4VUoN_9axum_core4body4BodyEE4calls0_0Bb_
FN:265,_RNCNvXs3_NtNtCs39mWnhFxKmJ_10autumn_web8security4csrfINtB7_11CsrfServiceNtNtNtCs2SFNBOiMNMK_4axum7routing5route5RouteEINtCs9j4nKNK4ihi_13tower_service7ServiceINtNtCs9nCgvg33Qqo_4http7request7RequestNtNtCsemqjQd4VUoN_9axum_core4body4BodyEE4calls_0Bb_
FN:107,_RNvXs0_NtNtCs39mWnhFxKmJ_10autumn_web8security4csrfNtB5_9CsrfTokenINtNtCsemqjQd4VUoN_9axum_core7extract16FromRequestPartsuE18from_request_partsB9_
FN:166,_RNvXs2_NtNtCs39mWnhFxKmJ_10autumn_web8security4csrfNtB5_9CsrfLayerINtCscMAT8yzRe8V_11tower_layer5LayerNtNtNtCs2SFNBOiMNMK_4axum7routing5route5RouteE5layerB9_
FN:248,_RNvXs3_NtNtCs39mWnhFxKmJ_10autumn_web8security4csrfINtB5_11CsrfServiceNtNtNtCs2SFNBOiMNMK_4axum7routing5route5RouteEINtCs9j4nKNK4ihi_13tower_service7ServiceINtNtCs9nCgvg33Qqo_4http7request7RequestNtNtCsemqjQd4VUoN_9axum_core4body4BodyEE10poll_readyB9_
FN:252,_RNvXs3_NtNtCs39mWnhFxKmJ_10autumn_web8security4csrfINtB5_11CsrfServiceNtNtNtCs2SFNBOiMNMK_4axum7routing5route5RouteEINtCs9j4nKNK4ihi_13tower_service7ServiceINtNtCs9nCgvg33Qqo_4http7request7RequestNtNtCsemqjQd4VUoN_9axum_core4body4BodyEE4callB9_
FN:90,_RNvMNtNtCs39mWnhFxKmJ_10autumn_web8security4csrfNtB2_9CsrfToken5token
FN:139,_RNvMs1_NtNtCs39mWnhFxKmJ_10autumn_web8security4csrfNtB5_9CsrfLayer11from_config
FN:189,_RNvNtNtCs39mWnhFxKmJ_10autumn_web8security4csrf16constant_time_eq
FN:311,_RNvNtNtCs39mWnhFxKmJ_10autumn_web8security4csrf17verify_csrf_token
FN:212,_RNvNtNtCs39mWnhFxKmJ_10autumn_web8security4csrf20extract_cookie_token
FN:535,_RNCNCNCNvNtNtNtCs39mWnhFxKmJ_10autumn_web8security4csrf5testss_28post_with_valid_token_passes000Bd_
FN:412,_RNCNCNCNvNtNtNtCs39mWnhFxKmJ_10autumn_web8security4csrf5testss_28safe_method_sets_csrf_cookie000Bd_
FN:439,_RNCNCNCNvNtNtNtCs39mWnhFxKmJ_10autumn_web8security4csrf5testss_30post_without_token_returns_403000Bd_
FN:761,_RNCNCNCNvNtNtNtCs39mWnhFxKmJ_10autumn_web8security4csrf5testss_31post_with_large_body_fails_csrf000Bd_
FN:392,_RNCNCNCNvNtNtNtCs39mWnhFxKmJ_10autumn_web8security4csrf5testss_32safe_method_passes_without_token000Bd_
FN:499,_RNCNCNCNvNtNtNtCs39mWnhFxKmJ_10autumn_web8security4csrf5testss_33exempt_path_skips_csrf_validation000Bd_
